ARM GAS  /tmp/ccr3mP7A.s 			page 1


   1              		.cpu cortex-m4
   2              		.eabi_attribute 27, 1
   3              		.eabi_attribute 28, 1
   4              		.eabi_attribute 20, 1
   5              		.eabi_attribute 21, 1
   6              		.eabi_attribute 23, 3
   7              		.eabi_attribute 24, 1
   8              		.eabi_attribute 25, 1
   9              		.eabi_attribute 26, 1
  10              		.eabi_attribute 30, 1
  11              		.eabi_attribute 34, 1
  12              		.eabi_attribute 18, 4
  13              		.file	"stm32wbxx_ll_usb.c"
  14              		.text
  15              	.Ltext0:
  16              		.cfi_sections	.debug_frame
  17              		.section	.text.USB_CoreInit,"ax",%progbits
  18              		.align	1
  19              		.global	USB_CoreInit
  20              		.arch armv7e-m
  21              		.syntax unified
  22              		.thumb
  23              		.thumb_func
  24              		.fpu fpv4-sp-d16
  26              	USB_CoreInit:
  27              	.LVL0:
  28              	.LFB941:
  29              		.file 1 "Drivers/STM32WBxx_HAL_Driver/Src/stm32wbxx_ll_usb.c"
   1:Drivers/STM32WBxx_HAL_Driver/Src/stm32wbxx_ll_usb.c **** /**
   2:Drivers/STM32WBxx_HAL_Driver/Src/stm32wbxx_ll_usb.c ****   ******************************************************************************
   3:Drivers/STM32WBxx_HAL_Driver/Src/stm32wbxx_ll_usb.c ****   * @file    stm32wbxx_ll_usb.c
   4:Drivers/STM32WBxx_HAL_Driver/Src/stm32wbxx_ll_usb.c ****   * @author  MCD Application Team
   5:Drivers/STM32WBxx_HAL_Driver/Src/stm32wbxx_ll_usb.c ****   * @brief   USB Low Layer HAL module driver.
   6:Drivers/STM32WBxx_HAL_Driver/Src/stm32wbxx_ll_usb.c ****   *
   7:Drivers/STM32WBxx_HAL_Driver/Src/stm32wbxx_ll_usb.c ****   *          This file provides firmware functions to manage the following
   8:Drivers/STM32WBxx_HAL_Driver/Src/stm32wbxx_ll_usb.c ****   *          functionalities of the USB Peripheral Controller:
   9:Drivers/STM32WBxx_HAL_Driver/Src/stm32wbxx_ll_usb.c ****   *           + Initialization/de-initialization functions
  10:Drivers/STM32WBxx_HAL_Driver/Src/stm32wbxx_ll_usb.c ****   *           + I/O operation functions
  11:Drivers/STM32WBxx_HAL_Driver/Src/stm32wbxx_ll_usb.c ****   *           + Peripheral Control functions
  12:Drivers/STM32WBxx_HAL_Driver/Src/stm32wbxx_ll_usb.c ****   *           + Peripheral State functions
  13:Drivers/STM32WBxx_HAL_Driver/Src/stm32wbxx_ll_usb.c ****   *
  14:Drivers/STM32WBxx_HAL_Driver/Src/stm32wbxx_ll_usb.c ****   @verbatim
  15:Drivers/STM32WBxx_HAL_Driver/Src/stm32wbxx_ll_usb.c ****   ==============================================================================
  16:Drivers/STM32WBxx_HAL_Driver/Src/stm32wbxx_ll_usb.c ****                     ##### How to use this driver #####
  17:Drivers/STM32WBxx_HAL_Driver/Src/stm32wbxx_ll_usb.c ****   ==============================================================================
  18:Drivers/STM32WBxx_HAL_Driver/Src/stm32wbxx_ll_usb.c ****     [..]
  19:Drivers/STM32WBxx_HAL_Driver/Src/stm32wbxx_ll_usb.c ****       (#) Fill parameters of Init structure in USB_OTG_CfgTypeDef structure.
  20:Drivers/STM32WBxx_HAL_Driver/Src/stm32wbxx_ll_usb.c **** 
  21:Drivers/STM32WBxx_HAL_Driver/Src/stm32wbxx_ll_usb.c ****       (#) Call USB_CoreInit() API to initialize the USB Core peripheral.
  22:Drivers/STM32WBxx_HAL_Driver/Src/stm32wbxx_ll_usb.c **** 
  23:Drivers/STM32WBxx_HAL_Driver/Src/stm32wbxx_ll_usb.c ****       (#) The upper HAL HCD/PCD driver will call the right routines for its internal processes.
  24:Drivers/STM32WBxx_HAL_Driver/Src/stm32wbxx_ll_usb.c **** 
  25:Drivers/STM32WBxx_HAL_Driver/Src/stm32wbxx_ll_usb.c ****   @endverbatim
  26:Drivers/STM32WBxx_HAL_Driver/Src/stm32wbxx_ll_usb.c ****   ******************************************************************************
  27:Drivers/STM32WBxx_HAL_Driver/Src/stm32wbxx_ll_usb.c ****   * @attention
  28:Drivers/STM32WBxx_HAL_Driver/Src/stm32wbxx_ll_usb.c ****   *
  29:Drivers/STM32WBxx_HAL_Driver/Src/stm32wbxx_ll_usb.c ****   * <h2><center>&copy; Copyright (c) 2019 STMicroelectronics.
ARM GAS  /tmp/ccr3mP7A.s 			page 2


  30:Drivers/STM32WBxx_HAL_Driver/Src/stm32wbxx_ll_usb.c ****   * All rights reserved.</center></h2>
  31:Drivers/STM32WBxx_HAL_Driver/Src/stm32wbxx_ll_usb.c ****   *
  32:Drivers/STM32WBxx_HAL_Driver/Src/stm32wbxx_ll_usb.c ****   * This software component is licensed by ST under BSD 3-Clause license,
  33:Drivers/STM32WBxx_HAL_Driver/Src/stm32wbxx_ll_usb.c ****   * the "License"; You may not use this file except in compliance with the
  34:Drivers/STM32WBxx_HAL_Driver/Src/stm32wbxx_ll_usb.c ****   * License. You may obtain a copy of the License at:
  35:Drivers/STM32WBxx_HAL_Driver/Src/stm32wbxx_ll_usb.c ****   *                        opensource.org/licenses/BSD-3-Clause
  36:Drivers/STM32WBxx_HAL_Driver/Src/stm32wbxx_ll_usb.c ****   *
  37:Drivers/STM32WBxx_HAL_Driver/Src/stm32wbxx_ll_usb.c ****   ******************************************************************************
  38:Drivers/STM32WBxx_HAL_Driver/Src/stm32wbxx_ll_usb.c ****   */
  39:Drivers/STM32WBxx_HAL_Driver/Src/stm32wbxx_ll_usb.c **** 
  40:Drivers/STM32WBxx_HAL_Driver/Src/stm32wbxx_ll_usb.c **** /* Includes ------------------------------------------------------------------*/
  41:Drivers/STM32WBxx_HAL_Driver/Src/stm32wbxx_ll_usb.c **** #include "stm32wbxx_hal.h"
  42:Drivers/STM32WBxx_HAL_Driver/Src/stm32wbxx_ll_usb.c **** 
  43:Drivers/STM32WBxx_HAL_Driver/Src/stm32wbxx_ll_usb.c **** /** @addtogroup STM32WBxx_LL_USB_DRIVER
  44:Drivers/STM32WBxx_HAL_Driver/Src/stm32wbxx_ll_usb.c ****   * @{
  45:Drivers/STM32WBxx_HAL_Driver/Src/stm32wbxx_ll_usb.c ****   */
  46:Drivers/STM32WBxx_HAL_Driver/Src/stm32wbxx_ll_usb.c **** 
  47:Drivers/STM32WBxx_HAL_Driver/Src/stm32wbxx_ll_usb.c **** #if defined (HAL_PCD_MODULE_ENABLED) || defined (HAL_HCD_MODULE_ENABLED)
  48:Drivers/STM32WBxx_HAL_Driver/Src/stm32wbxx_ll_usb.c **** #if defined (USB)
  49:Drivers/STM32WBxx_HAL_Driver/Src/stm32wbxx_ll_usb.c **** /* Private typedef -----------------------------------------------------------*/
  50:Drivers/STM32WBxx_HAL_Driver/Src/stm32wbxx_ll_usb.c **** /* Private define ------------------------------------------------------------*/
  51:Drivers/STM32WBxx_HAL_Driver/Src/stm32wbxx_ll_usb.c **** /* Private macro -------------------------------------------------------------*/
  52:Drivers/STM32WBxx_HAL_Driver/Src/stm32wbxx_ll_usb.c **** /* Private variables ---------------------------------------------------------*/
  53:Drivers/STM32WBxx_HAL_Driver/Src/stm32wbxx_ll_usb.c **** /* Private function prototypes -----------------------------------------------*/
  54:Drivers/STM32WBxx_HAL_Driver/Src/stm32wbxx_ll_usb.c **** /* Private functions ---------------------------------------------------------*/
  55:Drivers/STM32WBxx_HAL_Driver/Src/stm32wbxx_ll_usb.c **** 
  56:Drivers/STM32WBxx_HAL_Driver/Src/stm32wbxx_ll_usb.c **** 
  57:Drivers/STM32WBxx_HAL_Driver/Src/stm32wbxx_ll_usb.c **** /**
  58:Drivers/STM32WBxx_HAL_Driver/Src/stm32wbxx_ll_usb.c ****   * @brief  Initializes the USB Core
  59:Drivers/STM32WBxx_HAL_Driver/Src/stm32wbxx_ll_usb.c ****   * @param  USBx: USB Instance
  60:Drivers/STM32WBxx_HAL_Driver/Src/stm32wbxx_ll_usb.c ****   * @param  cfg : pointer to a USB_CfgTypeDef structure that contains
  61:Drivers/STM32WBxx_HAL_Driver/Src/stm32wbxx_ll_usb.c ****   *         the configuration information for the specified USBx peripheral.
  62:Drivers/STM32WBxx_HAL_Driver/Src/stm32wbxx_ll_usb.c ****   * @retval HAL status
  63:Drivers/STM32WBxx_HAL_Driver/Src/stm32wbxx_ll_usb.c ****   */
  64:Drivers/STM32WBxx_HAL_Driver/Src/stm32wbxx_ll_usb.c **** HAL_StatusTypeDef USB_CoreInit(USB_TypeDef *USBx, USB_CfgTypeDef cfg)
  65:Drivers/STM32WBxx_HAL_Driver/Src/stm32wbxx_ll_usb.c **** {
  30              		.loc 1 65 1 view -0
  31              		.cfi_startproc
  32              		@ args = 36, pretend = 16, frame = 0
  33              		@ frame_needed = 0, uses_anonymous_args = 0
  34              		@ link register save eliminated.
  35              		.loc 1 65 1 is_stmt 0 view .LVU1
  36 0000 84B0     		sub	sp, sp, #16
  37              	.LCFI0:
  38              		.cfi_def_cfa_offset 16
  39 0002 01A8     		add	r0, sp, #4
  40              	.LVL1:
  41              		.loc 1 65 1 view .LVU2
  42 0004 80E80E00 		stm	r0, {r1, r2, r3}
  66:Drivers/STM32WBxx_HAL_Driver/Src/stm32wbxx_ll_usb.c ****   /* Prevent unused argument(s) compilation warning */
  67:Drivers/STM32WBxx_HAL_Driver/Src/stm32wbxx_ll_usb.c ****   UNUSED(USBx);
  43              		.loc 1 67 3 is_stmt 1 view .LVU3
  68:Drivers/STM32WBxx_HAL_Driver/Src/stm32wbxx_ll_usb.c ****   UNUSED(cfg);
  44              		.loc 1 68 3 view .LVU4
  69:Drivers/STM32WBxx_HAL_Driver/Src/stm32wbxx_ll_usb.c **** 
  70:Drivers/STM32WBxx_HAL_Driver/Src/stm32wbxx_ll_usb.c ****   /* NOTE : - This function is not required by USB Device FS peripheral, it is used
  71:Drivers/STM32WBxx_HAL_Driver/Src/stm32wbxx_ll_usb.c ****               only by USB OTG FS peripheral.
ARM GAS  /tmp/ccr3mP7A.s 			page 3


  72:Drivers/STM32WBxx_HAL_Driver/Src/stm32wbxx_ll_usb.c ****             - This function is added to ensure compatibility across platforms.
  73:Drivers/STM32WBxx_HAL_Driver/Src/stm32wbxx_ll_usb.c ****    */
  74:Drivers/STM32WBxx_HAL_Driver/Src/stm32wbxx_ll_usb.c **** 
  75:Drivers/STM32WBxx_HAL_Driver/Src/stm32wbxx_ll_usb.c ****   return HAL_OK;
  45              		.loc 1 75 3 view .LVU5
  76:Drivers/STM32WBxx_HAL_Driver/Src/stm32wbxx_ll_usb.c **** }
  46              		.loc 1 76 1 is_stmt 0 view .LVU6
  47 0008 0020     		movs	r0, #0
  48 000a 04B0     		add	sp, sp, #16
  49              	.LCFI1:
  50              		.cfi_def_cfa_offset 0
  51 000c 7047     		bx	lr
  52              		.cfi_endproc
  53              	.LFE941:
  55              		.section	.text.USB_EnableGlobalInt,"ax",%progbits
  56              		.align	1
  57              		.global	USB_EnableGlobalInt
  58              		.syntax unified
  59              		.thumb
  60              		.thumb_func
  61              		.fpu fpv4-sp-d16
  63              	USB_EnableGlobalInt:
  64              	.LVL2:
  65              	.LFB942:
  77:Drivers/STM32WBxx_HAL_Driver/Src/stm32wbxx_ll_usb.c **** 
  78:Drivers/STM32WBxx_HAL_Driver/Src/stm32wbxx_ll_usb.c **** /**
  79:Drivers/STM32WBxx_HAL_Driver/Src/stm32wbxx_ll_usb.c ****   * @brief  USB_EnableGlobalInt
  80:Drivers/STM32WBxx_HAL_Driver/Src/stm32wbxx_ll_usb.c ****   *         Enables the controller's Global Int in the AHB Config reg
  81:Drivers/STM32WBxx_HAL_Driver/Src/stm32wbxx_ll_usb.c ****   * @param  USBx : Selected device
  82:Drivers/STM32WBxx_HAL_Driver/Src/stm32wbxx_ll_usb.c ****   * @retval HAL status
  83:Drivers/STM32WBxx_HAL_Driver/Src/stm32wbxx_ll_usb.c ****   */
  84:Drivers/STM32WBxx_HAL_Driver/Src/stm32wbxx_ll_usb.c **** HAL_StatusTypeDef USB_EnableGlobalInt(USB_TypeDef *USBx)
  85:Drivers/STM32WBxx_HAL_Driver/Src/stm32wbxx_ll_usb.c **** {
  66              		.loc 1 85 1 is_stmt 1 view -0
  67              		.cfi_startproc
  68              		@ args = 0, pretend = 0, frame = 0
  69              		@ frame_needed = 0, uses_anonymous_args = 0
  70              		@ link register save eliminated.
  86:Drivers/STM32WBxx_HAL_Driver/Src/stm32wbxx_ll_usb.c ****   uint16_t winterruptmask;
  71              		.loc 1 86 3 view .LVU8
  87:Drivers/STM32WBxx_HAL_Driver/Src/stm32wbxx_ll_usb.c **** 
  88:Drivers/STM32WBxx_HAL_Driver/Src/stm32wbxx_ll_usb.c ****   /* Set winterruptmask variable */
  89:Drivers/STM32WBxx_HAL_Driver/Src/stm32wbxx_ll_usb.c ****   winterruptmask = USB_CNTR_CTRM  | USB_CNTR_WKUPM |
  72              		.loc 1 89 3 view .LVU9
  90:Drivers/STM32WBxx_HAL_Driver/Src/stm32wbxx_ll_usb.c ****                    USB_CNTR_SUSPM | USB_CNTR_ERRM |
  91:Drivers/STM32WBxx_HAL_Driver/Src/stm32wbxx_ll_usb.c ****                    USB_CNTR_SOFM | USB_CNTR_ESOFM |
  92:Drivers/STM32WBxx_HAL_Driver/Src/stm32wbxx_ll_usb.c ****                    USB_CNTR_RESETM | USB_CNTR_L1REQM;
  93:Drivers/STM32WBxx_HAL_Driver/Src/stm32wbxx_ll_usb.c **** 
  94:Drivers/STM32WBxx_HAL_Driver/Src/stm32wbxx_ll_usb.c ****   /* Set interrupt mask */
  95:Drivers/STM32WBxx_HAL_Driver/Src/stm32wbxx_ll_usb.c ****   USBx->CNTR |= winterruptmask;
  73              		.loc 1 95 3 view .LVU10
  74              		.loc 1 95 14 is_stmt 0 view .LVU11
  75 0000 B0F84030 		ldrh	r3, [r0, #64]
  76 0004 9BB2     		uxth	r3, r3
  77 0006 43F43F43 		orr	r3, r3, #48896
  78 000a 43F08003 		orr	r3, r3, #128
  79 000e A0F84030 		strh	r3, [r0, #64]	@ movhi
ARM GAS  /tmp/ccr3mP7A.s 			page 4


  96:Drivers/STM32WBxx_HAL_Driver/Src/stm32wbxx_ll_usb.c **** 
  97:Drivers/STM32WBxx_HAL_Driver/Src/stm32wbxx_ll_usb.c ****   return HAL_OK;
  80              		.loc 1 97 3 is_stmt 1 view .LVU12
  98:Drivers/STM32WBxx_HAL_Driver/Src/stm32wbxx_ll_usb.c **** }
  81              		.loc 1 98 1 is_stmt 0 view .LVU13
  82 0012 0020     		movs	r0, #0
  83              	.LVL3:
  84              		.loc 1 98 1 view .LVU14
  85 0014 7047     		bx	lr
  86              		.cfi_endproc
  87              	.LFE942:
  89              		.section	.text.USB_DisableGlobalInt,"ax",%progbits
  90              		.align	1
  91              		.global	USB_DisableGlobalInt
  92              		.syntax unified
  93              		.thumb
  94              		.thumb_func
  95              		.fpu fpv4-sp-d16
  97              	USB_DisableGlobalInt:
  98              	.LVL4:
  99              	.LFB943:
  99:Drivers/STM32WBxx_HAL_Driver/Src/stm32wbxx_ll_usb.c **** 
 100:Drivers/STM32WBxx_HAL_Driver/Src/stm32wbxx_ll_usb.c **** /**
 101:Drivers/STM32WBxx_HAL_Driver/Src/stm32wbxx_ll_usb.c ****   * @brief  USB_DisableGlobalInt
 102:Drivers/STM32WBxx_HAL_Driver/Src/stm32wbxx_ll_usb.c ****   *         Disable the controller's Global Int in the AHB Config reg
 103:Drivers/STM32WBxx_HAL_Driver/Src/stm32wbxx_ll_usb.c ****   * @param  USBx : Selected device
 104:Drivers/STM32WBxx_HAL_Driver/Src/stm32wbxx_ll_usb.c ****   * @retval HAL status
 105:Drivers/STM32WBxx_HAL_Driver/Src/stm32wbxx_ll_usb.c **** */
 106:Drivers/STM32WBxx_HAL_Driver/Src/stm32wbxx_ll_usb.c **** HAL_StatusTypeDef USB_DisableGlobalInt(USB_TypeDef *USBx)
 107:Drivers/STM32WBxx_HAL_Driver/Src/stm32wbxx_ll_usb.c **** {
 100              		.loc 1 107 1 is_stmt 1 view -0
 101              		.cfi_startproc
 102              		@ args = 0, pretend = 0, frame = 0
 103              		@ frame_needed = 0, uses_anonymous_args = 0
 104              		@ link register save eliminated.
 108:Drivers/STM32WBxx_HAL_Driver/Src/stm32wbxx_ll_usb.c ****   uint16_t winterruptmask;
 105              		.loc 1 108 3 view .LVU16
 109:Drivers/STM32WBxx_HAL_Driver/Src/stm32wbxx_ll_usb.c **** 
 110:Drivers/STM32WBxx_HAL_Driver/Src/stm32wbxx_ll_usb.c ****   /* Set winterruptmask variable */
 111:Drivers/STM32WBxx_HAL_Driver/Src/stm32wbxx_ll_usb.c ****   winterruptmask = USB_CNTR_CTRM  | USB_CNTR_WKUPM |
 106              		.loc 1 111 3 view .LVU17
 112:Drivers/STM32WBxx_HAL_Driver/Src/stm32wbxx_ll_usb.c ****                    USB_CNTR_SUSPM | USB_CNTR_ERRM |
 113:Drivers/STM32WBxx_HAL_Driver/Src/stm32wbxx_ll_usb.c ****                    USB_CNTR_SOFM | USB_CNTR_ESOFM |
 114:Drivers/STM32WBxx_HAL_Driver/Src/stm32wbxx_ll_usb.c ****                    USB_CNTR_RESETM | USB_CNTR_L1REQM;
 115:Drivers/STM32WBxx_HAL_Driver/Src/stm32wbxx_ll_usb.c **** 
 116:Drivers/STM32WBxx_HAL_Driver/Src/stm32wbxx_ll_usb.c ****   /* Clear interrupt mask */
 117:Drivers/STM32WBxx_HAL_Driver/Src/stm32wbxx_ll_usb.c ****   USBx->CNTR &= ~winterruptmask;
 107              		.loc 1 117 3 view .LVU18
 108              		.loc 1 117 14 is_stmt 0 view .LVU19
 109 0000 B0F84030 		ldrh	r3, [r0, #64]
 110 0004 23F47E53 		bic	r3, r3, #16256
 111 0008 5B04     		lsls	r3, r3, #17
 112 000a 5B0C     		lsrs	r3, r3, #17
 113 000c A0F84030 		strh	r3, [r0, #64]	@ movhi
 118:Drivers/STM32WBxx_HAL_Driver/Src/stm32wbxx_ll_usb.c **** 
 119:Drivers/STM32WBxx_HAL_Driver/Src/stm32wbxx_ll_usb.c ****   return HAL_OK;
 114              		.loc 1 119 3 is_stmt 1 view .LVU20
ARM GAS  /tmp/ccr3mP7A.s 			page 5


 120:Drivers/STM32WBxx_HAL_Driver/Src/stm32wbxx_ll_usb.c **** }
 115              		.loc 1 120 1 is_stmt 0 view .LVU21
 116 0010 0020     		movs	r0, #0
 117              	.LVL5:
 118              		.loc 1 120 1 view .LVU22
 119 0012 7047     		bx	lr
 120              		.cfi_endproc
 121              	.LFE943:
 123              		.section	.text.USB_SetCurrentMode,"ax",%progbits
 124              		.align	1
 125              		.global	USB_SetCurrentMode
 126              		.syntax unified
 127              		.thumb
 128              		.thumb_func
 129              		.fpu fpv4-sp-d16
 131              	USB_SetCurrentMode:
 132              	.LVL6:
 133              	.LFB944:
 121:Drivers/STM32WBxx_HAL_Driver/Src/stm32wbxx_ll_usb.c **** 
 122:Drivers/STM32WBxx_HAL_Driver/Src/stm32wbxx_ll_usb.c **** /**
 123:Drivers/STM32WBxx_HAL_Driver/Src/stm32wbxx_ll_usb.c ****   * @brief  USB_SetCurrentMode : Set functional mode
 124:Drivers/STM32WBxx_HAL_Driver/Src/stm32wbxx_ll_usb.c ****   * @param  USBx : Selected device
 125:Drivers/STM32WBxx_HAL_Driver/Src/stm32wbxx_ll_usb.c ****   * @param  mode :  current core mode
 126:Drivers/STM32WBxx_HAL_Driver/Src/stm32wbxx_ll_usb.c ****   *          This parameter can be one of the these values:
 127:Drivers/STM32WBxx_HAL_Driver/Src/stm32wbxx_ll_usb.c ****   *            @arg USB_DEVICE_MODE: Peripheral mode mode
 128:Drivers/STM32WBxx_HAL_Driver/Src/stm32wbxx_ll_usb.c ****   * @retval HAL status
 129:Drivers/STM32WBxx_HAL_Driver/Src/stm32wbxx_ll_usb.c ****   */
 130:Drivers/STM32WBxx_HAL_Driver/Src/stm32wbxx_ll_usb.c **** HAL_StatusTypeDef USB_SetCurrentMode(USB_TypeDef *USBx, USB_ModeTypeDef mode)
 131:Drivers/STM32WBxx_HAL_Driver/Src/stm32wbxx_ll_usb.c **** {
 134              		.loc 1 131 1 is_stmt 1 view -0
 135              		.cfi_startproc
 136              		@ args = 0, pretend = 0, frame = 0
 137              		@ frame_needed = 0, uses_anonymous_args = 0
 138              		@ link register save eliminated.
 132:Drivers/STM32WBxx_HAL_Driver/Src/stm32wbxx_ll_usb.c ****   /* Prevent unused argument(s) compilation warning */
 133:Drivers/STM32WBxx_HAL_Driver/Src/stm32wbxx_ll_usb.c ****   UNUSED(USBx);
 139              		.loc 1 133 3 view .LVU24
 134:Drivers/STM32WBxx_HAL_Driver/Src/stm32wbxx_ll_usb.c ****   UNUSED(mode);
 140              		.loc 1 134 3 view .LVU25
 135:Drivers/STM32WBxx_HAL_Driver/Src/stm32wbxx_ll_usb.c **** 
 136:Drivers/STM32WBxx_HAL_Driver/Src/stm32wbxx_ll_usb.c ****   /* NOTE : - This function is not required by USB Device FS peripheral, it is used
 137:Drivers/STM32WBxx_HAL_Driver/Src/stm32wbxx_ll_usb.c ****               only by USB OTG FS peripheral.
 138:Drivers/STM32WBxx_HAL_Driver/Src/stm32wbxx_ll_usb.c ****             - This function is added to ensure compatibility across platforms.
 139:Drivers/STM32WBxx_HAL_Driver/Src/stm32wbxx_ll_usb.c ****    */
 140:Drivers/STM32WBxx_HAL_Driver/Src/stm32wbxx_ll_usb.c ****   return HAL_OK;
 141              		.loc 1 140 3 view .LVU26
 141:Drivers/STM32WBxx_HAL_Driver/Src/stm32wbxx_ll_usb.c **** }
 142              		.loc 1 141 1 is_stmt 0 view .LVU27
 143 0000 0020     		movs	r0, #0
 144              	.LVL7:
 145              		.loc 1 141 1 view .LVU28
 146 0002 7047     		bx	lr
 147              		.cfi_endproc
 148              	.LFE944:
 150              		.section	.text.USB_DevInit,"ax",%progbits
 151              		.align	1
 152              		.global	USB_DevInit
ARM GAS  /tmp/ccr3mP7A.s 			page 6


 153              		.syntax unified
 154              		.thumb
 155              		.thumb_func
 156              		.fpu fpv4-sp-d16
 158              	USB_DevInit:
 159              	.LVL8:
 160              	.LFB945:
 142:Drivers/STM32WBxx_HAL_Driver/Src/stm32wbxx_ll_usb.c **** 
 143:Drivers/STM32WBxx_HAL_Driver/Src/stm32wbxx_ll_usb.c **** /**
 144:Drivers/STM32WBxx_HAL_Driver/Src/stm32wbxx_ll_usb.c ****   * @brief  USB_DevInit : Initializes the USB controller registers
 145:Drivers/STM32WBxx_HAL_Driver/Src/stm32wbxx_ll_usb.c ****   *         for device mode
 146:Drivers/STM32WBxx_HAL_Driver/Src/stm32wbxx_ll_usb.c ****   * @param  USBx : Selected device
 147:Drivers/STM32WBxx_HAL_Driver/Src/stm32wbxx_ll_usb.c ****   * @param  cfg  : pointer to a USB_CfgTypeDef structure that contains
 148:Drivers/STM32WBxx_HAL_Driver/Src/stm32wbxx_ll_usb.c ****   *         the configuration information for the specified USBx peripheral.
 149:Drivers/STM32WBxx_HAL_Driver/Src/stm32wbxx_ll_usb.c ****   * @retval HAL status
 150:Drivers/STM32WBxx_HAL_Driver/Src/stm32wbxx_ll_usb.c ****   */
 151:Drivers/STM32WBxx_HAL_Driver/Src/stm32wbxx_ll_usb.c **** HAL_StatusTypeDef USB_DevInit(USB_TypeDef *USBx, USB_CfgTypeDef cfg)
 152:Drivers/STM32WBxx_HAL_Driver/Src/stm32wbxx_ll_usb.c **** {
 161              		.loc 1 152 1 is_stmt 1 view -0
 162              		.cfi_startproc
 163              		@ args = 36, pretend = 16, frame = 0
 164              		@ frame_needed = 0, uses_anonymous_args = 0
 165              		.loc 1 152 1 is_stmt 0 view .LVU30
 166 0000 84B0     		sub	sp, sp, #16
 167              	.LCFI2:
 168              		.cfi_def_cfa_offset 16
 169 0002 38B5     		push	{r3, r4, r5, lr}
 170              	.LCFI3:
 171              		.cfi_def_cfa_offset 32
 172              		.cfi_offset 3, -32
 173              		.cfi_offset 4, -28
 174              		.cfi_offset 5, -24
 175              		.cfi_offset 14, -20
 176 0004 05AD     		add	r5, sp, #20
 177 0006 85E80E00 		stm	r5, {r1, r2, r3}
 153:Drivers/STM32WBxx_HAL_Driver/Src/stm32wbxx_ll_usb.c ****   /* Prevent unused argument(s) compilation warning */
 154:Drivers/STM32WBxx_HAL_Driver/Src/stm32wbxx_ll_usb.c ****   UNUSED(cfg);
 178              		.loc 1 154 3 is_stmt 1 view .LVU31
 155:Drivers/STM32WBxx_HAL_Driver/Src/stm32wbxx_ll_usb.c **** 
 156:Drivers/STM32WBxx_HAL_Driver/Src/stm32wbxx_ll_usb.c ****   /* Init Device */
 157:Drivers/STM32WBxx_HAL_Driver/Src/stm32wbxx_ll_usb.c ****   /*CNTR_FRES = 1*/
 158:Drivers/STM32WBxx_HAL_Driver/Src/stm32wbxx_ll_usb.c ****   USBx->CNTR = USB_CNTR_FRES;
 179              		.loc 1 158 3 view .LVU32
 180              		.loc 1 158 14 is_stmt 0 view .LVU33
 181 000a 0123     		movs	r3, #1
 182 000c A0F84030 		strh	r3, [r0, #64]	@ movhi
 159:Drivers/STM32WBxx_HAL_Driver/Src/stm32wbxx_ll_usb.c **** 
 160:Drivers/STM32WBxx_HAL_Driver/Src/stm32wbxx_ll_usb.c ****   /*CNTR_FRES = 0*/
 161:Drivers/STM32WBxx_HAL_Driver/Src/stm32wbxx_ll_usb.c ****   USBx->CNTR = 0;
 183              		.loc 1 161 3 is_stmt 1 view .LVU34
 184              		.loc 1 161 14 is_stmt 0 view .LVU35
 185 0010 0025     		movs	r5, #0
 186 0012 A0F84050 		strh	r5, [r0, #64]	@ movhi
 162:Drivers/STM32WBxx_HAL_Driver/Src/stm32wbxx_ll_usb.c **** 
 163:Drivers/STM32WBxx_HAL_Driver/Src/stm32wbxx_ll_usb.c ****   /*Clear pending interrupts*/
 164:Drivers/STM32WBxx_HAL_Driver/Src/stm32wbxx_ll_usb.c ****   USBx->ISTR = 0;
 187              		.loc 1 164 3 is_stmt 1 view .LVU36
ARM GAS  /tmp/ccr3mP7A.s 			page 7


 188              		.loc 1 164 14 is_stmt 0 view .LVU37
 189 0016 A0F84450 		strh	r5, [r0, #68]	@ movhi
 165:Drivers/STM32WBxx_HAL_Driver/Src/stm32wbxx_ll_usb.c **** 
 166:Drivers/STM32WBxx_HAL_Driver/Src/stm32wbxx_ll_usb.c ****   /*Set Btable Address*/
 167:Drivers/STM32WBxx_HAL_Driver/Src/stm32wbxx_ll_usb.c ****   USBx->BTABLE = BTABLE_ADDRESS;
 190              		.loc 1 167 3 is_stmt 1 view .LVU38
 191              		.loc 1 167 16 is_stmt 0 view .LVU39
 192 001a A0F85050 		strh	r5, [r0, #80]	@ movhi
 168:Drivers/STM32WBxx_HAL_Driver/Src/stm32wbxx_ll_usb.c **** 
 169:Drivers/STM32WBxx_HAL_Driver/Src/stm32wbxx_ll_usb.c ****   /* Enable USB Device Interrupt mask */
 170:Drivers/STM32WBxx_HAL_Driver/Src/stm32wbxx_ll_usb.c ****   (void)USB_EnableGlobalInt(USBx);
 193              		.loc 1 170 3 is_stmt 1 view .LVU40
 194              		.loc 1 170 9 is_stmt 0 view .LVU41
 195 001e FFF7FEFF 		bl	USB_EnableGlobalInt
 196              	.LVL9:
 171:Drivers/STM32WBxx_HAL_Driver/Src/stm32wbxx_ll_usb.c **** 
 172:Drivers/STM32WBxx_HAL_Driver/Src/stm32wbxx_ll_usb.c ****   return HAL_OK;
 197              		.loc 1 172 3 is_stmt 1 view .LVU42
 173:Drivers/STM32WBxx_HAL_Driver/Src/stm32wbxx_ll_usb.c **** }
 198              		.loc 1 173 1 is_stmt 0 view .LVU43
 199 0022 2846     		mov	r0, r5
 200 0024 BDE83840 		pop	{r3, r4, r5, lr}
 201              	.LCFI4:
 202              		.cfi_restore 14
 203              		.cfi_restore 5
 204              		.cfi_restore 4
 205              		.cfi_restore 3
 206              		.cfi_def_cfa_offset 16
 207 0028 04B0     		add	sp, sp, #16
 208              	.LCFI5:
 209              		.cfi_def_cfa_offset 0
 210 002a 7047     		bx	lr
 211              		.cfi_endproc
 212              	.LFE945:
 214              		.section	.text.USB_SetDevSpeed,"ax",%progbits
 215              		.align	1
 216              		.global	USB_SetDevSpeed
 217              		.syntax unified
 218              		.thumb
 219              		.thumb_func
 220              		.fpu fpv4-sp-d16
 222              	USB_SetDevSpeed:
 223              	.LVL10:
 224              	.LFB946:
 174:Drivers/STM32WBxx_HAL_Driver/Src/stm32wbxx_ll_usb.c **** 
 175:Drivers/STM32WBxx_HAL_Driver/Src/stm32wbxx_ll_usb.c **** /**
 176:Drivers/STM32WBxx_HAL_Driver/Src/stm32wbxx_ll_usb.c ****   * @brief  USB_SetDevSpeed :Initializes the device speed
 177:Drivers/STM32WBxx_HAL_Driver/Src/stm32wbxx_ll_usb.c ****   *         depending on the PHY type and the enumeration speed of the device.
 178:Drivers/STM32WBxx_HAL_Driver/Src/stm32wbxx_ll_usb.c ****   * @param  USBx  Selected device
 179:Drivers/STM32WBxx_HAL_Driver/Src/stm32wbxx_ll_usb.c ****   * @param  speed  device speed
 180:Drivers/STM32WBxx_HAL_Driver/Src/stm32wbxx_ll_usb.c ****   * @retval  Hal status
 181:Drivers/STM32WBxx_HAL_Driver/Src/stm32wbxx_ll_usb.c ****   */
 182:Drivers/STM32WBxx_HAL_Driver/Src/stm32wbxx_ll_usb.c **** HAL_StatusTypeDef USB_SetDevSpeed(USB_TypeDef *USBx, uint8_t speed)
 183:Drivers/STM32WBxx_HAL_Driver/Src/stm32wbxx_ll_usb.c **** {
 225              		.loc 1 183 1 is_stmt 1 view -0
 226              		.cfi_startproc
 227              		@ args = 0, pretend = 0, frame = 0
ARM GAS  /tmp/ccr3mP7A.s 			page 8


 228              		@ frame_needed = 0, uses_anonymous_args = 0
 229              		@ link register save eliminated.
 184:Drivers/STM32WBxx_HAL_Driver/Src/stm32wbxx_ll_usb.c ****   /* Prevent unused argument(s) compilation warning */
 185:Drivers/STM32WBxx_HAL_Driver/Src/stm32wbxx_ll_usb.c ****   UNUSED(USBx);
 230              		.loc 1 185 3 view .LVU45
 186:Drivers/STM32WBxx_HAL_Driver/Src/stm32wbxx_ll_usb.c ****   UNUSED(speed);
 231              		.loc 1 186 3 view .LVU46
 187:Drivers/STM32WBxx_HAL_Driver/Src/stm32wbxx_ll_usb.c **** 
 188:Drivers/STM32WBxx_HAL_Driver/Src/stm32wbxx_ll_usb.c ****   /* NOTE : - This function is not required by USB Device FS peripheral, it is used
 189:Drivers/STM32WBxx_HAL_Driver/Src/stm32wbxx_ll_usb.c ****               only by USB OTG FS peripheral.
 190:Drivers/STM32WBxx_HAL_Driver/Src/stm32wbxx_ll_usb.c ****             - This function is added to ensure compatibility across platforms.
 191:Drivers/STM32WBxx_HAL_Driver/Src/stm32wbxx_ll_usb.c ****    */
 192:Drivers/STM32WBxx_HAL_Driver/Src/stm32wbxx_ll_usb.c **** 
 193:Drivers/STM32WBxx_HAL_Driver/Src/stm32wbxx_ll_usb.c ****   return HAL_OK;
 232              		.loc 1 193 3 view .LVU47
 194:Drivers/STM32WBxx_HAL_Driver/Src/stm32wbxx_ll_usb.c **** }
 233              		.loc 1 194 1 is_stmt 0 view .LVU48
 234 0000 0020     		movs	r0, #0
 235              	.LVL11:
 236              		.loc 1 194 1 view .LVU49
 237 0002 7047     		bx	lr
 238              		.cfi_endproc
 239              	.LFE946:
 241              		.section	.text.USB_FlushTxFifo,"ax",%progbits
 242              		.align	1
 243              		.global	USB_FlushTxFifo
 244              		.syntax unified
 245              		.thumb
 246              		.thumb_func
 247              		.fpu fpv4-sp-d16
 249              	USB_FlushTxFifo:
 250              	.LVL12:
 251              	.LFB947:
 195:Drivers/STM32WBxx_HAL_Driver/Src/stm32wbxx_ll_usb.c **** 
 196:Drivers/STM32WBxx_HAL_Driver/Src/stm32wbxx_ll_usb.c **** /**
 197:Drivers/STM32WBxx_HAL_Driver/Src/stm32wbxx_ll_usb.c ****   * @brief  USB_FlushTxFifo : Flush a Tx FIFO
 198:Drivers/STM32WBxx_HAL_Driver/Src/stm32wbxx_ll_usb.c ****   * @param  USBx : Selected device
 199:Drivers/STM32WBxx_HAL_Driver/Src/stm32wbxx_ll_usb.c ****   * @param  num : FIFO number
 200:Drivers/STM32WBxx_HAL_Driver/Src/stm32wbxx_ll_usb.c ****   *         This parameter can be a value from 1 to 15
 201:Drivers/STM32WBxx_HAL_Driver/Src/stm32wbxx_ll_usb.c ****             15 means Flush all Tx FIFOs
 202:Drivers/STM32WBxx_HAL_Driver/Src/stm32wbxx_ll_usb.c ****   * @retval HAL status
 203:Drivers/STM32WBxx_HAL_Driver/Src/stm32wbxx_ll_usb.c ****   */
 204:Drivers/STM32WBxx_HAL_Driver/Src/stm32wbxx_ll_usb.c **** HAL_StatusTypeDef USB_FlushTxFifo(USB_TypeDef *USBx, uint32_t num)
 205:Drivers/STM32WBxx_HAL_Driver/Src/stm32wbxx_ll_usb.c **** {
 252              		.loc 1 205 1 is_stmt 1 view -0
 253              		.cfi_startproc
 254              		@ args = 0, pretend = 0, frame = 0
 255              		@ frame_needed = 0, uses_anonymous_args = 0
 256              		@ link register save eliminated.
 206:Drivers/STM32WBxx_HAL_Driver/Src/stm32wbxx_ll_usb.c ****   /* Prevent unused argument(s) compilation warning */
 207:Drivers/STM32WBxx_HAL_Driver/Src/stm32wbxx_ll_usb.c ****   UNUSED(USBx);
 257              		.loc 1 207 3 view .LVU51
 208:Drivers/STM32WBxx_HAL_Driver/Src/stm32wbxx_ll_usb.c ****   UNUSED(num);
 258              		.loc 1 208 3 view .LVU52
 209:Drivers/STM32WBxx_HAL_Driver/Src/stm32wbxx_ll_usb.c **** 
 210:Drivers/STM32WBxx_HAL_Driver/Src/stm32wbxx_ll_usb.c ****   /* NOTE : - This function is not required by USB Device FS peripheral, it is used
 211:Drivers/STM32WBxx_HAL_Driver/Src/stm32wbxx_ll_usb.c ****               only by USB OTG FS peripheral.
ARM GAS  /tmp/ccr3mP7A.s 			page 9


 212:Drivers/STM32WBxx_HAL_Driver/Src/stm32wbxx_ll_usb.c ****             - This function is added to ensure compatibility across platforms.
 213:Drivers/STM32WBxx_HAL_Driver/Src/stm32wbxx_ll_usb.c ****    */
 214:Drivers/STM32WBxx_HAL_Driver/Src/stm32wbxx_ll_usb.c **** 
 215:Drivers/STM32WBxx_HAL_Driver/Src/stm32wbxx_ll_usb.c ****   return HAL_OK;
 259              		.loc 1 215 3 view .LVU53
 216:Drivers/STM32WBxx_HAL_Driver/Src/stm32wbxx_ll_usb.c **** }
 260              		.loc 1 216 1 is_stmt 0 view .LVU54
 261 0000 0020     		movs	r0, #0
 262              	.LVL13:
 263              		.loc 1 216 1 view .LVU55
 264 0002 7047     		bx	lr
 265              		.cfi_endproc
 266              	.LFE947:
 268              		.section	.text.USB_FlushRxFifo,"ax",%progbits
 269              		.align	1
 270              		.global	USB_FlushRxFifo
 271              		.syntax unified
 272              		.thumb
 273              		.thumb_func
 274              		.fpu fpv4-sp-d16
 276              	USB_FlushRxFifo:
 277              	.LVL14:
 278              	.LFB948:
 217:Drivers/STM32WBxx_HAL_Driver/Src/stm32wbxx_ll_usb.c **** 
 218:Drivers/STM32WBxx_HAL_Driver/Src/stm32wbxx_ll_usb.c **** /**
 219:Drivers/STM32WBxx_HAL_Driver/Src/stm32wbxx_ll_usb.c ****   * @brief  USB_FlushRxFifo : Flush Rx FIFO
 220:Drivers/STM32WBxx_HAL_Driver/Src/stm32wbxx_ll_usb.c ****   * @param  USBx : Selected device
 221:Drivers/STM32WBxx_HAL_Driver/Src/stm32wbxx_ll_usb.c ****   * @retval HAL status
 222:Drivers/STM32WBxx_HAL_Driver/Src/stm32wbxx_ll_usb.c ****   */
 223:Drivers/STM32WBxx_HAL_Driver/Src/stm32wbxx_ll_usb.c **** HAL_StatusTypeDef USB_FlushRxFifo(USB_TypeDef *USBx)
 224:Drivers/STM32WBxx_HAL_Driver/Src/stm32wbxx_ll_usb.c **** {
 279              		.loc 1 224 1 is_stmt 1 view -0
 280              		.cfi_startproc
 281              		@ args = 0, pretend = 0, frame = 0
 282              		@ frame_needed = 0, uses_anonymous_args = 0
 283              		@ link register save eliminated.
 225:Drivers/STM32WBxx_HAL_Driver/Src/stm32wbxx_ll_usb.c ****   /* Prevent unused argument(s) compilation warning */
 226:Drivers/STM32WBxx_HAL_Driver/Src/stm32wbxx_ll_usb.c ****   UNUSED(USBx);
 284              		.loc 1 226 3 view .LVU57
 227:Drivers/STM32WBxx_HAL_Driver/Src/stm32wbxx_ll_usb.c **** 
 228:Drivers/STM32WBxx_HAL_Driver/Src/stm32wbxx_ll_usb.c ****   /* NOTE : - This function is not required by USB Device FS peripheral, it is used
 229:Drivers/STM32WBxx_HAL_Driver/Src/stm32wbxx_ll_usb.c ****               only by USB OTG FS peripheral.
 230:Drivers/STM32WBxx_HAL_Driver/Src/stm32wbxx_ll_usb.c ****             - This function is added to ensure compatibility across platforms.
 231:Drivers/STM32WBxx_HAL_Driver/Src/stm32wbxx_ll_usb.c ****    */
 232:Drivers/STM32WBxx_HAL_Driver/Src/stm32wbxx_ll_usb.c **** 
 233:Drivers/STM32WBxx_HAL_Driver/Src/stm32wbxx_ll_usb.c ****   return HAL_OK;
 285              		.loc 1 233 3 view .LVU58
 234:Drivers/STM32WBxx_HAL_Driver/Src/stm32wbxx_ll_usb.c **** }
 286              		.loc 1 234 1 is_stmt 0 view .LVU59
 287 0000 0020     		movs	r0, #0
 288              	.LVL15:
 289              		.loc 1 234 1 view .LVU60
 290 0002 7047     		bx	lr
 291              		.cfi_endproc
 292              	.LFE948:
 294              		.section	.text.USB_ActivateEndpoint,"ax",%progbits
 295              		.align	1
ARM GAS  /tmp/ccr3mP7A.s 			page 10


 296              		.global	USB_ActivateEndpoint
 297              		.syntax unified
 298              		.thumb
 299              		.thumb_func
 300              		.fpu fpv4-sp-d16
 302              	USB_ActivateEndpoint:
 303              	.LVL16:
 304              	.LFB949:
 235:Drivers/STM32WBxx_HAL_Driver/Src/stm32wbxx_ll_usb.c **** 
 236:Drivers/STM32WBxx_HAL_Driver/Src/stm32wbxx_ll_usb.c **** /**
 237:Drivers/STM32WBxx_HAL_Driver/Src/stm32wbxx_ll_usb.c ****   * @brief  Activate and configure an endpoint
 238:Drivers/STM32WBxx_HAL_Driver/Src/stm32wbxx_ll_usb.c ****   * @param  USBx : Selected device
 239:Drivers/STM32WBxx_HAL_Driver/Src/stm32wbxx_ll_usb.c ****   * @param  ep: pointer to endpoint structure
 240:Drivers/STM32WBxx_HAL_Driver/Src/stm32wbxx_ll_usb.c ****   * @retval HAL status
 241:Drivers/STM32WBxx_HAL_Driver/Src/stm32wbxx_ll_usb.c ****   */
 242:Drivers/STM32WBxx_HAL_Driver/Src/stm32wbxx_ll_usb.c **** HAL_StatusTypeDef USB_ActivateEndpoint(USB_TypeDef *USBx, USB_EPTypeDef *ep)
 243:Drivers/STM32WBxx_HAL_Driver/Src/stm32wbxx_ll_usb.c **** {
 305              		.loc 1 243 1 is_stmt 1 view -0
 306              		.cfi_startproc
 307              		@ args = 0, pretend = 0, frame = 0
 308              		@ frame_needed = 0, uses_anonymous_args = 0
 309              		@ link register save eliminated.
 310              		.loc 1 243 1 is_stmt 0 view .LVU62
 311 0000 30B4     		push	{r4, r5}
 312              	.LCFI6:
 313              		.cfi_def_cfa_offset 8
 314              		.cfi_offset 4, -8
 315              		.cfi_offset 5, -4
 316 0002 0346     		mov	r3, r0
 244:Drivers/STM32WBxx_HAL_Driver/Src/stm32wbxx_ll_usb.c ****   HAL_StatusTypeDef ret = HAL_OK;
 317              		.loc 1 244 3 is_stmt 1 view .LVU63
 318              	.LVL17:
 245:Drivers/STM32WBxx_HAL_Driver/Src/stm32wbxx_ll_usb.c ****   uint16_t wEpRegVal;
 319              		.loc 1 245 3 view .LVU64
 246:Drivers/STM32WBxx_HAL_Driver/Src/stm32wbxx_ll_usb.c **** 
 247:Drivers/STM32WBxx_HAL_Driver/Src/stm32wbxx_ll_usb.c ****   wEpRegVal = PCD_GET_ENDPOINT(USBx, ep->num) & USB_EP_T_MASK;
 320              		.loc 1 247 3 view .LVU65
 321              		.loc 1 247 15 is_stmt 0 view .LVU66
 322 0004 0A78     		ldrb	r2, [r1]	@ zero_extendqisi2
 323              		.loc 1 247 47 view .LVU67
 324 0006 30F82240 		ldrh	r4, [r0, r2, lsl #2]
 325 000a A4B2     		uxth	r4, r4
 326              		.loc 1 247 13 view .LVU68
 327 000c 24F4EC44 		bic	r4, r4, #30208
 328 0010 24F07004 		bic	r4, r4, #112
 329 0014 A4B2     		uxth	r4, r4
 330              	.LVL18:
 248:Drivers/STM32WBxx_HAL_Driver/Src/stm32wbxx_ll_usb.c **** 
 249:Drivers/STM32WBxx_HAL_Driver/Src/stm32wbxx_ll_usb.c ****   /* initialize Endpoint */
 250:Drivers/STM32WBxx_HAL_Driver/Src/stm32wbxx_ll_usb.c ****   switch (ep->type)
 331              		.loc 1 250 3 is_stmt 1 view .LVU69
 332              		.loc 1 250 13 is_stmt 0 view .LVU70
 333 0016 C878     		ldrb	r0, [r1, #3]	@ zero_extendqisi2
 334              	.LVL19:
 335              		.loc 1 250 13 view .LVU71
 336 0018 0328     		cmp	r0, #3
 337 001a 5BD8     		bhi	.L35
ARM GAS  /tmp/ccr3mP7A.s 			page 11


 338 001c DFE800F0 		tbb	[pc, r0]
 339              	.L14:
 340 0020 4F       		.byte	(.L17-.L14)/2
 341 0021 56       		.byte	(.L16-.L14)/2
 342 0022 02       		.byte	(.L15-.L14)/2
 343 0023 52       		.byte	(.L13-.L14)/2
 344              		.p2align 1
 345              	.L15:
 346 0024 0020     		movs	r0, #0
 347              	.L12:
 348              	.LVL20:
 251:Drivers/STM32WBxx_HAL_Driver/Src/stm32wbxx_ll_usb.c ****   {
 252:Drivers/STM32WBxx_HAL_Driver/Src/stm32wbxx_ll_usb.c ****     case EP_TYPE_CTRL:
 253:Drivers/STM32WBxx_HAL_Driver/Src/stm32wbxx_ll_usb.c ****       wEpRegVal |= USB_EP_CONTROL;
 254:Drivers/STM32WBxx_HAL_Driver/Src/stm32wbxx_ll_usb.c ****       break;
 255:Drivers/STM32WBxx_HAL_Driver/Src/stm32wbxx_ll_usb.c **** 
 256:Drivers/STM32WBxx_HAL_Driver/Src/stm32wbxx_ll_usb.c ****     case EP_TYPE_BULK:
 257:Drivers/STM32WBxx_HAL_Driver/Src/stm32wbxx_ll_usb.c ****       wEpRegVal |= USB_EP_BULK;
 258:Drivers/STM32WBxx_HAL_Driver/Src/stm32wbxx_ll_usb.c ****       break;
 259:Drivers/STM32WBxx_HAL_Driver/Src/stm32wbxx_ll_usb.c **** 
 260:Drivers/STM32WBxx_HAL_Driver/Src/stm32wbxx_ll_usb.c ****     case EP_TYPE_INTR:
 261:Drivers/STM32WBxx_HAL_Driver/Src/stm32wbxx_ll_usb.c ****       wEpRegVal |= USB_EP_INTERRUPT;
 262:Drivers/STM32WBxx_HAL_Driver/Src/stm32wbxx_ll_usb.c ****       break;
 263:Drivers/STM32WBxx_HAL_Driver/Src/stm32wbxx_ll_usb.c **** 
 264:Drivers/STM32WBxx_HAL_Driver/Src/stm32wbxx_ll_usb.c ****     case EP_TYPE_ISOC:
 265:Drivers/STM32WBxx_HAL_Driver/Src/stm32wbxx_ll_usb.c ****       wEpRegVal |= USB_EP_ISOCHRONOUS;
 266:Drivers/STM32WBxx_HAL_Driver/Src/stm32wbxx_ll_usb.c ****       break;
 267:Drivers/STM32WBxx_HAL_Driver/Src/stm32wbxx_ll_usb.c **** 
 268:Drivers/STM32WBxx_HAL_Driver/Src/stm32wbxx_ll_usb.c ****     default:
 269:Drivers/STM32WBxx_HAL_Driver/Src/stm32wbxx_ll_usb.c ****       ret = HAL_ERROR;
 270:Drivers/STM32WBxx_HAL_Driver/Src/stm32wbxx_ll_usb.c ****       break;
 271:Drivers/STM32WBxx_HAL_Driver/Src/stm32wbxx_ll_usb.c ****   }
 272:Drivers/STM32WBxx_HAL_Driver/Src/stm32wbxx_ll_usb.c **** 
 273:Drivers/STM32WBxx_HAL_Driver/Src/stm32wbxx_ll_usb.c ****   PCD_SET_ENDPOINT(USBx, ep->num, wEpRegVal | USB_EP_CTR_RX | USB_EP_CTR_TX);
 349              		.loc 1 273 3 is_stmt 1 view .LVU72
 350 0026 48F28005 		movw	r5, #32896
 351 002a 2C43     		orrs	r4, r4, r5
 352              	.LVL21:
 353              		.loc 1 273 3 is_stmt 0 view .LVU73
 354 002c 23F82240 		strh	r4, [r3, r2, lsl #2]	@ movhi
 274:Drivers/STM32WBxx_HAL_Driver/Src/stm32wbxx_ll_usb.c **** 
 275:Drivers/STM32WBxx_HAL_Driver/Src/stm32wbxx_ll_usb.c ****   PCD_SET_EP_ADDRESS(USBx, ep->num, ep->num);
 355              		.loc 1 275 3 is_stmt 1 view .LVU74
 356              	.LBB2:
 357              		.loc 1 275 3 view .LVU75
 358              		.loc 1 275 3 view .LVU76
 359 0030 0C78     		ldrb	r4, [r1]	@ zero_extendqisi2
 360 0032 33F82420 		ldrh	r2, [r3, r4, lsl #2]
 361 0036 12B2     		sxth	r2, r2
 362 0038 22F4E042 		bic	r2, r2, #28672
 363 003c 22F07002 		bic	r2, r2, #112
 364 0040 2243     		orrs	r2, r2, r4
 365 0042 92B2     		uxth	r2, r2
 366              	.LVL22:
 367              		.loc 1 275 3 view .LVU77
 368 0044 2A43     		orrs	r2, r2, r5
 369              	.LVL23:
ARM GAS  /tmp/ccr3mP7A.s 			page 12


 370              		.loc 1 275 3 is_stmt 0 view .LVU78
 371 0046 23F82420 		strh	r2, [r3, r4, lsl #2]	@ movhi
 372              	.LBE2:
 373              		.loc 1 275 3 is_stmt 1 view .LVU79
 276:Drivers/STM32WBxx_HAL_Driver/Src/stm32wbxx_ll_usb.c **** 
 277:Drivers/STM32WBxx_HAL_Driver/Src/stm32wbxx_ll_usb.c ****   if (ep->doublebuffer == 0U)
 374              		.loc 1 277 3 view .LVU80
 375              		.loc 1 277 9 is_stmt 0 view .LVU81
 376 004a 0A7B     		ldrb	r2, [r1, #12]	@ zero_extendqisi2
 377              		.loc 1 277 6 view .LVU82
 378 004c 002A     		cmp	r2, #0
 379 004e 40F0A980 		bne	.L18
 278:Drivers/STM32WBxx_HAL_Driver/Src/stm32wbxx_ll_usb.c ****   {
 279:Drivers/STM32WBxx_HAL_Driver/Src/stm32wbxx_ll_usb.c ****     if (ep->is_in != 0U)
 380              		.loc 1 279 5 is_stmt 1 view .LVU83
 381              		.loc 1 279 11 is_stmt 0 view .LVU84
 382 0052 4A78     		ldrb	r2, [r1, #1]	@ zero_extendqisi2
 383              		.loc 1 279 8 view .LVU85
 384 0054 002A     		cmp	r2, #0
 385 0056 4ED0     		beq	.L19
 280:Drivers/STM32WBxx_HAL_Driver/Src/stm32wbxx_ll_usb.c ****     {
 281:Drivers/STM32WBxx_HAL_Driver/Src/stm32wbxx_ll_usb.c ****       /*Set the endpoint Transmit buffer address */
 282:Drivers/STM32WBxx_HAL_Driver/Src/stm32wbxx_ll_usb.c ****       PCD_SET_EP_TX_ADDRESS(USBx, ep->num, ep->pmaadress);
 386              		.loc 1 282 7 is_stmt 1 view .LVU86
 387              	.LBB3:
 388              		.loc 1 282 7 view .LVU87
 389              		.loc 1 282 7 view .LVU88
 390              	.LVL24:
 391              		.loc 1 282 7 view .LVU89
 392 0058 B3F85020 		ldrh	r2, [r3, #80]
 393 005c 13FA82F2 		uxtah	r2, r3, r2
 394              	.LVL25:
 395              		.loc 1 282 7 view .LVU90
 396 0060 0C78     		ldrb	r4, [r1]	@ zero_extendqisi2
 397 0062 02EBC402 		add	r2, r2, r4, lsl #3
 398              	.LVL26:
 399              		.loc 1 282 7 view .LVU91
 400 0066 CC88     		ldrh	r4, [r1, #6]
 401 0068 6408     		lsrs	r4, r4, #1
 402 006a 6400     		lsls	r4, r4, #1
 403 006c A2F80044 		strh	r4, [r2, #1024]	@ movhi
 404              	.LBE3:
 405              		.loc 1 282 7 view .LVU92
 283:Drivers/STM32WBxx_HAL_Driver/Src/stm32wbxx_ll_usb.c ****       PCD_CLEAR_TX_DTOG(USBx, ep->num);
 406              		.loc 1 283 7 view .LVU93
 407              	.LBB4:
 408              		.loc 1 283 7 view .LVU94
 409              		.loc 1 283 7 view .LVU95
 410 0070 0C78     		ldrb	r4, [r1]	@ zero_extendqisi2
 411 0072 33F82420 		ldrh	r2, [r3, r4, lsl #2]
 412              	.LVL27:
 413              		.loc 1 283 7 view .LVU96
 414 0076 12F0400F 		tst	r2, #64
 415 007a 0CD0     		beq	.L20
 416              		.loc 1 283 7 discriminator 1 view .LVU97
 417              	.LBB5:
 418              		.loc 1 283 7 discriminator 1 view .LVU98
ARM GAS  /tmp/ccr3mP7A.s 			page 13


 419              		.loc 1 283 7 discriminator 1 view .LVU99
 420 007c 33F82420 		ldrh	r2, [r3, r4, lsl #2]
 421              	.LVL28:
 422              		.loc 1 283 7 is_stmt 0 discriminator 1 view .LVU100
 423 0080 92B2     		uxth	r2, r2
 424 0082 22F4E042 		bic	r2, r2, #28672
 425 0086 22F07002 		bic	r2, r2, #112
 426              	.LVL29:
 427              		.loc 1 283 7 is_stmt 1 discriminator 1 view .LVU101
 428 008a 42F40042 		orr	r2, r2, #32768
 429              	.LVL30:
 430              		.loc 1 283 7 is_stmt 0 discriminator 1 view .LVU102
 431 008e 42F0C002 		orr	r2, r2, #192
 432 0092 23F82420 		strh	r2, [r3, r4, lsl #2]	@ movhi
 433              	.L20:
 434              		.loc 1 283 7 discriminator 1 view .LVU103
 435              	.LBE5:
 436              		.loc 1 283 7 is_stmt 1 discriminator 3 view .LVU104
 437              	.LBE4:
 438              		.loc 1 283 7 discriminator 3 view .LVU105
 284:Drivers/STM32WBxx_HAL_Driver/Src/stm32wbxx_ll_usb.c **** 
 285:Drivers/STM32WBxx_HAL_Driver/Src/stm32wbxx_ll_usb.c ****       if (ep->type != EP_TYPE_ISOC)
 439              		.loc 1 285 7 discriminator 3 view .LVU106
 440              		.loc 1 285 13 is_stmt 0 discriminator 3 view .LVU107
 441 0096 CA78     		ldrb	r2, [r1, #3]	@ zero_extendqisi2
 442              		.loc 1 285 10 discriminator 3 view .LVU108
 443 0098 012A     		cmp	r2, #1
 444 009a 1DD0     		beq	.L21
 286:Drivers/STM32WBxx_HAL_Driver/Src/stm32wbxx_ll_usb.c ****       {
 287:Drivers/STM32WBxx_HAL_Driver/Src/stm32wbxx_ll_usb.c ****         /* Configure NAK status for the Endpoint */
 288:Drivers/STM32WBxx_HAL_Driver/Src/stm32wbxx_ll_usb.c ****         PCD_SET_EP_TX_STATUS(USBx, ep->num, USB_EP_TX_NAK);
 445              		.loc 1 288 9 is_stmt 1 view .LVU109
 446              	.LBB6:
 447              		.loc 1 288 9 view .LVU110
 448              		.loc 1 288 9 view .LVU111
 449 009c 0978     		ldrb	r1, [r1]	@ zero_extendqisi2
 450              	.LVL31:
 451              		.loc 1 288 9 is_stmt 0 view .LVU112
 452 009e 33F82120 		ldrh	r2, [r3, r1, lsl #2]
 453 00a2 92B2     		uxth	r2, r2
 454 00a4 22F4E042 		bic	r2, r2, #28672
 455 00a8 22F04002 		bic	r2, r2, #64
 456              	.LVL32:
 457              		.loc 1 288 9 is_stmt 1 view .LVU113
 458              		.loc 1 288 9 view .LVU114
 459              		.loc 1 288 9 view .LVU115
 460 00ac 82F02002 		eor	r2, r2, #32
 461              	.LVL33:
 462              		.loc 1 288 9 view .LVU116
 463 00b0 42F40042 		orr	r2, r2, #32768
 464              	.LVL34:
 465              		.loc 1 288 9 is_stmt 0 view .LVU117
 466 00b4 42F08002 		orr	r2, r2, #128
 467 00b8 23F82120 		strh	r2, [r3, r1, lsl #2]	@ movhi
 468              	.LBE6:
 469              		.loc 1 288 9 is_stmt 1 view .LVU118
 470 00bc 5DE0     		b	.L22
ARM GAS  /tmp/ccr3mP7A.s 			page 14


 471              	.LVL35:
 472              	.L17:
 253:Drivers/STM32WBxx_HAL_Driver/Src/stm32wbxx_ll_usb.c ****       break;
 473              		.loc 1 253 7 view .LVU119
 253:Drivers/STM32WBxx_HAL_Driver/Src/stm32wbxx_ll_usb.c ****       break;
 474              		.loc 1 253 17 is_stmt 0 view .LVU120
 475 00be 44F40074 		orr	r4, r4, #512
 476              	.LVL36:
 254:Drivers/STM32WBxx_HAL_Driver/Src/stm32wbxx_ll_usb.c **** 
 477              		.loc 1 254 7 is_stmt 1 view .LVU121
 478 00c2 B0E7     		b	.L12
 479              	.L13:
 261:Drivers/STM32WBxx_HAL_Driver/Src/stm32wbxx_ll_usb.c ****       break;
 480              		.loc 1 261 7 view .LVU122
 261:Drivers/STM32WBxx_HAL_Driver/Src/stm32wbxx_ll_usb.c ****       break;
 481              		.loc 1 261 17 is_stmt 0 view .LVU123
 482 00c4 44F4C064 		orr	r4, r4, #1536
 483              	.LVL37:
 262:Drivers/STM32WBxx_HAL_Driver/Src/stm32wbxx_ll_usb.c **** 
 484              		.loc 1 262 7 is_stmt 1 view .LVU124
 244:Drivers/STM32WBxx_HAL_Driver/Src/stm32wbxx_ll_usb.c ****   uint16_t wEpRegVal;
 485              		.loc 1 244 21 is_stmt 0 view .LVU125
 486 00c8 0020     		movs	r0, #0
 262:Drivers/STM32WBxx_HAL_Driver/Src/stm32wbxx_ll_usb.c **** 
 487              		.loc 1 262 7 view .LVU126
 488 00ca ACE7     		b	.L12
 489              	.L16:
 265:Drivers/STM32WBxx_HAL_Driver/Src/stm32wbxx_ll_usb.c ****       break;
 490              		.loc 1 265 7 is_stmt 1 view .LVU127
 265:Drivers/STM32WBxx_HAL_Driver/Src/stm32wbxx_ll_usb.c ****       break;
 491              		.loc 1 265 17 is_stmt 0 view .LVU128
 492 00cc 44F48064 		orr	r4, r4, #1024
 493              	.LVL38:
 266:Drivers/STM32WBxx_HAL_Driver/Src/stm32wbxx_ll_usb.c **** 
 494              		.loc 1 266 7 is_stmt 1 view .LVU129
 244:Drivers/STM32WBxx_HAL_Driver/Src/stm32wbxx_ll_usb.c ****   uint16_t wEpRegVal;
 495              		.loc 1 244 21 is_stmt 0 view .LVU130
 496 00d0 0020     		movs	r0, #0
 266:Drivers/STM32WBxx_HAL_Driver/Src/stm32wbxx_ll_usb.c **** 
 497              		.loc 1 266 7 view .LVU131
 498 00d2 A8E7     		b	.L12
 499              	.L35:
 269:Drivers/STM32WBxx_HAL_Driver/Src/stm32wbxx_ll_usb.c ****       break;
 500              		.loc 1 269 11 view .LVU132
 501 00d4 0120     		movs	r0, #1
 502 00d6 A6E7     		b	.L12
 503              	.LVL39:
 504              	.L21:
 289:Drivers/STM32WBxx_HAL_Driver/Src/stm32wbxx_ll_usb.c ****       }
 290:Drivers/STM32WBxx_HAL_Driver/Src/stm32wbxx_ll_usb.c ****       else
 291:Drivers/STM32WBxx_HAL_Driver/Src/stm32wbxx_ll_usb.c ****       {
 292:Drivers/STM32WBxx_HAL_Driver/Src/stm32wbxx_ll_usb.c ****         /* Configure TX Endpoint to disabled state */
 293:Drivers/STM32WBxx_HAL_Driver/Src/stm32wbxx_ll_usb.c ****         PCD_SET_EP_TX_STATUS(USBx, ep->num, USB_EP_TX_DIS);
 505              		.loc 1 293 9 is_stmt 1 view .LVU133
 506              	.LBB7:
 507              		.loc 1 293 9 view .LVU134
 508              		.loc 1 293 9 view .LVU135
ARM GAS  /tmp/ccr3mP7A.s 			page 15


 509 00d8 0978     		ldrb	r1, [r1]	@ zero_extendqisi2
 510              	.LVL40:
 511              		.loc 1 293 9 is_stmt 0 view .LVU136
 512 00da 33F82120 		ldrh	r2, [r3, r1, lsl #2]
 513 00de 92B2     		uxth	r2, r2
 514 00e0 22F4E042 		bic	r2, r2, #28672
 515 00e4 22F04002 		bic	r2, r2, #64
 516              	.LVL41:
 517              		.loc 1 293 9 is_stmt 1 view .LVU137
 518              		.loc 1 293 9 view .LVU138
 519              		.loc 1 293 9 view .LVU139
 520 00e8 42F40042 		orr	r2, r2, #32768
 521              	.LVL42:
 522              		.loc 1 293 9 is_stmt 0 view .LVU140
 523 00ec 42F08002 		orr	r2, r2, #128
 524 00f0 23F82120 		strh	r2, [r3, r1, lsl #2]	@ movhi
 525 00f4 41E0     		b	.L22
 526              	.LVL43:
 527              	.L19:
 528              		.loc 1 293 9 view .LVU141
 529              	.LBE7:
 294:Drivers/STM32WBxx_HAL_Driver/Src/stm32wbxx_ll_usb.c ****       }
 295:Drivers/STM32WBxx_HAL_Driver/Src/stm32wbxx_ll_usb.c ****     }
 296:Drivers/STM32WBxx_HAL_Driver/Src/stm32wbxx_ll_usb.c ****     else
 297:Drivers/STM32WBxx_HAL_Driver/Src/stm32wbxx_ll_usb.c ****     {
 298:Drivers/STM32WBxx_HAL_Driver/Src/stm32wbxx_ll_usb.c ****       /*Set the endpoint Receive buffer address */
 299:Drivers/STM32WBxx_HAL_Driver/Src/stm32wbxx_ll_usb.c ****       PCD_SET_EP_RX_ADDRESS(USBx, ep->num, ep->pmaadress);
 530              		.loc 1 299 7 is_stmt 1 view .LVU142
 531              	.LBB8:
 532              		.loc 1 299 7 view .LVU143
 533              		.loc 1 299 7 view .LVU144
 534              		.loc 1 299 7 view .LVU145
 535 00f6 B3F85020 		ldrh	r2, [r3, #80]
 536 00fa 13FA82F2 		uxtah	r2, r3, r2
 537              	.LVL44:
 538              		.loc 1 299 7 view .LVU146
 539 00fe 0C78     		ldrb	r4, [r1]	@ zero_extendqisi2
 540 0100 02EBC402 		add	r2, r2, r4, lsl #3
 541              	.LVL45:
 542              		.loc 1 299 7 view .LVU147
 543 0104 CC88     		ldrh	r4, [r1, #6]
 544 0106 6408     		lsrs	r4, r4, #1
 545 0108 6400     		lsls	r4, r4, #1
 546 010a A2F80444 		strh	r4, [r2, #1028]	@ movhi
 547              	.LBE8:
 548              		.loc 1 299 7 view .LVU148
 300:Drivers/STM32WBxx_HAL_Driver/Src/stm32wbxx_ll_usb.c ****       /*Set the endpoint Receive buffer counter*/
 301:Drivers/STM32WBxx_HAL_Driver/Src/stm32wbxx_ll_usb.c ****       PCD_SET_EP_RX_CNT(USBx, ep->num, ep->maxpacket);
 549              		.loc 1 301 7 view .LVU149
 550              	.LBB9:
 551              		.loc 1 301 7 view .LVU150
 552              	.LVL46:
 553              		.loc 1 301 7 view .LVU151
 554              		.loc 1 301 7 view .LVU152
 555 010e B3F85020 		ldrh	r2, [r3, #80]
 556              	.LVL47:
 557              		.loc 1 301 7 is_stmt 0 view .LVU153
ARM GAS  /tmp/ccr3mP7A.s 			page 16


 558 0112 13FA82F2 		uxtah	r2, r3, r2
 559              	.LVL48:
 560              		.loc 1 301 7 is_stmt 1 view .LVU154
 561 0116 0C78     		ldrb	r4, [r1]	@ zero_extendqisi2
 562 0118 02EBC402 		add	r2, r2, r4, lsl #3
 563              	.LVL49:
 564              		.loc 1 301 7 view .LVU155
 565              	.LBB10:
 566              		.loc 1 301 7 view .LVU156
 567              		.loc 1 301 7 view .LVU157
 568 011c 0C69     		ldr	r4, [r1, #16]
 569 011e 74BB     		cbnz	r4, .L23
 570              		.loc 1 301 7 discriminator 1 view .LVU158
 571 0120 B2F80644 		ldrh	r4, [r2, #1030]
 572 0124 24F4F844 		bic	r4, r4, #31744
 573              		.loc 1 301 7 discriminator 1 view .LVU159
 574 0128 6FEA4444 		mvn	r4, r4, lsl #17
 575 012c 6FEA5444 		mvn	r4, r4, lsr #17
 576 0130 A2F80644 		strh	r4, [r2, #1030]	@ movhi
 577              	.L24:
 578              		.loc 1 301 7 discriminator 10 view .LVU160
 579              	.LBE10:
 580              		.loc 1 301 7 discriminator 10 view .LVU161
 581              	.LBE9:
 582              		.loc 1 301 7 discriminator 10 view .LVU162
 302:Drivers/STM32WBxx_HAL_Driver/Src/stm32wbxx_ll_usb.c ****       PCD_CLEAR_RX_DTOG(USBx, ep->num);
 583              		.loc 1 302 7 discriminator 10 view .LVU163
 584              	.LBB12:
 585              		.loc 1 302 7 discriminator 10 view .LVU164
 586              		.loc 1 302 7 discriminator 10 view .LVU165
 587 0134 0C78     		ldrb	r4, [r1]	@ zero_extendqisi2
 588 0136 33F82420 		ldrh	r2, [r3, r4, lsl #2]
 589              	.LVL50:
 590              		.loc 1 302 7 discriminator 10 view .LVU166
 591 013a 12F4804F 		tst	r2, #16384
 592 013e 0CD0     		beq	.L27
 593              		.loc 1 302 7 discriminator 1 view .LVU167
 594              	.LBB13:
 595              		.loc 1 302 7 discriminator 1 view .LVU168
 596              		.loc 1 302 7 discriminator 1 view .LVU169
 597 0140 33F82420 		ldrh	r2, [r3, r4, lsl #2]
 598              	.LVL51:
 599              		.loc 1 302 7 is_stmt 0 discriminator 1 view .LVU170
 600 0144 92B2     		uxth	r2, r2
 601 0146 22F4E042 		bic	r2, r2, #28672
 602 014a 22F07002 		bic	r2, r2, #112
 603              	.LVL52:
 604              		.loc 1 302 7 is_stmt 1 discriminator 1 view .LVU171
 605 014e 42F44042 		orr	r2, r2, #49152
 606              	.LVL53:
 607              		.loc 1 302 7 is_stmt 0 discriminator 1 view .LVU172
 608 0152 42F08002 		orr	r2, r2, #128
 609 0156 23F82420 		strh	r2, [r3, r4, lsl #2]	@ movhi
 610              	.L27:
 611              		.loc 1 302 7 discriminator 1 view .LVU173
 612              	.LBE13:
 613              		.loc 1 302 7 is_stmt 1 discriminator 3 view .LVU174
ARM GAS  /tmp/ccr3mP7A.s 			page 17


 614              	.LBE12:
 615              		.loc 1 302 7 discriminator 3 view .LVU175
 303:Drivers/STM32WBxx_HAL_Driver/Src/stm32wbxx_ll_usb.c ****       /* Configure VALID status for the Endpoint*/
 304:Drivers/STM32WBxx_HAL_Driver/Src/stm32wbxx_ll_usb.c ****       PCD_SET_EP_RX_STATUS(USBx, ep->num, USB_EP_RX_VALID);
 616              		.loc 1 304 7 discriminator 3 view .LVU176
 617              	.LBB14:
 618              		.loc 1 304 7 discriminator 3 view .LVU177
 619              		.loc 1 304 7 discriminator 3 view .LVU178
 620 015a 0978     		ldrb	r1, [r1]	@ zero_extendqisi2
 621              	.LVL54:
 622              		.loc 1 304 7 is_stmt 0 discriminator 3 view .LVU179
 623 015c 33F82120 		ldrh	r2, [r3, r1, lsl #2]
 624 0160 92B2     		uxth	r2, r2
 625 0162 22F48042 		bic	r2, r2, #16384
 626 0166 22F07002 		bic	r2, r2, #112
 627              	.LVL55:
 628              		.loc 1 304 7 is_stmt 1 discriminator 3 view .LVU180
 629              		.loc 1 304 7 discriminator 3 view .LVU181
 630              		.loc 1 304 7 discriminator 3 view .LVU182
 631              		.loc 1 304 7 discriminator 3 view .LVU183
 632 016a 82F44052 		eor	r2, r2, #12288
 633              	.LVL56:
 634              		.loc 1 304 7 discriminator 3 view .LVU184
 635 016e 42F40042 		orr	r2, r2, #32768
 636              	.LVL57:
 637              		.loc 1 304 7 is_stmt 0 discriminator 3 view .LVU185
 638 0172 42F08002 		orr	r2, r2, #128
 639 0176 23F82120 		strh	r2, [r3, r1, lsl #2]	@ movhi
 640              	.L22:
 641              		.loc 1 304 7 discriminator 3 view .LVU186
 642              	.LBE14:
 305:Drivers/STM32WBxx_HAL_Driver/Src/stm32wbxx_ll_usb.c ****     }
 306:Drivers/STM32WBxx_HAL_Driver/Src/stm32wbxx_ll_usb.c ****   }
 307:Drivers/STM32WBxx_HAL_Driver/Src/stm32wbxx_ll_usb.c ****   /*Double Buffer*/
 308:Drivers/STM32WBxx_HAL_Driver/Src/stm32wbxx_ll_usb.c ****   else
 309:Drivers/STM32WBxx_HAL_Driver/Src/stm32wbxx_ll_usb.c ****   {
 310:Drivers/STM32WBxx_HAL_Driver/Src/stm32wbxx_ll_usb.c ****     /* Set the endpoint as double buffered */
 311:Drivers/STM32WBxx_HAL_Driver/Src/stm32wbxx_ll_usb.c ****     PCD_SET_EP_DBUF(USBx, ep->num);
 312:Drivers/STM32WBxx_HAL_Driver/Src/stm32wbxx_ll_usb.c ****     /* Set buffer address for double buffered mode */
 313:Drivers/STM32WBxx_HAL_Driver/Src/stm32wbxx_ll_usb.c ****     PCD_SET_EP_DBUF_ADDR(USBx, ep->num, ep->pmaaddr0, ep->pmaaddr1);
 314:Drivers/STM32WBxx_HAL_Driver/Src/stm32wbxx_ll_usb.c **** 
 315:Drivers/STM32WBxx_HAL_Driver/Src/stm32wbxx_ll_usb.c ****     if (ep->is_in == 0U)
 316:Drivers/STM32WBxx_HAL_Driver/Src/stm32wbxx_ll_usb.c ****     {
 317:Drivers/STM32WBxx_HAL_Driver/Src/stm32wbxx_ll_usb.c ****       /* Clear the data toggle bits for the endpoint IN/OUT */
 318:Drivers/STM32WBxx_HAL_Driver/Src/stm32wbxx_ll_usb.c ****       PCD_CLEAR_RX_DTOG(USBx, ep->num);
 319:Drivers/STM32WBxx_HAL_Driver/Src/stm32wbxx_ll_usb.c ****       PCD_CLEAR_TX_DTOG(USBx, ep->num);
 320:Drivers/STM32WBxx_HAL_Driver/Src/stm32wbxx_ll_usb.c **** 
 321:Drivers/STM32WBxx_HAL_Driver/Src/stm32wbxx_ll_usb.c ****       /* Reset value of the data toggle bits for the endpoint out */
 322:Drivers/STM32WBxx_HAL_Driver/Src/stm32wbxx_ll_usb.c ****       PCD_TX_DTOG(USBx, ep->num);
 323:Drivers/STM32WBxx_HAL_Driver/Src/stm32wbxx_ll_usb.c **** 
 324:Drivers/STM32WBxx_HAL_Driver/Src/stm32wbxx_ll_usb.c ****       PCD_SET_EP_RX_STATUS(USBx, ep->num, USB_EP_RX_VALID);
 325:Drivers/STM32WBxx_HAL_Driver/Src/stm32wbxx_ll_usb.c ****       PCD_SET_EP_TX_STATUS(USBx, ep->num, USB_EP_TX_DIS);
 326:Drivers/STM32WBxx_HAL_Driver/Src/stm32wbxx_ll_usb.c ****     }
 327:Drivers/STM32WBxx_HAL_Driver/Src/stm32wbxx_ll_usb.c ****     else
 328:Drivers/STM32WBxx_HAL_Driver/Src/stm32wbxx_ll_usb.c ****     {
 329:Drivers/STM32WBxx_HAL_Driver/Src/stm32wbxx_ll_usb.c ****       /* Clear the data toggle bits for the endpoint IN/OUT */
 330:Drivers/STM32WBxx_HAL_Driver/Src/stm32wbxx_ll_usb.c ****       PCD_CLEAR_RX_DTOG(USBx, ep->num);
ARM GAS  /tmp/ccr3mP7A.s 			page 18


 331:Drivers/STM32WBxx_HAL_Driver/Src/stm32wbxx_ll_usb.c ****       PCD_CLEAR_TX_DTOG(USBx, ep->num);
 332:Drivers/STM32WBxx_HAL_Driver/Src/stm32wbxx_ll_usb.c ****       PCD_RX_DTOG(USBx, ep->num);
 333:Drivers/STM32WBxx_HAL_Driver/Src/stm32wbxx_ll_usb.c **** 
 334:Drivers/STM32WBxx_HAL_Driver/Src/stm32wbxx_ll_usb.c ****       if (ep->type != EP_TYPE_ISOC)
 335:Drivers/STM32WBxx_HAL_Driver/Src/stm32wbxx_ll_usb.c ****       {
 336:Drivers/STM32WBxx_HAL_Driver/Src/stm32wbxx_ll_usb.c ****         /* Configure NAK status for the Endpoint */
 337:Drivers/STM32WBxx_HAL_Driver/Src/stm32wbxx_ll_usb.c ****         PCD_SET_EP_TX_STATUS(USBx, ep->num, USB_EP_TX_NAK);
 338:Drivers/STM32WBxx_HAL_Driver/Src/stm32wbxx_ll_usb.c ****       }
 339:Drivers/STM32WBxx_HAL_Driver/Src/stm32wbxx_ll_usb.c ****       else
 340:Drivers/STM32WBxx_HAL_Driver/Src/stm32wbxx_ll_usb.c ****       {
 341:Drivers/STM32WBxx_HAL_Driver/Src/stm32wbxx_ll_usb.c ****         /* Configure TX Endpoint to disabled state */
 342:Drivers/STM32WBxx_HAL_Driver/Src/stm32wbxx_ll_usb.c ****         PCD_SET_EP_TX_STATUS(USBx, ep->num, USB_EP_TX_DIS);
 343:Drivers/STM32WBxx_HAL_Driver/Src/stm32wbxx_ll_usb.c ****       }
 344:Drivers/STM32WBxx_HAL_Driver/Src/stm32wbxx_ll_usb.c **** 
 345:Drivers/STM32WBxx_HAL_Driver/Src/stm32wbxx_ll_usb.c ****       PCD_SET_EP_RX_STATUS(USBx, ep->num, USB_EP_RX_DIS);
 643              		.loc 1 345 7 is_stmt 1 discriminator 7 view .LVU187
 346:Drivers/STM32WBxx_HAL_Driver/Src/stm32wbxx_ll_usb.c ****     }
 347:Drivers/STM32WBxx_HAL_Driver/Src/stm32wbxx_ll_usb.c ****   }
 348:Drivers/STM32WBxx_HAL_Driver/Src/stm32wbxx_ll_usb.c **** 
 349:Drivers/STM32WBxx_HAL_Driver/Src/stm32wbxx_ll_usb.c ****   return ret;
 644              		.loc 1 349 3 discriminator 7 view .LVU188
 350:Drivers/STM32WBxx_HAL_Driver/Src/stm32wbxx_ll_usb.c **** }
 645              		.loc 1 350 1 is_stmt 0 discriminator 7 view .LVU189
 646 017a 30BC     		pop	{r4, r5}
 647              	.LCFI7:
 648              		.cfi_remember_state
 649              		.cfi_restore 5
 650              		.cfi_restore 4
 651              		.cfi_def_cfa_offset 0
 652 017c 7047     		bx	lr
 653              	.LVL58:
 654              	.L23:
 655              	.LCFI8:
 656              		.cfi_restore_state
 657              	.LBB15:
 658              	.LBB11:
 301:Drivers/STM32WBxx_HAL_Driver/Src/stm32wbxx_ll_usb.c ****       PCD_CLEAR_RX_DTOG(USBx, ep->num);
 659              		.loc 1 301 7 is_stmt 1 discriminator 2 view .LVU190
 660 017e 3D2C     		cmp	r4, #61
 661 0180 08D8     		bhi	.L25
 301:Drivers/STM32WBxx_HAL_Driver/Src/stm32wbxx_ll_usb.c ****       PCD_CLEAR_RX_DTOG(USBx, ep->num);
 662              		.loc 1 301 7 discriminator 4 view .LVU191
 301:Drivers/STM32WBxx_HAL_Driver/Src/stm32wbxx_ll_usb.c ****       PCD_CLEAR_RX_DTOG(USBx, ep->num);
 663              		.loc 1 301 7 discriminator 4 view .LVU192
 664 0182 6508     		lsrs	r5, r4, #1
 665              	.LVL59:
 301:Drivers/STM32WBxx_HAL_Driver/Src/stm32wbxx_ll_usb.c ****       PCD_CLEAR_RX_DTOG(USBx, ep->num);
 666              		.loc 1 301 7 discriminator 4 view .LVU193
 667 0184 14F0010F 		tst	r4, #1
 668 0188 00D0     		beq	.L26
 301:Drivers/STM32WBxx_HAL_Driver/Src/stm32wbxx_ll_usb.c ****       PCD_CLEAR_RX_DTOG(USBx, ep->num);
 669              		.loc 1 301 7 discriminator 6 view .LVU194
 670 018a 0135     		adds	r5, r5, #1
 671              	.LVL60:
 672              	.L26:
 301:Drivers/STM32WBxx_HAL_Driver/Src/stm32wbxx_ll_usb.c ****       PCD_CLEAR_RX_DTOG(USBx, ep->num);
 673              		.loc 1 301 7 discriminator 8 view .LVU195
ARM GAS  /tmp/ccr3mP7A.s 			page 19


 674 018c AD02     		lsls	r5, r5, #10
 675              	.LVL61:
 301:Drivers/STM32WBxx_HAL_Driver/Src/stm32wbxx_ll_usb.c ****       PCD_CLEAR_RX_DTOG(USBx, ep->num);
 676              		.loc 1 301 7 is_stmt 0 discriminator 8 view .LVU196
 677 018e A2F80654 		strh	r5, [r2, #1030]	@ movhi
 301:Drivers/STM32WBxx_HAL_Driver/Src/stm32wbxx_ll_usb.c ****       PCD_CLEAR_RX_DTOG(USBx, ep->num);
 678              		.loc 1 301 7 is_stmt 1 discriminator 8 view .LVU197
 679 0192 CFE7     		b	.L24
 680              	.L25:
 301:Drivers/STM32WBxx_HAL_Driver/Src/stm32wbxx_ll_usb.c ****       PCD_CLEAR_RX_DTOG(USBx, ep->num);
 681              		.loc 1 301 7 discriminator 5 view .LVU198
 301:Drivers/STM32WBxx_HAL_Driver/Src/stm32wbxx_ll_usb.c ****       PCD_CLEAR_RX_DTOG(USBx, ep->num);
 682              		.loc 1 301 7 discriminator 5 view .LVU199
 683 0194 6409     		lsrs	r4, r4, #5
 684              	.LVL62:
 301:Drivers/STM32WBxx_HAL_Driver/Src/stm32wbxx_ll_usb.c ****       PCD_CLEAR_RX_DTOG(USBx, ep->num);
 685              		.loc 1 301 7 discriminator 5 view .LVU200
 686 0196 6FEAC464 		mvn	r4, r4, lsl #27
 687              	.LVL63:
 301:Drivers/STM32WBxx_HAL_Driver/Src/stm32wbxx_ll_usb.c ****       PCD_CLEAR_RX_DTOG(USBx, ep->num);
 688              		.loc 1 301 7 is_stmt 0 discriminator 5 view .LVU201
 689 019a 6FEA5444 		mvn	r4, r4, lsr #17
 690 019e A2F80644 		strh	r4, [r2, #1030]	@ movhi
 691              	.LVL64:
 301:Drivers/STM32WBxx_HAL_Driver/Src/stm32wbxx_ll_usb.c ****       PCD_CLEAR_RX_DTOG(USBx, ep->num);
 692              		.loc 1 301 7 discriminator 5 view .LVU202
 693 01a2 C7E7     		b	.L24
 694              	.LVL65:
 695              	.L18:
 301:Drivers/STM32WBxx_HAL_Driver/Src/stm32wbxx_ll_usb.c ****       PCD_CLEAR_RX_DTOG(USBx, ep->num);
 696              		.loc 1 301 7 discriminator 5 view .LVU203
 697              	.LBE11:
 698              	.LBE15:
 311:Drivers/STM32WBxx_HAL_Driver/Src/stm32wbxx_ll_usb.c ****     /* Set buffer address for double buffered mode */
 699              		.loc 1 311 5 is_stmt 1 view .LVU204
 700              	.LBB16:
 311:Drivers/STM32WBxx_HAL_Driver/Src/stm32wbxx_ll_usb.c ****     /* Set buffer address for double buffered mode */
 701              		.loc 1 311 5 view .LVU205
 311:Drivers/STM32WBxx_HAL_Driver/Src/stm32wbxx_ll_usb.c ****     /* Set buffer address for double buffered mode */
 702              		.loc 1 311 5 view .LVU206
 703 01a4 0C78     		ldrb	r4, [r1]	@ zero_extendqisi2
 704 01a6 33F82420 		ldrh	r2, [r3, r4, lsl #2]
 705 01aa 92B2     		uxth	r2, r2
 706 01ac 22F4E042 		bic	r2, r2, #28672
 707 01b0 22F07002 		bic	r2, r2, #112
 708              	.LVL66:
 311:Drivers/STM32WBxx_HAL_Driver/Src/stm32wbxx_ll_usb.c ****     /* Set buffer address for double buffered mode */
 709              		.loc 1 311 5 view .LVU207
 710 01b4 42F40142 		orr	r2, r2, #33024
 711              	.LVL67:
 311:Drivers/STM32WBxx_HAL_Driver/Src/stm32wbxx_ll_usb.c ****     /* Set buffer address for double buffered mode */
 712              		.loc 1 311 5 is_stmt 0 view .LVU208
 713 01b8 42F08002 		orr	r2, r2, #128
 714 01bc 23F82420 		strh	r2, [r3, r4, lsl #2]	@ movhi
 715              	.LBE16:
 311:Drivers/STM32WBxx_HAL_Driver/Src/stm32wbxx_ll_usb.c ****     /* Set buffer address for double buffered mode */
 716              		.loc 1 311 5 is_stmt 1 view .LVU209
ARM GAS  /tmp/ccr3mP7A.s 			page 20


 313:Drivers/STM32WBxx_HAL_Driver/Src/stm32wbxx_ll_usb.c **** 
 717              		.loc 1 313 5 view .LVU210
 313:Drivers/STM32WBxx_HAL_Driver/Src/stm32wbxx_ll_usb.c **** 
 718              		.loc 1 313 5 view .LVU211
 313:Drivers/STM32WBxx_HAL_Driver/Src/stm32wbxx_ll_usb.c **** 
 719              		.loc 1 313 5 view .LVU212
 720              	.LBB17:
 313:Drivers/STM32WBxx_HAL_Driver/Src/stm32wbxx_ll_usb.c **** 
 721              		.loc 1 313 5 view .LVU213
 313:Drivers/STM32WBxx_HAL_Driver/Src/stm32wbxx_ll_usb.c **** 
 722              		.loc 1 313 5 view .LVU214
 723              	.LVL68:
 313:Drivers/STM32WBxx_HAL_Driver/Src/stm32wbxx_ll_usb.c **** 
 724              		.loc 1 313 5 view .LVU215
 725 01c0 B3F85020 		ldrh	r2, [r3, #80]
 726 01c4 13FA82F2 		uxtah	r2, r3, r2
 727              	.LVL69:
 313:Drivers/STM32WBxx_HAL_Driver/Src/stm32wbxx_ll_usb.c **** 
 728              		.loc 1 313 5 view .LVU216
 729 01c8 0C78     		ldrb	r4, [r1]	@ zero_extendqisi2
 730 01ca 02EBC402 		add	r2, r2, r4, lsl #3
 731              	.LVL70:
 313:Drivers/STM32WBxx_HAL_Driver/Src/stm32wbxx_ll_usb.c **** 
 732              		.loc 1 313 5 view .LVU217
 733 01ce 0C89     		ldrh	r4, [r1, #8]
 734 01d0 6408     		lsrs	r4, r4, #1
 735 01d2 6400     		lsls	r4, r4, #1
 736 01d4 A2F80044 		strh	r4, [r2, #1024]	@ movhi
 737              	.LBE17:
 313:Drivers/STM32WBxx_HAL_Driver/Src/stm32wbxx_ll_usb.c **** 
 738              		.loc 1 313 5 view .LVU218
 313:Drivers/STM32WBxx_HAL_Driver/Src/stm32wbxx_ll_usb.c **** 
 739              		.loc 1 313 5 view .LVU219
 313:Drivers/STM32WBxx_HAL_Driver/Src/stm32wbxx_ll_usb.c **** 
 740              		.loc 1 313 5 view .LVU220
 313:Drivers/STM32WBxx_HAL_Driver/Src/stm32wbxx_ll_usb.c **** 
 741              		.loc 1 313 5 view .LVU221
 742              	.LBB18:
 313:Drivers/STM32WBxx_HAL_Driver/Src/stm32wbxx_ll_usb.c **** 
 743              		.loc 1 313 5 view .LVU222
 313:Drivers/STM32WBxx_HAL_Driver/Src/stm32wbxx_ll_usb.c **** 
 744              		.loc 1 313 5 view .LVU223
 745              	.LVL71:
 313:Drivers/STM32WBxx_HAL_Driver/Src/stm32wbxx_ll_usb.c **** 
 746              		.loc 1 313 5 view .LVU224
 747 01d8 B3F85020 		ldrh	r2, [r3, #80]
 748              	.LVL72:
 313:Drivers/STM32WBxx_HAL_Driver/Src/stm32wbxx_ll_usb.c **** 
 749              		.loc 1 313 5 is_stmt 0 view .LVU225
 750 01dc 13FA82F2 		uxtah	r2, r3, r2
 751              	.LVL73:
 313:Drivers/STM32WBxx_HAL_Driver/Src/stm32wbxx_ll_usb.c **** 
 752              		.loc 1 313 5 is_stmt 1 view .LVU226
 753 01e0 0C78     		ldrb	r4, [r1]	@ zero_extendqisi2
 754 01e2 02EBC402 		add	r2, r2, r4, lsl #3
 755              	.LVL74:
 313:Drivers/STM32WBxx_HAL_Driver/Src/stm32wbxx_ll_usb.c **** 
ARM GAS  /tmp/ccr3mP7A.s 			page 21


 756              		.loc 1 313 5 view .LVU227
 757 01e6 4C89     		ldrh	r4, [r1, #10]
 758 01e8 6408     		lsrs	r4, r4, #1
 759 01ea 6400     		lsls	r4, r4, #1
 760 01ec A2F80444 		strh	r4, [r2, #1028]	@ movhi
 761              	.LBE18:
 313:Drivers/STM32WBxx_HAL_Driver/Src/stm32wbxx_ll_usb.c **** 
 762              		.loc 1 313 5 view .LVU228
 313:Drivers/STM32WBxx_HAL_Driver/Src/stm32wbxx_ll_usb.c **** 
 763              		.loc 1 313 5 view .LVU229
 313:Drivers/STM32WBxx_HAL_Driver/Src/stm32wbxx_ll_usb.c **** 
 764              		.loc 1 313 5 view .LVU230
 315:Drivers/STM32WBxx_HAL_Driver/Src/stm32wbxx_ll_usb.c ****     {
 765              		.loc 1 315 5 view .LVU231
 315:Drivers/STM32WBxx_HAL_Driver/Src/stm32wbxx_ll_usb.c ****     {
 766              		.loc 1 315 11 is_stmt 0 view .LVU232
 767 01f0 4A78     		ldrb	r2, [r1, #1]	@ zero_extendqisi2
 768              	.LVL75:
 315:Drivers/STM32WBxx_HAL_Driver/Src/stm32wbxx_ll_usb.c ****     {
 769              		.loc 1 315 8 view .LVU233
 770 01f2 002A     		cmp	r2, #0
 771 01f4 4ED1     		bne	.L28
 318:Drivers/STM32WBxx_HAL_Driver/Src/stm32wbxx_ll_usb.c ****       PCD_CLEAR_TX_DTOG(USBx, ep->num);
 772              		.loc 1 318 7 is_stmt 1 view .LVU234
 773              	.LBB19:
 318:Drivers/STM32WBxx_HAL_Driver/Src/stm32wbxx_ll_usb.c ****       PCD_CLEAR_TX_DTOG(USBx, ep->num);
 774              		.loc 1 318 7 view .LVU235
 318:Drivers/STM32WBxx_HAL_Driver/Src/stm32wbxx_ll_usb.c ****       PCD_CLEAR_TX_DTOG(USBx, ep->num);
 775              		.loc 1 318 7 view .LVU236
 776 01f6 0C78     		ldrb	r4, [r1]	@ zero_extendqisi2
 777 01f8 33F82420 		ldrh	r2, [r3, r4, lsl #2]
 778              	.LVL76:
 318:Drivers/STM32WBxx_HAL_Driver/Src/stm32wbxx_ll_usb.c ****       PCD_CLEAR_TX_DTOG(USBx, ep->num);
 779              		.loc 1 318 7 view .LVU237
 780 01fc 12F4804F 		tst	r2, #16384
 781 0200 0CD0     		beq	.L29
 318:Drivers/STM32WBxx_HAL_Driver/Src/stm32wbxx_ll_usb.c ****       PCD_CLEAR_TX_DTOG(USBx, ep->num);
 782              		.loc 1 318 7 discriminator 1 view .LVU238
 783              	.LBB20:
 318:Drivers/STM32WBxx_HAL_Driver/Src/stm32wbxx_ll_usb.c ****       PCD_CLEAR_TX_DTOG(USBx, ep->num);
 784              		.loc 1 318 7 discriminator 1 view .LVU239
 318:Drivers/STM32WBxx_HAL_Driver/Src/stm32wbxx_ll_usb.c ****       PCD_CLEAR_TX_DTOG(USBx, ep->num);
 785              		.loc 1 318 7 discriminator 1 view .LVU240
 786 0202 33F82420 		ldrh	r2, [r3, r4, lsl #2]
 787              	.LVL77:
 318:Drivers/STM32WBxx_HAL_Driver/Src/stm32wbxx_ll_usb.c ****       PCD_CLEAR_TX_DTOG(USBx, ep->num);
 788              		.loc 1 318 7 is_stmt 0 discriminator 1 view .LVU241
 789 0206 92B2     		uxth	r2, r2
 790 0208 22F4E042 		bic	r2, r2, #28672
 791 020c 22F07002 		bic	r2, r2, #112
 792              	.LVL78:
 318:Drivers/STM32WBxx_HAL_Driver/Src/stm32wbxx_ll_usb.c ****       PCD_CLEAR_TX_DTOG(USBx, ep->num);
 793              		.loc 1 318 7 is_stmt 1 discriminator 1 view .LVU242
 794 0210 42F44042 		orr	r2, r2, #49152
 795              	.LVL79:
 318:Drivers/STM32WBxx_HAL_Driver/Src/stm32wbxx_ll_usb.c ****       PCD_CLEAR_TX_DTOG(USBx, ep->num);
 796              		.loc 1 318 7 is_stmt 0 discriminator 1 view .LVU243
ARM GAS  /tmp/ccr3mP7A.s 			page 22


 797 0214 42F08002 		orr	r2, r2, #128
 798 0218 23F82420 		strh	r2, [r3, r4, lsl #2]	@ movhi
 799              	.L29:
 318:Drivers/STM32WBxx_HAL_Driver/Src/stm32wbxx_ll_usb.c ****       PCD_CLEAR_TX_DTOG(USBx, ep->num);
 800              		.loc 1 318 7 discriminator 1 view .LVU244
 801              	.LBE20:
 318:Drivers/STM32WBxx_HAL_Driver/Src/stm32wbxx_ll_usb.c ****       PCD_CLEAR_TX_DTOG(USBx, ep->num);
 802              		.loc 1 318 7 is_stmt 1 discriminator 3 view .LVU245
 803              	.LBE19:
 318:Drivers/STM32WBxx_HAL_Driver/Src/stm32wbxx_ll_usb.c ****       PCD_CLEAR_TX_DTOG(USBx, ep->num);
 804              		.loc 1 318 7 discriminator 3 view .LVU246
 319:Drivers/STM32WBxx_HAL_Driver/Src/stm32wbxx_ll_usb.c **** 
 805              		.loc 1 319 7 discriminator 3 view .LVU247
 806              	.LBB21:
 319:Drivers/STM32WBxx_HAL_Driver/Src/stm32wbxx_ll_usb.c **** 
 807              		.loc 1 319 7 discriminator 3 view .LVU248
 319:Drivers/STM32WBxx_HAL_Driver/Src/stm32wbxx_ll_usb.c **** 
 808              		.loc 1 319 7 discriminator 3 view .LVU249
 809 021c 0C78     		ldrb	r4, [r1]	@ zero_extendqisi2
 810 021e 33F82420 		ldrh	r2, [r3, r4, lsl #2]
 811              	.LVL80:
 319:Drivers/STM32WBxx_HAL_Driver/Src/stm32wbxx_ll_usb.c **** 
 812              		.loc 1 319 7 discriminator 3 view .LVU250
 813 0222 12F0400F 		tst	r2, #64
 814 0226 0CD0     		beq	.L30
 319:Drivers/STM32WBxx_HAL_Driver/Src/stm32wbxx_ll_usb.c **** 
 815              		.loc 1 319 7 discriminator 1 view .LVU251
 816              	.LBB22:
 319:Drivers/STM32WBxx_HAL_Driver/Src/stm32wbxx_ll_usb.c **** 
 817              		.loc 1 319 7 discriminator 1 view .LVU252
 319:Drivers/STM32WBxx_HAL_Driver/Src/stm32wbxx_ll_usb.c **** 
 818              		.loc 1 319 7 discriminator 1 view .LVU253
 819 0228 33F82420 		ldrh	r2, [r3, r4, lsl #2]
 820              	.LVL81:
 319:Drivers/STM32WBxx_HAL_Driver/Src/stm32wbxx_ll_usb.c **** 
 821              		.loc 1 319 7 is_stmt 0 discriminator 1 view .LVU254
 822 022c 92B2     		uxth	r2, r2
 823 022e 22F4E042 		bic	r2, r2, #28672
 824 0232 22F07002 		bic	r2, r2, #112
 825              	.LVL82:
 319:Drivers/STM32WBxx_HAL_Driver/Src/stm32wbxx_ll_usb.c **** 
 826              		.loc 1 319 7 is_stmt 1 discriminator 1 view .LVU255
 827 0236 42F40042 		orr	r2, r2, #32768
 828              	.LVL83:
 319:Drivers/STM32WBxx_HAL_Driver/Src/stm32wbxx_ll_usb.c **** 
 829              		.loc 1 319 7 is_stmt 0 discriminator 1 view .LVU256
 830 023a 42F0C002 		orr	r2, r2, #192
 831 023e 23F82420 		strh	r2, [r3, r4, lsl #2]	@ movhi
 832              	.L30:
 319:Drivers/STM32WBxx_HAL_Driver/Src/stm32wbxx_ll_usb.c **** 
 833              		.loc 1 319 7 discriminator 1 view .LVU257
 834              	.LBE22:
 319:Drivers/STM32WBxx_HAL_Driver/Src/stm32wbxx_ll_usb.c **** 
 835              		.loc 1 319 7 is_stmt 1 discriminator 3 view .LVU258
 836              	.LBE21:
 319:Drivers/STM32WBxx_HAL_Driver/Src/stm32wbxx_ll_usb.c **** 
 837              		.loc 1 319 7 discriminator 3 view .LVU259
ARM GAS  /tmp/ccr3mP7A.s 			page 23


 322:Drivers/STM32WBxx_HAL_Driver/Src/stm32wbxx_ll_usb.c **** 
 838              		.loc 1 322 7 discriminator 3 view .LVU260
 839              	.LBB23:
 322:Drivers/STM32WBxx_HAL_Driver/Src/stm32wbxx_ll_usb.c **** 
 840              		.loc 1 322 7 discriminator 3 view .LVU261
 322:Drivers/STM32WBxx_HAL_Driver/Src/stm32wbxx_ll_usb.c **** 
 841              		.loc 1 322 7 discriminator 3 view .LVU262
 842 0242 0C78     		ldrb	r4, [r1]	@ zero_extendqisi2
 843 0244 33F82420 		ldrh	r2, [r3, r4, lsl #2]
 844 0248 92B2     		uxth	r2, r2
 845 024a 22F4E042 		bic	r2, r2, #28672
 846 024e 22F07002 		bic	r2, r2, #112
 847              	.LVL84:
 322:Drivers/STM32WBxx_HAL_Driver/Src/stm32wbxx_ll_usb.c **** 
 848              		.loc 1 322 7 discriminator 3 view .LVU263
 849 0252 42F40042 		orr	r2, r2, #32768
 850              	.LVL85:
 322:Drivers/STM32WBxx_HAL_Driver/Src/stm32wbxx_ll_usb.c **** 
 851              		.loc 1 322 7 is_stmt 0 discriminator 3 view .LVU264
 852 0256 42F0C002 		orr	r2, r2, #192
 853 025a 23F82420 		strh	r2, [r3, r4, lsl #2]	@ movhi
 854              	.LBE23:
 322:Drivers/STM32WBxx_HAL_Driver/Src/stm32wbxx_ll_usb.c **** 
 855              		.loc 1 322 7 is_stmt 1 discriminator 3 view .LVU265
 324:Drivers/STM32WBxx_HAL_Driver/Src/stm32wbxx_ll_usb.c ****       PCD_SET_EP_TX_STATUS(USBx, ep->num, USB_EP_TX_DIS);
 856              		.loc 1 324 7 discriminator 3 view .LVU266
 857              	.LBB24:
 324:Drivers/STM32WBxx_HAL_Driver/Src/stm32wbxx_ll_usb.c ****       PCD_SET_EP_TX_STATUS(USBx, ep->num, USB_EP_TX_DIS);
 858              		.loc 1 324 7 discriminator 3 view .LVU267
 324:Drivers/STM32WBxx_HAL_Driver/Src/stm32wbxx_ll_usb.c ****       PCD_SET_EP_TX_STATUS(USBx, ep->num, USB_EP_TX_DIS);
 859              		.loc 1 324 7 discriminator 3 view .LVU268
 860 025e 0D78     		ldrb	r5, [r1]	@ zero_extendqisi2
 861 0260 33F82520 		ldrh	r2, [r3, r5, lsl #2]
 862 0264 92B2     		uxth	r2, r2
 863 0266 22F48042 		bic	r2, r2, #16384
 864 026a 22F07002 		bic	r2, r2, #112
 865              	.LVL86:
 324:Drivers/STM32WBxx_HAL_Driver/Src/stm32wbxx_ll_usb.c ****       PCD_SET_EP_TX_STATUS(USBx, ep->num, USB_EP_TX_DIS);
 866              		.loc 1 324 7 discriminator 3 view .LVU269
 324:Drivers/STM32WBxx_HAL_Driver/Src/stm32wbxx_ll_usb.c ****       PCD_SET_EP_TX_STATUS(USBx, ep->num, USB_EP_TX_DIS);
 867              		.loc 1 324 7 discriminator 3 view .LVU270
 324:Drivers/STM32WBxx_HAL_Driver/Src/stm32wbxx_ll_usb.c ****       PCD_SET_EP_TX_STATUS(USBx, ep->num, USB_EP_TX_DIS);
 868              		.loc 1 324 7 discriminator 3 view .LVU271
 324:Drivers/STM32WBxx_HAL_Driver/Src/stm32wbxx_ll_usb.c ****       PCD_SET_EP_TX_STATUS(USBx, ep->num, USB_EP_TX_DIS);
 869              		.loc 1 324 7 discriminator 3 view .LVU272
 870 026e 82F44052 		eor	r2, r2, #12288
 871              	.LVL87:
 324:Drivers/STM32WBxx_HAL_Driver/Src/stm32wbxx_ll_usb.c ****       PCD_SET_EP_TX_STATUS(USBx, ep->num, USB_EP_TX_DIS);
 872              		.loc 1 324 7 discriminator 3 view .LVU273
 873 0272 48F28004 		movw	r4, #32896
 874 0276 2243     		orrs	r2, r2, r4
 875              	.LVL88:
 324:Drivers/STM32WBxx_HAL_Driver/Src/stm32wbxx_ll_usb.c ****       PCD_SET_EP_TX_STATUS(USBx, ep->num, USB_EP_TX_DIS);
 876              		.loc 1 324 7 is_stmt 0 discriminator 3 view .LVU274
 877 0278 23F82520 		strh	r2, [r3, r5, lsl #2]	@ movhi
 878              	.LBE24:
 324:Drivers/STM32WBxx_HAL_Driver/Src/stm32wbxx_ll_usb.c ****       PCD_SET_EP_TX_STATUS(USBx, ep->num, USB_EP_TX_DIS);
ARM GAS  /tmp/ccr3mP7A.s 			page 24


 879              		.loc 1 324 7 is_stmt 1 discriminator 3 view .LVU275
 325:Drivers/STM32WBxx_HAL_Driver/Src/stm32wbxx_ll_usb.c ****     }
 880              		.loc 1 325 7 discriminator 3 view .LVU276
 881              	.LBB25:
 325:Drivers/STM32WBxx_HAL_Driver/Src/stm32wbxx_ll_usb.c ****     }
 882              		.loc 1 325 7 discriminator 3 view .LVU277
 325:Drivers/STM32WBxx_HAL_Driver/Src/stm32wbxx_ll_usb.c ****     }
 883              		.loc 1 325 7 discriminator 3 view .LVU278
 884 027c 0978     		ldrb	r1, [r1]	@ zero_extendqisi2
 885              	.LVL89:
 325:Drivers/STM32WBxx_HAL_Driver/Src/stm32wbxx_ll_usb.c ****     }
 886              		.loc 1 325 7 is_stmt 0 discriminator 3 view .LVU279
 887 027e 33F82120 		ldrh	r2, [r3, r1, lsl #2]
 888 0282 92B2     		uxth	r2, r2
 889 0284 22F4E042 		bic	r2, r2, #28672
 890 0288 22F04002 		bic	r2, r2, #64
 891              	.LVL90:
 325:Drivers/STM32WBxx_HAL_Driver/Src/stm32wbxx_ll_usb.c ****     }
 892              		.loc 1 325 7 is_stmt 1 discriminator 3 view .LVU280
 325:Drivers/STM32WBxx_HAL_Driver/Src/stm32wbxx_ll_usb.c ****     }
 893              		.loc 1 325 7 discriminator 3 view .LVU281
 325:Drivers/STM32WBxx_HAL_Driver/Src/stm32wbxx_ll_usb.c ****     }
 894              		.loc 1 325 7 discriminator 3 view .LVU282
 895 028c 2243     		orrs	r2, r2, r4
 896              	.LVL91:
 325:Drivers/STM32WBxx_HAL_Driver/Src/stm32wbxx_ll_usb.c ****     }
 897              		.loc 1 325 7 is_stmt 0 discriminator 3 view .LVU283
 898 028e 23F82120 		strh	r2, [r3, r1, lsl #2]	@ movhi
 899              	.LBE25:
 325:Drivers/STM32WBxx_HAL_Driver/Src/stm32wbxx_ll_usb.c ****     }
 900              		.loc 1 325 7 is_stmt 1 discriminator 3 view .LVU284
 901 0292 72E7     		b	.L22
 902              	.LVL92:
 903              	.L28:
 330:Drivers/STM32WBxx_HAL_Driver/Src/stm32wbxx_ll_usb.c ****       PCD_CLEAR_TX_DTOG(USBx, ep->num);
 904              		.loc 1 330 7 view .LVU285
 905              	.LBB26:
 330:Drivers/STM32WBxx_HAL_Driver/Src/stm32wbxx_ll_usb.c ****       PCD_CLEAR_TX_DTOG(USBx, ep->num);
 906              		.loc 1 330 7 view .LVU286
 330:Drivers/STM32WBxx_HAL_Driver/Src/stm32wbxx_ll_usb.c ****       PCD_CLEAR_TX_DTOG(USBx, ep->num);
 907              		.loc 1 330 7 view .LVU287
 908 0294 0C78     		ldrb	r4, [r1]	@ zero_extendqisi2
 909 0296 33F82420 		ldrh	r2, [r3, r4, lsl #2]
 910              	.LVL93:
 330:Drivers/STM32WBxx_HAL_Driver/Src/stm32wbxx_ll_usb.c ****       PCD_CLEAR_TX_DTOG(USBx, ep->num);
 911              		.loc 1 330 7 view .LVU288
 912 029a 12F4804F 		tst	r2, #16384
 913 029e 0CD0     		beq	.L31
 330:Drivers/STM32WBxx_HAL_Driver/Src/stm32wbxx_ll_usb.c ****       PCD_CLEAR_TX_DTOG(USBx, ep->num);
 914              		.loc 1 330 7 discriminator 1 view .LVU289
 915              	.LBB27:
 330:Drivers/STM32WBxx_HAL_Driver/Src/stm32wbxx_ll_usb.c ****       PCD_CLEAR_TX_DTOG(USBx, ep->num);
 916              		.loc 1 330 7 discriminator 1 view .LVU290
 330:Drivers/STM32WBxx_HAL_Driver/Src/stm32wbxx_ll_usb.c ****       PCD_CLEAR_TX_DTOG(USBx, ep->num);
 917              		.loc 1 330 7 discriminator 1 view .LVU291
 918 02a0 33F82420 		ldrh	r2, [r3, r4, lsl #2]
 919              	.LVL94:
ARM GAS  /tmp/ccr3mP7A.s 			page 25


 330:Drivers/STM32WBxx_HAL_Driver/Src/stm32wbxx_ll_usb.c ****       PCD_CLEAR_TX_DTOG(USBx, ep->num);
 920              		.loc 1 330 7 is_stmt 0 discriminator 1 view .LVU292
 921 02a4 92B2     		uxth	r2, r2
 922 02a6 22F4E042 		bic	r2, r2, #28672
 923 02aa 22F07002 		bic	r2, r2, #112
 924              	.LVL95:
 330:Drivers/STM32WBxx_HAL_Driver/Src/stm32wbxx_ll_usb.c ****       PCD_CLEAR_TX_DTOG(USBx, ep->num);
 925              		.loc 1 330 7 is_stmt 1 discriminator 1 view .LVU293
 926 02ae 42F44042 		orr	r2, r2, #49152
 927              	.LVL96:
 330:Drivers/STM32WBxx_HAL_Driver/Src/stm32wbxx_ll_usb.c ****       PCD_CLEAR_TX_DTOG(USBx, ep->num);
 928              		.loc 1 330 7 is_stmt 0 discriminator 1 view .LVU294
 929 02b2 42F08002 		orr	r2, r2, #128
 930 02b6 23F82420 		strh	r2, [r3, r4, lsl #2]	@ movhi
 931              	.L31:
 330:Drivers/STM32WBxx_HAL_Driver/Src/stm32wbxx_ll_usb.c ****       PCD_CLEAR_TX_DTOG(USBx, ep->num);
 932              		.loc 1 330 7 discriminator 1 view .LVU295
 933              	.LBE27:
 330:Drivers/STM32WBxx_HAL_Driver/Src/stm32wbxx_ll_usb.c ****       PCD_CLEAR_TX_DTOG(USBx, ep->num);
 934              		.loc 1 330 7 is_stmt 1 discriminator 3 view .LVU296
 935              	.LBE26:
 330:Drivers/STM32WBxx_HAL_Driver/Src/stm32wbxx_ll_usb.c ****       PCD_CLEAR_TX_DTOG(USBx, ep->num);
 936              		.loc 1 330 7 discriminator 3 view .LVU297
 331:Drivers/STM32WBxx_HAL_Driver/Src/stm32wbxx_ll_usb.c ****       PCD_RX_DTOG(USBx, ep->num);
 937              		.loc 1 331 7 discriminator 3 view .LVU298
 938              	.LBB28:
 331:Drivers/STM32WBxx_HAL_Driver/Src/stm32wbxx_ll_usb.c ****       PCD_RX_DTOG(USBx, ep->num);
 939              		.loc 1 331 7 discriminator 3 view .LVU299
 331:Drivers/STM32WBxx_HAL_Driver/Src/stm32wbxx_ll_usb.c ****       PCD_RX_DTOG(USBx, ep->num);
 940              		.loc 1 331 7 discriminator 3 view .LVU300
 941 02ba 0C78     		ldrb	r4, [r1]	@ zero_extendqisi2
 942 02bc 33F82420 		ldrh	r2, [r3, r4, lsl #2]
 943              	.LVL97:
 331:Drivers/STM32WBxx_HAL_Driver/Src/stm32wbxx_ll_usb.c ****       PCD_RX_DTOG(USBx, ep->num);
 944              		.loc 1 331 7 discriminator 3 view .LVU301
 945 02c0 12F0400F 		tst	r2, #64
 946 02c4 0CD0     		beq	.L32
 331:Drivers/STM32WBxx_HAL_Driver/Src/stm32wbxx_ll_usb.c ****       PCD_RX_DTOG(USBx, ep->num);
 947              		.loc 1 331 7 discriminator 1 view .LVU302
 948              	.LBB29:
 331:Drivers/STM32WBxx_HAL_Driver/Src/stm32wbxx_ll_usb.c ****       PCD_RX_DTOG(USBx, ep->num);
 949              		.loc 1 331 7 discriminator 1 view .LVU303
 331:Drivers/STM32WBxx_HAL_Driver/Src/stm32wbxx_ll_usb.c ****       PCD_RX_DTOG(USBx, ep->num);
 950              		.loc 1 331 7 discriminator 1 view .LVU304
 951 02c6 33F82420 		ldrh	r2, [r3, r4, lsl #2]
 952              	.LVL98:
 331:Drivers/STM32WBxx_HAL_Driver/Src/stm32wbxx_ll_usb.c ****       PCD_RX_DTOG(USBx, ep->num);
 953              		.loc 1 331 7 is_stmt 0 discriminator 1 view .LVU305
 954 02ca 92B2     		uxth	r2, r2
 955 02cc 22F4E042 		bic	r2, r2, #28672
 956 02d0 22F07002 		bic	r2, r2, #112
 957              	.LVL99:
 331:Drivers/STM32WBxx_HAL_Driver/Src/stm32wbxx_ll_usb.c ****       PCD_RX_DTOG(USBx, ep->num);
 958              		.loc 1 331 7 is_stmt 1 discriminator 1 view .LVU306
 959 02d4 42F40042 		orr	r2, r2, #32768
 960              	.LVL100:
 331:Drivers/STM32WBxx_HAL_Driver/Src/stm32wbxx_ll_usb.c ****       PCD_RX_DTOG(USBx, ep->num);
ARM GAS  /tmp/ccr3mP7A.s 			page 26


 961              		.loc 1 331 7 is_stmt 0 discriminator 1 view .LVU307
 962 02d8 42F0C002 		orr	r2, r2, #192
 963 02dc 23F82420 		strh	r2, [r3, r4, lsl #2]	@ movhi
 964              	.L32:
 331:Drivers/STM32WBxx_HAL_Driver/Src/stm32wbxx_ll_usb.c ****       PCD_RX_DTOG(USBx, ep->num);
 965              		.loc 1 331 7 discriminator 1 view .LVU308
 966              	.LBE29:
 331:Drivers/STM32WBxx_HAL_Driver/Src/stm32wbxx_ll_usb.c ****       PCD_RX_DTOG(USBx, ep->num);
 967              		.loc 1 331 7 is_stmt 1 discriminator 3 view .LVU309
 968              	.LBE28:
 331:Drivers/STM32WBxx_HAL_Driver/Src/stm32wbxx_ll_usb.c ****       PCD_RX_DTOG(USBx, ep->num);
 969              		.loc 1 331 7 discriminator 3 view .LVU310
 332:Drivers/STM32WBxx_HAL_Driver/Src/stm32wbxx_ll_usb.c **** 
 970              		.loc 1 332 7 discriminator 3 view .LVU311
 971              	.LBB30:
 332:Drivers/STM32WBxx_HAL_Driver/Src/stm32wbxx_ll_usb.c **** 
 972              		.loc 1 332 7 discriminator 3 view .LVU312
 332:Drivers/STM32WBxx_HAL_Driver/Src/stm32wbxx_ll_usb.c **** 
 973              		.loc 1 332 7 discriminator 3 view .LVU313
 974 02e0 0C78     		ldrb	r4, [r1]	@ zero_extendqisi2
 975 02e2 33F82420 		ldrh	r2, [r3, r4, lsl #2]
 976 02e6 92B2     		uxth	r2, r2
 977 02e8 22F4E042 		bic	r2, r2, #28672
 978 02ec 22F07002 		bic	r2, r2, #112
 979              	.LVL101:
 332:Drivers/STM32WBxx_HAL_Driver/Src/stm32wbxx_ll_usb.c **** 
 980              		.loc 1 332 7 discriminator 3 view .LVU314
 981 02f0 42F44042 		orr	r2, r2, #49152
 982              	.LVL102:
 332:Drivers/STM32WBxx_HAL_Driver/Src/stm32wbxx_ll_usb.c **** 
 983              		.loc 1 332 7 is_stmt 0 discriminator 3 view .LVU315
 984 02f4 42F08002 		orr	r2, r2, #128
 985 02f8 23F82420 		strh	r2, [r3, r4, lsl #2]	@ movhi
 986              	.LBE30:
 332:Drivers/STM32WBxx_HAL_Driver/Src/stm32wbxx_ll_usb.c **** 
 987              		.loc 1 332 7 is_stmt 1 discriminator 3 view .LVU316
 334:Drivers/STM32WBxx_HAL_Driver/Src/stm32wbxx_ll_usb.c ****       {
 988              		.loc 1 334 7 discriminator 3 view .LVU317
 334:Drivers/STM32WBxx_HAL_Driver/Src/stm32wbxx_ll_usb.c ****       {
 989              		.loc 1 334 13 is_stmt 0 discriminator 3 view .LVU318
 990 02fc CA78     		ldrb	r2, [r1, #3]	@ zero_extendqisi2
 334:Drivers/STM32WBxx_HAL_Driver/Src/stm32wbxx_ll_usb.c ****       {
 991              		.loc 1 334 10 discriminator 3 view .LVU319
 992 02fe 012A     		cmp	r2, #1
 993 0300 1ED0     		beq	.L33
 337:Drivers/STM32WBxx_HAL_Driver/Src/stm32wbxx_ll_usb.c ****       }
 994              		.loc 1 337 9 is_stmt 1 view .LVU320
 995              	.LBB31:
 337:Drivers/STM32WBxx_HAL_Driver/Src/stm32wbxx_ll_usb.c ****       }
 996              		.loc 1 337 9 view .LVU321
 337:Drivers/STM32WBxx_HAL_Driver/Src/stm32wbxx_ll_usb.c ****       }
 997              		.loc 1 337 9 view .LVU322
 998 0302 0C78     		ldrb	r4, [r1]	@ zero_extendqisi2
 999 0304 33F82420 		ldrh	r2, [r3, r4, lsl #2]
 1000 0308 92B2     		uxth	r2, r2
 1001 030a 22F4E042 		bic	r2, r2, #28672
 1002 030e 22F04002 		bic	r2, r2, #64
ARM GAS  /tmp/ccr3mP7A.s 			page 27


 1003              	.LVL103:
 337:Drivers/STM32WBxx_HAL_Driver/Src/stm32wbxx_ll_usb.c ****       }
 1004              		.loc 1 337 9 view .LVU323
 337:Drivers/STM32WBxx_HAL_Driver/Src/stm32wbxx_ll_usb.c ****       }
 1005              		.loc 1 337 9 view .LVU324
 337:Drivers/STM32WBxx_HAL_Driver/Src/stm32wbxx_ll_usb.c ****       }
 1006              		.loc 1 337 9 view .LVU325
 1007 0312 82F02002 		eor	r2, r2, #32
 1008              	.LVL104:
 337:Drivers/STM32WBxx_HAL_Driver/Src/stm32wbxx_ll_usb.c ****       }
 1009              		.loc 1 337 9 view .LVU326
 1010 0316 42F40042 		orr	r2, r2, #32768
 1011              	.LVL105:
 337:Drivers/STM32WBxx_HAL_Driver/Src/stm32wbxx_ll_usb.c ****       }
 1012              		.loc 1 337 9 is_stmt 0 view .LVU327
 1013 031a 42F08002 		orr	r2, r2, #128
 1014 031e 23F82420 		strh	r2, [r3, r4, lsl #2]	@ movhi
 1015              	.LBE31:
 337:Drivers/STM32WBxx_HAL_Driver/Src/stm32wbxx_ll_usb.c ****       }
 1016              		.loc 1 337 9 is_stmt 1 view .LVU328
 1017              	.L34:
 342:Drivers/STM32WBxx_HAL_Driver/Src/stm32wbxx_ll_usb.c ****       }
 1018              		.loc 1 342 9 discriminator 7 view .LVU329
 345:Drivers/STM32WBxx_HAL_Driver/Src/stm32wbxx_ll_usb.c ****     }
 1019              		.loc 1 345 7 discriminator 7 view .LVU330
 1020              	.LBB32:
 345:Drivers/STM32WBxx_HAL_Driver/Src/stm32wbxx_ll_usb.c ****     }
 1021              		.loc 1 345 7 discriminator 7 view .LVU331
 345:Drivers/STM32WBxx_HAL_Driver/Src/stm32wbxx_ll_usb.c ****     }
 1022              		.loc 1 345 7 discriminator 7 view .LVU332
 1023 0322 0978     		ldrb	r1, [r1]	@ zero_extendqisi2
 1024              	.LVL106:
 345:Drivers/STM32WBxx_HAL_Driver/Src/stm32wbxx_ll_usb.c ****     }
 1025              		.loc 1 345 7 is_stmt 0 discriminator 7 view .LVU333
 1026 0324 33F82120 		ldrh	r2, [r3, r1, lsl #2]
 1027 0328 92B2     		uxth	r2, r2
 1028 032a 22F48042 		bic	r2, r2, #16384
 1029 032e 22F07002 		bic	r2, r2, #112
 1030              	.LVL107:
 345:Drivers/STM32WBxx_HAL_Driver/Src/stm32wbxx_ll_usb.c ****     }
 1031              		.loc 1 345 7 is_stmt 1 discriminator 7 view .LVU334
 345:Drivers/STM32WBxx_HAL_Driver/Src/stm32wbxx_ll_usb.c ****     }
 1032              		.loc 1 345 7 discriminator 7 view .LVU335
 345:Drivers/STM32WBxx_HAL_Driver/Src/stm32wbxx_ll_usb.c ****     }
 1033              		.loc 1 345 7 discriminator 7 view .LVU336
 1034 0332 42F40042 		orr	r2, r2, #32768
 1035              	.LVL108:
 345:Drivers/STM32WBxx_HAL_Driver/Src/stm32wbxx_ll_usb.c ****     }
 1036              		.loc 1 345 7 is_stmt 0 discriminator 7 view .LVU337
 1037 0336 42F08002 		orr	r2, r2, #128
 1038 033a 23F82120 		strh	r2, [r3, r1, lsl #2]	@ movhi
 1039 033e 1CE7     		b	.L22
 1040              	.LVL109:
 1041              	.L33:
 345:Drivers/STM32WBxx_HAL_Driver/Src/stm32wbxx_ll_usb.c ****     }
 1042              		.loc 1 345 7 discriminator 7 view .LVU338
 1043              	.LBE32:
ARM GAS  /tmp/ccr3mP7A.s 			page 28


 342:Drivers/STM32WBxx_HAL_Driver/Src/stm32wbxx_ll_usb.c ****       }
 1044              		.loc 1 342 9 is_stmt 1 view .LVU339
 1045              	.LBB33:
 342:Drivers/STM32WBxx_HAL_Driver/Src/stm32wbxx_ll_usb.c ****       }
 1046              		.loc 1 342 9 view .LVU340
 342:Drivers/STM32WBxx_HAL_Driver/Src/stm32wbxx_ll_usb.c ****       }
 1047              		.loc 1 342 9 view .LVU341
 1048 0340 0C78     		ldrb	r4, [r1]	@ zero_extendqisi2
 1049 0342 33F82420 		ldrh	r2, [r3, r4, lsl #2]
 1050 0346 92B2     		uxth	r2, r2
 1051 0348 22F4E042 		bic	r2, r2, #28672
 1052 034c 22F04002 		bic	r2, r2, #64
 1053              	.LVL110:
 342:Drivers/STM32WBxx_HAL_Driver/Src/stm32wbxx_ll_usb.c ****       }
 1054              		.loc 1 342 9 view .LVU342
 342:Drivers/STM32WBxx_HAL_Driver/Src/stm32wbxx_ll_usb.c ****       }
 1055              		.loc 1 342 9 view .LVU343
 342:Drivers/STM32WBxx_HAL_Driver/Src/stm32wbxx_ll_usb.c ****       }
 1056              		.loc 1 342 9 view .LVU344
 1057 0350 42F40042 		orr	r2, r2, #32768
 1058              	.LVL111:
 342:Drivers/STM32WBxx_HAL_Driver/Src/stm32wbxx_ll_usb.c ****       }
 1059              		.loc 1 342 9 is_stmt 0 view .LVU345
 1060 0354 42F08002 		orr	r2, r2, #128
 1061 0358 23F82420 		strh	r2, [r3, r4, lsl #2]	@ movhi
 1062 035c E1E7     		b	.L34
 1063              	.LBE33:
 1064              		.cfi_endproc
 1065              	.LFE949:
 1067              		.section	.text.USB_DeactivateEndpoint,"ax",%progbits
 1068              		.align	1
 1069              		.global	USB_DeactivateEndpoint
 1070              		.syntax unified
 1071              		.thumb
 1072              		.thumb_func
 1073              		.fpu fpv4-sp-d16
 1075              	USB_DeactivateEndpoint:
 1076              	.LVL112:
 1077              	.LFB950:
 351:Drivers/STM32WBxx_HAL_Driver/Src/stm32wbxx_ll_usb.c **** 
 352:Drivers/STM32WBxx_HAL_Driver/Src/stm32wbxx_ll_usb.c **** /**
 353:Drivers/STM32WBxx_HAL_Driver/Src/stm32wbxx_ll_usb.c ****   * @brief  De-activate and de-initialize an endpoint
 354:Drivers/STM32WBxx_HAL_Driver/Src/stm32wbxx_ll_usb.c ****   * @param  USBx : Selected device
 355:Drivers/STM32WBxx_HAL_Driver/Src/stm32wbxx_ll_usb.c ****   * @param  ep: pointer to endpoint structure
 356:Drivers/STM32WBxx_HAL_Driver/Src/stm32wbxx_ll_usb.c ****   * @retval HAL status
 357:Drivers/STM32WBxx_HAL_Driver/Src/stm32wbxx_ll_usb.c ****   */
 358:Drivers/STM32WBxx_HAL_Driver/Src/stm32wbxx_ll_usb.c **** HAL_StatusTypeDef USB_DeactivateEndpoint(USB_TypeDef *USBx, USB_EPTypeDef *ep)
 359:Drivers/STM32WBxx_HAL_Driver/Src/stm32wbxx_ll_usb.c **** {
 1078              		.loc 1 359 1 is_stmt 1 view -0
 1079              		.cfi_startproc
 1080              		@ args = 0, pretend = 0, frame = 0
 1081              		@ frame_needed = 0, uses_anonymous_args = 0
 1082              		@ link register save eliminated.
 360:Drivers/STM32WBxx_HAL_Driver/Src/stm32wbxx_ll_usb.c ****   if (ep->doublebuffer == 0U)
 1083              		.loc 1 360 3 view .LVU347
 1084              		.loc 1 360 9 is_stmt 0 view .LVU348
 1085 0000 0B7B     		ldrb	r3, [r1, #12]	@ zero_extendqisi2
ARM GAS  /tmp/ccr3mP7A.s 			page 29


 1086              		.loc 1 360 6 view .LVU349
 1087 0002 002B     		cmp	r3, #0
 1088 0004 46D1     		bne	.L38
 361:Drivers/STM32WBxx_HAL_Driver/Src/stm32wbxx_ll_usb.c ****   {
 362:Drivers/STM32WBxx_HAL_Driver/Src/stm32wbxx_ll_usb.c ****     if (ep->is_in != 0U)
 1089              		.loc 1 362 5 is_stmt 1 view .LVU350
 1090              		.loc 1 362 11 is_stmt 0 view .LVU351
 1091 0006 4B78     		ldrb	r3, [r1, #1]	@ zero_extendqisi2
 1092              		.loc 1 362 8 view .LVU352
 1093 0008 13B3     		cbz	r3, .L39
 363:Drivers/STM32WBxx_HAL_Driver/Src/stm32wbxx_ll_usb.c ****     {
 364:Drivers/STM32WBxx_HAL_Driver/Src/stm32wbxx_ll_usb.c ****       PCD_CLEAR_TX_DTOG(USBx, ep->num);
 1094              		.loc 1 364 7 is_stmt 1 view .LVU353
 1095              	.LBB34:
 1096              		.loc 1 364 7 view .LVU354
 1097              		.loc 1 364 7 view .LVU355
 1098 000a 0A78     		ldrb	r2, [r1]	@ zero_extendqisi2
 1099 000c 30F82230 		ldrh	r3, [r0, r2, lsl #2]
 1100              	.LVL113:
 1101              		.loc 1 364 7 view .LVU356
 1102 0010 13F0400F 		tst	r3, #64
 1103 0014 0CD0     		beq	.L40
 1104              		.loc 1 364 7 discriminator 1 view .LVU357
 1105              	.LBB35:
 1106              		.loc 1 364 7 discriminator 1 view .LVU358
 1107              		.loc 1 364 7 discriminator 1 view .LVU359
 1108 0016 30F82230 		ldrh	r3, [r0, r2, lsl #2]
 1109              	.LVL114:
 1110              		.loc 1 364 7 is_stmt 0 discriminator 1 view .LVU360
 1111 001a 9BB2     		uxth	r3, r3
 1112 001c 23F4E043 		bic	r3, r3, #28672
 1113 0020 23F07003 		bic	r3, r3, #112
 1114              	.LVL115:
 1115              		.loc 1 364 7 is_stmt 1 discriminator 1 view .LVU361
 1116 0024 43F40043 		orr	r3, r3, #32768
 1117              	.LVL116:
 1118              		.loc 1 364 7 is_stmt 0 discriminator 1 view .LVU362
 1119 0028 43F0C003 		orr	r3, r3, #192
 1120 002c 20F82230 		strh	r3, [r0, r2, lsl #2]	@ movhi
 1121              	.L40:
 1122              		.loc 1 364 7 discriminator 1 view .LVU363
 1123              	.LBE35:
 1124              		.loc 1 364 7 is_stmt 1 discriminator 3 view .LVU364
 1125              	.LBE34:
 1126              		.loc 1 364 7 discriminator 3 view .LVU365
 365:Drivers/STM32WBxx_HAL_Driver/Src/stm32wbxx_ll_usb.c ****       /* Configure DISABLE status for the Endpoint*/
 366:Drivers/STM32WBxx_HAL_Driver/Src/stm32wbxx_ll_usb.c ****       PCD_SET_EP_TX_STATUS(USBx, ep->num, USB_EP_TX_DIS);
 1127              		.loc 1 366 7 discriminator 3 view .LVU366
 1128              	.LBB36:
 1129              		.loc 1 366 7 discriminator 3 view .LVU367
 1130              		.loc 1 366 7 discriminator 3 view .LVU368
 1131 0030 0A78     		ldrb	r2, [r1]	@ zero_extendqisi2
 1132 0032 30F82230 		ldrh	r3, [r0, r2, lsl #2]
 1133 0036 9BB2     		uxth	r3, r3
 1134 0038 23F4E043 		bic	r3, r3, #28672
 1135 003c 23F04003 		bic	r3, r3, #64
 1136              	.LVL117:
ARM GAS  /tmp/ccr3mP7A.s 			page 30


 1137              		.loc 1 366 7 discriminator 3 view .LVU369
 1138              		.loc 1 366 7 discriminator 3 view .LVU370
 1139              		.loc 1 366 7 discriminator 3 view .LVU371
 1140 0040 43F40043 		orr	r3, r3, #32768
 1141              	.LVL118:
 1142              		.loc 1 366 7 is_stmt 0 discriminator 3 view .LVU372
 1143 0044 43F08003 		orr	r3, r3, #128
 1144 0048 20F82230 		strh	r3, [r0, r2, lsl #2]	@ movhi
 1145              	.LBE36:
 1146              		.loc 1 366 7 is_stmt 1 discriminator 3 view .LVU373
 1147              	.L49:
 367:Drivers/STM32WBxx_HAL_Driver/Src/stm32wbxx_ll_usb.c ****     }
 368:Drivers/STM32WBxx_HAL_Driver/Src/stm32wbxx_ll_usb.c ****     else
 369:Drivers/STM32WBxx_HAL_Driver/Src/stm32wbxx_ll_usb.c ****     {
 370:Drivers/STM32WBxx_HAL_Driver/Src/stm32wbxx_ll_usb.c ****       PCD_CLEAR_RX_DTOG(USBx, ep->num);
 371:Drivers/STM32WBxx_HAL_Driver/Src/stm32wbxx_ll_usb.c ****       /* Configure DISABLE status for the Endpoint*/
 372:Drivers/STM32WBxx_HAL_Driver/Src/stm32wbxx_ll_usb.c ****       PCD_SET_EP_RX_STATUS(USBx, ep->num, USB_EP_RX_DIS);
 373:Drivers/STM32WBxx_HAL_Driver/Src/stm32wbxx_ll_usb.c ****     }
 374:Drivers/STM32WBxx_HAL_Driver/Src/stm32wbxx_ll_usb.c ****   }
 375:Drivers/STM32WBxx_HAL_Driver/Src/stm32wbxx_ll_usb.c ****   /*Double Buffer*/
 376:Drivers/STM32WBxx_HAL_Driver/Src/stm32wbxx_ll_usb.c ****   else
 377:Drivers/STM32WBxx_HAL_Driver/Src/stm32wbxx_ll_usb.c ****   {
 378:Drivers/STM32WBxx_HAL_Driver/Src/stm32wbxx_ll_usb.c ****     if (ep->is_in == 0U)
 379:Drivers/STM32WBxx_HAL_Driver/Src/stm32wbxx_ll_usb.c ****     {
 380:Drivers/STM32WBxx_HAL_Driver/Src/stm32wbxx_ll_usb.c ****       /* Clear the data toggle bits for the endpoint IN/OUT*/
 381:Drivers/STM32WBxx_HAL_Driver/Src/stm32wbxx_ll_usb.c ****       PCD_CLEAR_RX_DTOG(USBx, ep->num);
 382:Drivers/STM32WBxx_HAL_Driver/Src/stm32wbxx_ll_usb.c ****       PCD_CLEAR_TX_DTOG(USBx, ep->num);
 383:Drivers/STM32WBxx_HAL_Driver/Src/stm32wbxx_ll_usb.c **** 
 384:Drivers/STM32WBxx_HAL_Driver/Src/stm32wbxx_ll_usb.c ****       /* Reset value of the data toggle bits for the endpoint out*/
 385:Drivers/STM32WBxx_HAL_Driver/Src/stm32wbxx_ll_usb.c ****       PCD_TX_DTOG(USBx, ep->num);
 386:Drivers/STM32WBxx_HAL_Driver/Src/stm32wbxx_ll_usb.c **** 
 387:Drivers/STM32WBxx_HAL_Driver/Src/stm32wbxx_ll_usb.c ****       PCD_SET_EP_RX_STATUS(USBx, ep->num, USB_EP_RX_DIS);
 388:Drivers/STM32WBxx_HAL_Driver/Src/stm32wbxx_ll_usb.c ****       PCD_SET_EP_TX_STATUS(USBx, ep->num, USB_EP_TX_DIS);
 389:Drivers/STM32WBxx_HAL_Driver/Src/stm32wbxx_ll_usb.c ****     }
 390:Drivers/STM32WBxx_HAL_Driver/Src/stm32wbxx_ll_usb.c ****     else
 391:Drivers/STM32WBxx_HAL_Driver/Src/stm32wbxx_ll_usb.c ****     {
 392:Drivers/STM32WBxx_HAL_Driver/Src/stm32wbxx_ll_usb.c ****       /* Clear the data toggle bits for the endpoint IN/OUT*/
 393:Drivers/STM32WBxx_HAL_Driver/Src/stm32wbxx_ll_usb.c ****       PCD_CLEAR_RX_DTOG(USBx, ep->num);
 394:Drivers/STM32WBxx_HAL_Driver/Src/stm32wbxx_ll_usb.c ****       PCD_CLEAR_TX_DTOG(USBx, ep->num);
 395:Drivers/STM32WBxx_HAL_Driver/Src/stm32wbxx_ll_usb.c ****       PCD_RX_DTOG(USBx, ep->num);
 396:Drivers/STM32WBxx_HAL_Driver/Src/stm32wbxx_ll_usb.c ****       /* Configure DISABLE status for the Endpoint*/
 397:Drivers/STM32WBxx_HAL_Driver/Src/stm32wbxx_ll_usb.c ****       PCD_SET_EP_TX_STATUS(USBx, ep->num, USB_EP_TX_DIS);
 398:Drivers/STM32WBxx_HAL_Driver/Src/stm32wbxx_ll_usb.c ****       PCD_SET_EP_RX_STATUS(USBx, ep->num, USB_EP_RX_DIS);
 1148              		.loc 1 398 7 view .LVU374
 399:Drivers/STM32WBxx_HAL_Driver/Src/stm32wbxx_ll_usb.c ****     }
 400:Drivers/STM32WBxx_HAL_Driver/Src/stm32wbxx_ll_usb.c ****   }
 401:Drivers/STM32WBxx_HAL_Driver/Src/stm32wbxx_ll_usb.c **** 
 402:Drivers/STM32WBxx_HAL_Driver/Src/stm32wbxx_ll_usb.c ****   return HAL_OK;
 1149              		.loc 1 402 3 view .LVU375
 403:Drivers/STM32WBxx_HAL_Driver/Src/stm32wbxx_ll_usb.c **** }
 1150              		.loc 1 403 1 is_stmt 0 view .LVU376
 1151 004c 0020     		movs	r0, #0
 1152              	.LVL119:
 1153              		.loc 1 403 1 view .LVU377
 1154 004e 7047     		bx	lr
 1155              	.LVL120:
 1156              	.L39:
ARM GAS  /tmp/ccr3mP7A.s 			page 31


 370:Drivers/STM32WBxx_HAL_Driver/Src/stm32wbxx_ll_usb.c ****       /* Configure DISABLE status for the Endpoint*/
 1157              		.loc 1 370 7 is_stmt 1 view .LVU378
 1158              	.LBB37:
 370:Drivers/STM32WBxx_HAL_Driver/Src/stm32wbxx_ll_usb.c ****       /* Configure DISABLE status for the Endpoint*/
 1159              		.loc 1 370 7 view .LVU379
 370:Drivers/STM32WBxx_HAL_Driver/Src/stm32wbxx_ll_usb.c ****       /* Configure DISABLE status for the Endpoint*/
 1160              		.loc 1 370 7 view .LVU380
 1161 0050 0A78     		ldrb	r2, [r1]	@ zero_extendqisi2
 1162 0052 30F82230 		ldrh	r3, [r0, r2, lsl #2]
 1163              	.LVL121:
 370:Drivers/STM32WBxx_HAL_Driver/Src/stm32wbxx_ll_usb.c ****       /* Configure DISABLE status for the Endpoint*/
 1164              		.loc 1 370 7 view .LVU381
 1165 0056 13F4804F 		tst	r3, #16384
 1166 005a 0CD0     		beq	.L42
 370:Drivers/STM32WBxx_HAL_Driver/Src/stm32wbxx_ll_usb.c ****       /* Configure DISABLE status for the Endpoint*/
 1167              		.loc 1 370 7 discriminator 1 view .LVU382
 1168              	.LBB38:
 370:Drivers/STM32WBxx_HAL_Driver/Src/stm32wbxx_ll_usb.c ****       /* Configure DISABLE status for the Endpoint*/
 1169              		.loc 1 370 7 discriminator 1 view .LVU383
 370:Drivers/STM32WBxx_HAL_Driver/Src/stm32wbxx_ll_usb.c ****       /* Configure DISABLE status for the Endpoint*/
 1170              		.loc 1 370 7 discriminator 1 view .LVU384
 1171 005c 30F82230 		ldrh	r3, [r0, r2, lsl #2]
 1172              	.LVL122:
 370:Drivers/STM32WBxx_HAL_Driver/Src/stm32wbxx_ll_usb.c ****       /* Configure DISABLE status for the Endpoint*/
 1173              		.loc 1 370 7 is_stmt 0 discriminator 1 view .LVU385
 1174 0060 9BB2     		uxth	r3, r3
 1175 0062 23F4E043 		bic	r3, r3, #28672
 1176 0066 23F07003 		bic	r3, r3, #112
 1177              	.LVL123:
 370:Drivers/STM32WBxx_HAL_Driver/Src/stm32wbxx_ll_usb.c ****       /* Configure DISABLE status for the Endpoint*/
 1178              		.loc 1 370 7 is_stmt 1 discriminator 1 view .LVU386
 1179 006a 43F44043 		orr	r3, r3, #49152
 1180              	.LVL124:
 370:Drivers/STM32WBxx_HAL_Driver/Src/stm32wbxx_ll_usb.c ****       /* Configure DISABLE status for the Endpoint*/
 1181              		.loc 1 370 7 is_stmt 0 discriminator 1 view .LVU387
 1182 006e 43F08003 		orr	r3, r3, #128
 1183 0072 20F82230 		strh	r3, [r0, r2, lsl #2]	@ movhi
 1184              	.L42:
 370:Drivers/STM32WBxx_HAL_Driver/Src/stm32wbxx_ll_usb.c ****       /* Configure DISABLE status for the Endpoint*/
 1185              		.loc 1 370 7 discriminator 1 view .LVU388
 1186              	.LBE38:
 370:Drivers/STM32WBxx_HAL_Driver/Src/stm32wbxx_ll_usb.c ****       /* Configure DISABLE status for the Endpoint*/
 1187              		.loc 1 370 7 is_stmt 1 discriminator 3 view .LVU389
 1188              	.LBE37:
 370:Drivers/STM32WBxx_HAL_Driver/Src/stm32wbxx_ll_usb.c ****       /* Configure DISABLE status for the Endpoint*/
 1189              		.loc 1 370 7 discriminator 3 view .LVU390
 372:Drivers/STM32WBxx_HAL_Driver/Src/stm32wbxx_ll_usb.c ****     }
 1190              		.loc 1 372 7 discriminator 3 view .LVU391
 1191              	.LBB39:
 372:Drivers/STM32WBxx_HAL_Driver/Src/stm32wbxx_ll_usb.c ****     }
 1192              		.loc 1 372 7 discriminator 3 view .LVU392
 372:Drivers/STM32WBxx_HAL_Driver/Src/stm32wbxx_ll_usb.c ****     }
 1193              		.loc 1 372 7 discriminator 3 view .LVU393
 1194 0076 0A78     		ldrb	r2, [r1]	@ zero_extendqisi2
 1195 0078 30F82230 		ldrh	r3, [r0, r2, lsl #2]
 1196 007c 9BB2     		uxth	r3, r3
 1197 007e 23F48043 		bic	r3, r3, #16384
ARM GAS  /tmp/ccr3mP7A.s 			page 32


 1198 0082 23F07003 		bic	r3, r3, #112
 1199              	.LVL125:
 372:Drivers/STM32WBxx_HAL_Driver/Src/stm32wbxx_ll_usb.c ****     }
 1200              		.loc 1 372 7 discriminator 3 view .LVU394
 372:Drivers/STM32WBxx_HAL_Driver/Src/stm32wbxx_ll_usb.c ****     }
 1201              		.loc 1 372 7 discriminator 3 view .LVU395
 372:Drivers/STM32WBxx_HAL_Driver/Src/stm32wbxx_ll_usb.c ****     }
 1202              		.loc 1 372 7 discriminator 3 view .LVU396
 1203 0086 43F40043 		orr	r3, r3, #32768
 1204              	.LVL126:
 372:Drivers/STM32WBxx_HAL_Driver/Src/stm32wbxx_ll_usb.c ****     }
 1205              		.loc 1 372 7 is_stmt 0 discriminator 3 view .LVU397
 1206 008a 43F08003 		orr	r3, r3, #128
 1207 008e 20F82230 		strh	r3, [r0, r2, lsl #2]	@ movhi
 1208 0092 DBE7     		b	.L49
 1209              	.L38:
 372:Drivers/STM32WBxx_HAL_Driver/Src/stm32wbxx_ll_usb.c ****     }
 1210              		.loc 1 372 7 discriminator 3 view .LVU398
 1211              	.LBE39:
 359:Drivers/STM32WBxx_HAL_Driver/Src/stm32wbxx_ll_usb.c ****   if (ep->doublebuffer == 0U)
 1212              		.loc 1 359 1 view .LVU399
 1213 0094 10B4     		push	{r4}
 1214              	.LCFI9:
 1215              		.cfi_def_cfa_offset 4
 1216              		.cfi_offset 4, -4
 378:Drivers/STM32WBxx_HAL_Driver/Src/stm32wbxx_ll_usb.c ****     {
 1217              		.loc 1 378 5 is_stmt 1 view .LVU400
 378:Drivers/STM32WBxx_HAL_Driver/Src/stm32wbxx_ll_usb.c ****     {
 1218              		.loc 1 378 11 is_stmt 0 view .LVU401
 1219 0096 4B78     		ldrb	r3, [r1, #1]	@ zero_extendqisi2
 378:Drivers/STM32WBxx_HAL_Driver/Src/stm32wbxx_ll_usb.c ****     {
 1220              		.loc 1 378 8 view .LVU402
 1221 0098 002B     		cmp	r3, #0
 1222 009a 4FD1     		bne	.L43
 381:Drivers/STM32WBxx_HAL_Driver/Src/stm32wbxx_ll_usb.c ****       PCD_CLEAR_TX_DTOG(USBx, ep->num);
 1223              		.loc 1 381 7 is_stmt 1 view .LVU403
 1224              	.LBB40:
 381:Drivers/STM32WBxx_HAL_Driver/Src/stm32wbxx_ll_usb.c ****       PCD_CLEAR_TX_DTOG(USBx, ep->num);
 1225              		.loc 1 381 7 view .LVU404
 381:Drivers/STM32WBxx_HAL_Driver/Src/stm32wbxx_ll_usb.c ****       PCD_CLEAR_TX_DTOG(USBx, ep->num);
 1226              		.loc 1 381 7 view .LVU405
 1227 009c 0A78     		ldrb	r2, [r1]	@ zero_extendqisi2
 1228 009e 30F82230 		ldrh	r3, [r0, r2, lsl #2]
 1229              	.LVL127:
 381:Drivers/STM32WBxx_HAL_Driver/Src/stm32wbxx_ll_usb.c ****       PCD_CLEAR_TX_DTOG(USBx, ep->num);
 1230              		.loc 1 381 7 view .LVU406
 1231 00a2 13F4804F 		tst	r3, #16384
 1232 00a6 0CD0     		beq	.L44
 381:Drivers/STM32WBxx_HAL_Driver/Src/stm32wbxx_ll_usb.c ****       PCD_CLEAR_TX_DTOG(USBx, ep->num);
 1233              		.loc 1 381 7 discriminator 1 view .LVU407
 1234              	.LBB41:
 381:Drivers/STM32WBxx_HAL_Driver/Src/stm32wbxx_ll_usb.c ****       PCD_CLEAR_TX_DTOG(USBx, ep->num);
 1235              		.loc 1 381 7 discriminator 1 view .LVU408
 381:Drivers/STM32WBxx_HAL_Driver/Src/stm32wbxx_ll_usb.c ****       PCD_CLEAR_TX_DTOG(USBx, ep->num);
 1236              		.loc 1 381 7 discriminator 1 view .LVU409
 1237 00a8 30F82230 		ldrh	r3, [r0, r2, lsl #2]
 1238              	.LVL128:
ARM GAS  /tmp/ccr3mP7A.s 			page 33


 381:Drivers/STM32WBxx_HAL_Driver/Src/stm32wbxx_ll_usb.c ****       PCD_CLEAR_TX_DTOG(USBx, ep->num);
 1239              		.loc 1 381 7 is_stmt 0 discriminator 1 view .LVU410
 1240 00ac 9BB2     		uxth	r3, r3
 1241 00ae 23F4E043 		bic	r3, r3, #28672
 1242 00b2 23F07003 		bic	r3, r3, #112
 1243              	.LVL129:
 381:Drivers/STM32WBxx_HAL_Driver/Src/stm32wbxx_ll_usb.c ****       PCD_CLEAR_TX_DTOG(USBx, ep->num);
 1244              		.loc 1 381 7 is_stmt 1 discriminator 1 view .LVU411
 1245 00b6 43F44043 		orr	r3, r3, #49152
 1246              	.LVL130:
 381:Drivers/STM32WBxx_HAL_Driver/Src/stm32wbxx_ll_usb.c ****       PCD_CLEAR_TX_DTOG(USBx, ep->num);
 1247              		.loc 1 381 7 is_stmt 0 discriminator 1 view .LVU412
 1248 00ba 43F08003 		orr	r3, r3, #128
 1249 00be 20F82230 		strh	r3, [r0, r2, lsl #2]	@ movhi
 1250              	.L44:
 381:Drivers/STM32WBxx_HAL_Driver/Src/stm32wbxx_ll_usb.c ****       PCD_CLEAR_TX_DTOG(USBx, ep->num);
 1251              		.loc 1 381 7 discriminator 1 view .LVU413
 1252              	.LBE41:
 381:Drivers/STM32WBxx_HAL_Driver/Src/stm32wbxx_ll_usb.c ****       PCD_CLEAR_TX_DTOG(USBx, ep->num);
 1253              		.loc 1 381 7 is_stmt 1 discriminator 3 view .LVU414
 1254              	.LBE40:
 381:Drivers/STM32WBxx_HAL_Driver/Src/stm32wbxx_ll_usb.c ****       PCD_CLEAR_TX_DTOG(USBx, ep->num);
 1255              		.loc 1 381 7 discriminator 3 view .LVU415
 382:Drivers/STM32WBxx_HAL_Driver/Src/stm32wbxx_ll_usb.c **** 
 1256              		.loc 1 382 7 discriminator 3 view .LVU416
 1257              	.LBB42:
 382:Drivers/STM32WBxx_HAL_Driver/Src/stm32wbxx_ll_usb.c **** 
 1258              		.loc 1 382 7 discriminator 3 view .LVU417
 382:Drivers/STM32WBxx_HAL_Driver/Src/stm32wbxx_ll_usb.c **** 
 1259              		.loc 1 382 7 discriminator 3 view .LVU418
 1260 00c2 0A78     		ldrb	r2, [r1]	@ zero_extendqisi2
 1261 00c4 30F82230 		ldrh	r3, [r0, r2, lsl #2]
 1262              	.LVL131:
 382:Drivers/STM32WBxx_HAL_Driver/Src/stm32wbxx_ll_usb.c **** 
 1263              		.loc 1 382 7 discriminator 3 view .LVU419
 1264 00c8 13F0400F 		tst	r3, #64
 1265 00cc 0CD0     		beq	.L45
 382:Drivers/STM32WBxx_HAL_Driver/Src/stm32wbxx_ll_usb.c **** 
 1266              		.loc 1 382 7 discriminator 1 view .LVU420
 1267              	.LBB43:
 382:Drivers/STM32WBxx_HAL_Driver/Src/stm32wbxx_ll_usb.c **** 
 1268              		.loc 1 382 7 discriminator 1 view .LVU421
 382:Drivers/STM32WBxx_HAL_Driver/Src/stm32wbxx_ll_usb.c **** 
 1269              		.loc 1 382 7 discriminator 1 view .LVU422
 1270 00ce 30F82230 		ldrh	r3, [r0, r2, lsl #2]
 1271              	.LVL132:
 382:Drivers/STM32WBxx_HAL_Driver/Src/stm32wbxx_ll_usb.c **** 
 1272              		.loc 1 382 7 is_stmt 0 discriminator 1 view .LVU423
 1273 00d2 9BB2     		uxth	r3, r3
 1274 00d4 23F4E043 		bic	r3, r3, #28672
 1275 00d8 23F07003 		bic	r3, r3, #112
 1276              	.LVL133:
 382:Drivers/STM32WBxx_HAL_Driver/Src/stm32wbxx_ll_usb.c **** 
 1277              		.loc 1 382 7 is_stmt 1 discriminator 1 view .LVU424
 1278 00dc 43F40043 		orr	r3, r3, #32768
 1279              	.LVL134:
 382:Drivers/STM32WBxx_HAL_Driver/Src/stm32wbxx_ll_usb.c **** 
ARM GAS  /tmp/ccr3mP7A.s 			page 34


 1280              		.loc 1 382 7 is_stmt 0 discriminator 1 view .LVU425
 1281 00e0 43F0C003 		orr	r3, r3, #192
 1282 00e4 20F82230 		strh	r3, [r0, r2, lsl #2]	@ movhi
 1283              	.L45:
 382:Drivers/STM32WBxx_HAL_Driver/Src/stm32wbxx_ll_usb.c **** 
 1284              		.loc 1 382 7 discriminator 1 view .LVU426
 1285              	.LBE43:
 382:Drivers/STM32WBxx_HAL_Driver/Src/stm32wbxx_ll_usb.c **** 
 1286              		.loc 1 382 7 is_stmt 1 discriminator 3 view .LVU427
 1287              	.LBE42:
 382:Drivers/STM32WBxx_HAL_Driver/Src/stm32wbxx_ll_usb.c **** 
 1288              		.loc 1 382 7 discriminator 3 view .LVU428
 385:Drivers/STM32WBxx_HAL_Driver/Src/stm32wbxx_ll_usb.c **** 
 1289              		.loc 1 385 7 discriminator 3 view .LVU429
 1290              	.LBB44:
 385:Drivers/STM32WBxx_HAL_Driver/Src/stm32wbxx_ll_usb.c **** 
 1291              		.loc 1 385 7 discriminator 3 view .LVU430
 385:Drivers/STM32WBxx_HAL_Driver/Src/stm32wbxx_ll_usb.c **** 
 1292              		.loc 1 385 7 discriminator 3 view .LVU431
 1293 00e8 0A78     		ldrb	r2, [r1]	@ zero_extendqisi2
 1294 00ea 30F82230 		ldrh	r3, [r0, r2, lsl #2]
 1295 00ee 9BB2     		uxth	r3, r3
 1296 00f0 23F4E043 		bic	r3, r3, #28672
 1297 00f4 23F07003 		bic	r3, r3, #112
 1298              	.LVL135:
 385:Drivers/STM32WBxx_HAL_Driver/Src/stm32wbxx_ll_usb.c **** 
 1299              		.loc 1 385 7 discriminator 3 view .LVU432
 1300 00f8 43F40043 		orr	r3, r3, #32768
 1301              	.LVL136:
 385:Drivers/STM32WBxx_HAL_Driver/Src/stm32wbxx_ll_usb.c **** 
 1302              		.loc 1 385 7 is_stmt 0 discriminator 3 view .LVU433
 1303 00fc 43F0C003 		orr	r3, r3, #192
 1304 0100 20F82230 		strh	r3, [r0, r2, lsl #2]	@ movhi
 1305              	.LBE44:
 385:Drivers/STM32WBxx_HAL_Driver/Src/stm32wbxx_ll_usb.c **** 
 1306              		.loc 1 385 7 is_stmt 1 discriminator 3 view .LVU434
 387:Drivers/STM32WBxx_HAL_Driver/Src/stm32wbxx_ll_usb.c ****       PCD_SET_EP_TX_STATUS(USBx, ep->num, USB_EP_TX_DIS);
 1307              		.loc 1 387 7 discriminator 3 view .LVU435
 1308              	.LBB45:
 387:Drivers/STM32WBxx_HAL_Driver/Src/stm32wbxx_ll_usb.c ****       PCD_SET_EP_TX_STATUS(USBx, ep->num, USB_EP_TX_DIS);
 1309              		.loc 1 387 7 discriminator 3 view .LVU436
 387:Drivers/STM32WBxx_HAL_Driver/Src/stm32wbxx_ll_usb.c ****       PCD_SET_EP_TX_STATUS(USBx, ep->num, USB_EP_TX_DIS);
 1310              		.loc 1 387 7 discriminator 3 view .LVU437
 1311 0104 0B78     		ldrb	r3, [r1]	@ zero_extendqisi2
 1312 0106 30F82320 		ldrh	r2, [r0, r3, lsl #2]
 1313 010a 92B2     		uxth	r2, r2
 1314 010c 22F48042 		bic	r2, r2, #16384
 1315 0110 22F07002 		bic	r2, r2, #112
 1316              	.LVL137:
 387:Drivers/STM32WBxx_HAL_Driver/Src/stm32wbxx_ll_usb.c ****       PCD_SET_EP_TX_STATUS(USBx, ep->num, USB_EP_TX_DIS);
 1317              		.loc 1 387 7 discriminator 3 view .LVU438
 387:Drivers/STM32WBxx_HAL_Driver/Src/stm32wbxx_ll_usb.c ****       PCD_SET_EP_TX_STATUS(USBx, ep->num, USB_EP_TX_DIS);
 1318              		.loc 1 387 7 discriminator 3 view .LVU439
 387:Drivers/STM32WBxx_HAL_Driver/Src/stm32wbxx_ll_usb.c ****       PCD_SET_EP_TX_STATUS(USBx, ep->num, USB_EP_TX_DIS);
 1319              		.loc 1 387 7 discriminator 3 view .LVU440
 1320 0114 48F28004 		movw	r4, #32896
 1321 0118 2243     		orrs	r2, r2, r4
ARM GAS  /tmp/ccr3mP7A.s 			page 35


 1322              	.LVL138:
 387:Drivers/STM32WBxx_HAL_Driver/Src/stm32wbxx_ll_usb.c ****       PCD_SET_EP_TX_STATUS(USBx, ep->num, USB_EP_TX_DIS);
 1323              		.loc 1 387 7 is_stmt 0 discriminator 3 view .LVU441
 1324 011a 20F82320 		strh	r2, [r0, r3, lsl #2]	@ movhi
 1325              	.LBE45:
 387:Drivers/STM32WBxx_HAL_Driver/Src/stm32wbxx_ll_usb.c ****       PCD_SET_EP_TX_STATUS(USBx, ep->num, USB_EP_TX_DIS);
 1326              		.loc 1 387 7 is_stmt 1 discriminator 3 view .LVU442
 388:Drivers/STM32WBxx_HAL_Driver/Src/stm32wbxx_ll_usb.c ****     }
 1327              		.loc 1 388 7 discriminator 3 view .LVU443
 1328              	.LBB46:
 388:Drivers/STM32WBxx_HAL_Driver/Src/stm32wbxx_ll_usb.c ****     }
 1329              		.loc 1 388 7 discriminator 3 view .LVU444
 388:Drivers/STM32WBxx_HAL_Driver/Src/stm32wbxx_ll_usb.c ****     }
 1330              		.loc 1 388 7 discriminator 3 view .LVU445
 1331 011e 0A78     		ldrb	r2, [r1]	@ zero_extendqisi2
 1332 0120 30F82230 		ldrh	r3, [r0, r2, lsl #2]
 1333 0124 9BB2     		uxth	r3, r3
 1334 0126 23F4E043 		bic	r3, r3, #28672
 1335 012a 23F04003 		bic	r3, r3, #64
 1336              	.LVL139:
 388:Drivers/STM32WBxx_HAL_Driver/Src/stm32wbxx_ll_usb.c ****     }
 1337              		.loc 1 388 7 discriminator 3 view .LVU446
 388:Drivers/STM32WBxx_HAL_Driver/Src/stm32wbxx_ll_usb.c ****     }
 1338              		.loc 1 388 7 discriminator 3 view .LVU447
 388:Drivers/STM32WBxx_HAL_Driver/Src/stm32wbxx_ll_usb.c ****     }
 1339              		.loc 1 388 7 discriminator 3 view .LVU448
 1340 012e 2343     		orrs	r3, r3, r4
 1341              	.LVL140:
 388:Drivers/STM32WBxx_HAL_Driver/Src/stm32wbxx_ll_usb.c ****     }
 1342              		.loc 1 388 7 is_stmt 0 discriminator 3 view .LVU449
 1343 0130 20F82230 		strh	r3, [r0, r2, lsl #2]	@ movhi
 1344              	.LBE46:
 388:Drivers/STM32WBxx_HAL_Driver/Src/stm32wbxx_ll_usb.c ****     }
 1345              		.loc 1 388 7 is_stmt 1 discriminator 3 view .LVU450
 1346              	.L41:
 398:Drivers/STM32WBxx_HAL_Driver/Src/stm32wbxx_ll_usb.c ****     }
 1347              		.loc 1 398 7 discriminator 7 view .LVU451
 402:Drivers/STM32WBxx_HAL_Driver/Src/stm32wbxx_ll_usb.c **** }
 1348              		.loc 1 402 3 discriminator 7 view .LVU452
 1349              		.loc 1 403 1 is_stmt 0 discriminator 7 view .LVU453
 1350 0134 0020     		movs	r0, #0
 1351              	.LVL141:
 1352              		.loc 1 403 1 discriminator 7 view .LVU454
 1353 0136 5DF8044B 		ldr	r4, [sp], #4
 1354              	.LCFI10:
 1355              		.cfi_remember_state
 1356              		.cfi_restore 4
 1357              		.cfi_def_cfa_offset 0
 1358 013a 7047     		bx	lr
 1359              	.LVL142:
 1360              	.L43:
 1361              	.LCFI11:
 1362              		.cfi_restore_state
 393:Drivers/STM32WBxx_HAL_Driver/Src/stm32wbxx_ll_usb.c ****       PCD_CLEAR_TX_DTOG(USBx, ep->num);
 1363              		.loc 1 393 7 is_stmt 1 view .LVU455
 1364              	.LBB47:
 393:Drivers/STM32WBxx_HAL_Driver/Src/stm32wbxx_ll_usb.c ****       PCD_CLEAR_TX_DTOG(USBx, ep->num);
ARM GAS  /tmp/ccr3mP7A.s 			page 36


 1365              		.loc 1 393 7 view .LVU456
 393:Drivers/STM32WBxx_HAL_Driver/Src/stm32wbxx_ll_usb.c ****       PCD_CLEAR_TX_DTOG(USBx, ep->num);
 1366              		.loc 1 393 7 view .LVU457
 1367 013c 0A78     		ldrb	r2, [r1]	@ zero_extendqisi2
 1368 013e 30F82230 		ldrh	r3, [r0, r2, lsl #2]
 1369              	.LVL143:
 393:Drivers/STM32WBxx_HAL_Driver/Src/stm32wbxx_ll_usb.c ****       PCD_CLEAR_TX_DTOG(USBx, ep->num);
 1370              		.loc 1 393 7 view .LVU458
 1371 0142 13F4804F 		tst	r3, #16384
 1372 0146 0CD0     		beq	.L46
 393:Drivers/STM32WBxx_HAL_Driver/Src/stm32wbxx_ll_usb.c ****       PCD_CLEAR_TX_DTOG(USBx, ep->num);
 1373              		.loc 1 393 7 discriminator 1 view .LVU459
 1374              	.LBB48:
 393:Drivers/STM32WBxx_HAL_Driver/Src/stm32wbxx_ll_usb.c ****       PCD_CLEAR_TX_DTOG(USBx, ep->num);
 1375              		.loc 1 393 7 discriminator 1 view .LVU460
 393:Drivers/STM32WBxx_HAL_Driver/Src/stm32wbxx_ll_usb.c ****       PCD_CLEAR_TX_DTOG(USBx, ep->num);
 1376              		.loc 1 393 7 discriminator 1 view .LVU461
 1377 0148 30F82230 		ldrh	r3, [r0, r2, lsl #2]
 1378              	.LVL144:
 393:Drivers/STM32WBxx_HAL_Driver/Src/stm32wbxx_ll_usb.c ****       PCD_CLEAR_TX_DTOG(USBx, ep->num);
 1379              		.loc 1 393 7 is_stmt 0 discriminator 1 view .LVU462
 1380 014c 9BB2     		uxth	r3, r3
 1381 014e 23F4E043 		bic	r3, r3, #28672
 1382 0152 23F07003 		bic	r3, r3, #112
 1383              	.LVL145:
 393:Drivers/STM32WBxx_HAL_Driver/Src/stm32wbxx_ll_usb.c ****       PCD_CLEAR_TX_DTOG(USBx, ep->num);
 1384              		.loc 1 393 7 is_stmt 1 discriminator 1 view .LVU463
 1385 0156 43F44043 		orr	r3, r3, #49152
 1386              	.LVL146:
 393:Drivers/STM32WBxx_HAL_Driver/Src/stm32wbxx_ll_usb.c ****       PCD_CLEAR_TX_DTOG(USBx, ep->num);
 1387              		.loc 1 393 7 is_stmt 0 discriminator 1 view .LVU464
 1388 015a 43F08003 		orr	r3, r3, #128
 1389 015e 20F82230 		strh	r3, [r0, r2, lsl #2]	@ movhi
 1390              	.L46:
 393:Drivers/STM32WBxx_HAL_Driver/Src/stm32wbxx_ll_usb.c ****       PCD_CLEAR_TX_DTOG(USBx, ep->num);
 1391              		.loc 1 393 7 discriminator 1 view .LVU465
 1392              	.LBE48:
 393:Drivers/STM32WBxx_HAL_Driver/Src/stm32wbxx_ll_usb.c ****       PCD_CLEAR_TX_DTOG(USBx, ep->num);
 1393              		.loc 1 393 7 is_stmt 1 discriminator 3 view .LVU466
 1394              	.LBE47:
 393:Drivers/STM32WBxx_HAL_Driver/Src/stm32wbxx_ll_usb.c ****       PCD_CLEAR_TX_DTOG(USBx, ep->num);
 1395              		.loc 1 393 7 discriminator 3 view .LVU467
 394:Drivers/STM32WBxx_HAL_Driver/Src/stm32wbxx_ll_usb.c ****       PCD_RX_DTOG(USBx, ep->num);
 1396              		.loc 1 394 7 discriminator 3 view .LVU468
 1397              	.LBB49:
 394:Drivers/STM32WBxx_HAL_Driver/Src/stm32wbxx_ll_usb.c ****       PCD_RX_DTOG(USBx, ep->num);
 1398              		.loc 1 394 7 discriminator 3 view .LVU469
 394:Drivers/STM32WBxx_HAL_Driver/Src/stm32wbxx_ll_usb.c ****       PCD_RX_DTOG(USBx, ep->num);
 1399              		.loc 1 394 7 discriminator 3 view .LVU470
 1400 0162 0A78     		ldrb	r2, [r1]	@ zero_extendqisi2
 1401 0164 30F82230 		ldrh	r3, [r0, r2, lsl #2]
 1402              	.LVL147:
 394:Drivers/STM32WBxx_HAL_Driver/Src/stm32wbxx_ll_usb.c ****       PCD_RX_DTOG(USBx, ep->num);
 1403              		.loc 1 394 7 discriminator 3 view .LVU471
 1404 0168 13F0400F 		tst	r3, #64
 1405 016c 0CD0     		beq	.L47
 394:Drivers/STM32WBxx_HAL_Driver/Src/stm32wbxx_ll_usb.c ****       PCD_RX_DTOG(USBx, ep->num);
ARM GAS  /tmp/ccr3mP7A.s 			page 37


 1406              		.loc 1 394 7 discriminator 1 view .LVU472
 1407              	.LBB50:
 394:Drivers/STM32WBxx_HAL_Driver/Src/stm32wbxx_ll_usb.c ****       PCD_RX_DTOG(USBx, ep->num);
 1408              		.loc 1 394 7 discriminator 1 view .LVU473
 394:Drivers/STM32WBxx_HAL_Driver/Src/stm32wbxx_ll_usb.c ****       PCD_RX_DTOG(USBx, ep->num);
 1409              		.loc 1 394 7 discriminator 1 view .LVU474
 1410 016e 30F82230 		ldrh	r3, [r0, r2, lsl #2]
 1411              	.LVL148:
 394:Drivers/STM32WBxx_HAL_Driver/Src/stm32wbxx_ll_usb.c ****       PCD_RX_DTOG(USBx, ep->num);
 1412              		.loc 1 394 7 is_stmt 0 discriminator 1 view .LVU475
 1413 0172 9BB2     		uxth	r3, r3
 1414 0174 23F4E043 		bic	r3, r3, #28672
 1415 0178 23F07003 		bic	r3, r3, #112
 1416              	.LVL149:
 394:Drivers/STM32WBxx_HAL_Driver/Src/stm32wbxx_ll_usb.c ****       PCD_RX_DTOG(USBx, ep->num);
 1417              		.loc 1 394 7 is_stmt 1 discriminator 1 view .LVU476
 1418 017c 43F40043 		orr	r3, r3, #32768
 1419              	.LVL150:
 394:Drivers/STM32WBxx_HAL_Driver/Src/stm32wbxx_ll_usb.c ****       PCD_RX_DTOG(USBx, ep->num);
 1420              		.loc 1 394 7 is_stmt 0 discriminator 1 view .LVU477
 1421 0180 43F0C003 		orr	r3, r3, #192
 1422 0184 20F82230 		strh	r3, [r0, r2, lsl #2]	@ movhi
 1423              	.L47:
 394:Drivers/STM32WBxx_HAL_Driver/Src/stm32wbxx_ll_usb.c ****       PCD_RX_DTOG(USBx, ep->num);
 1424              		.loc 1 394 7 discriminator 1 view .LVU478
 1425              	.LBE50:
 394:Drivers/STM32WBxx_HAL_Driver/Src/stm32wbxx_ll_usb.c ****       PCD_RX_DTOG(USBx, ep->num);
 1426              		.loc 1 394 7 is_stmt 1 discriminator 3 view .LVU479
 1427              	.LBE49:
 394:Drivers/STM32WBxx_HAL_Driver/Src/stm32wbxx_ll_usb.c ****       PCD_RX_DTOG(USBx, ep->num);
 1428              		.loc 1 394 7 discriminator 3 view .LVU480
 395:Drivers/STM32WBxx_HAL_Driver/Src/stm32wbxx_ll_usb.c ****       /* Configure DISABLE status for the Endpoint*/
 1429              		.loc 1 395 7 discriminator 3 view .LVU481
 1430              	.LBB51:
 395:Drivers/STM32WBxx_HAL_Driver/Src/stm32wbxx_ll_usb.c ****       /* Configure DISABLE status for the Endpoint*/
 1431              		.loc 1 395 7 discriminator 3 view .LVU482
 395:Drivers/STM32WBxx_HAL_Driver/Src/stm32wbxx_ll_usb.c ****       /* Configure DISABLE status for the Endpoint*/
 1432              		.loc 1 395 7 discriminator 3 view .LVU483
 1433 0188 0A78     		ldrb	r2, [r1]	@ zero_extendqisi2
 1434 018a 30F82230 		ldrh	r3, [r0, r2, lsl #2]
 1435 018e 9BB2     		uxth	r3, r3
 1436 0190 23F4E043 		bic	r3, r3, #28672
 1437 0194 23F07003 		bic	r3, r3, #112
 1438              	.LVL151:
 395:Drivers/STM32WBxx_HAL_Driver/Src/stm32wbxx_ll_usb.c ****       /* Configure DISABLE status for the Endpoint*/
 1439              		.loc 1 395 7 discriminator 3 view .LVU484
 1440 0198 43F44043 		orr	r3, r3, #49152
 1441              	.LVL152:
 395:Drivers/STM32WBxx_HAL_Driver/Src/stm32wbxx_ll_usb.c ****       /* Configure DISABLE status for the Endpoint*/
 1442              		.loc 1 395 7 is_stmt 0 discriminator 3 view .LVU485
 1443 019c 43F08003 		orr	r3, r3, #128
 1444 01a0 20F82230 		strh	r3, [r0, r2, lsl #2]	@ movhi
 1445              	.LBE51:
 395:Drivers/STM32WBxx_HAL_Driver/Src/stm32wbxx_ll_usb.c ****       /* Configure DISABLE status for the Endpoint*/
 1446              		.loc 1 395 7 is_stmt 1 discriminator 3 view .LVU486
 397:Drivers/STM32WBxx_HAL_Driver/Src/stm32wbxx_ll_usb.c ****       PCD_SET_EP_RX_STATUS(USBx, ep->num, USB_EP_RX_DIS);
 1447              		.loc 1 397 7 discriminator 3 view .LVU487
ARM GAS  /tmp/ccr3mP7A.s 			page 38


 1448              	.LBB52:
 397:Drivers/STM32WBxx_HAL_Driver/Src/stm32wbxx_ll_usb.c ****       PCD_SET_EP_RX_STATUS(USBx, ep->num, USB_EP_RX_DIS);
 1449              		.loc 1 397 7 discriminator 3 view .LVU488
 397:Drivers/STM32WBxx_HAL_Driver/Src/stm32wbxx_ll_usb.c ****       PCD_SET_EP_RX_STATUS(USBx, ep->num, USB_EP_RX_DIS);
 1450              		.loc 1 397 7 discriminator 3 view .LVU489
 1451 01a4 0B78     		ldrb	r3, [r1]	@ zero_extendqisi2
 1452 01a6 30F82320 		ldrh	r2, [r0, r3, lsl #2]
 1453 01aa 92B2     		uxth	r2, r2
 1454 01ac 22F4E042 		bic	r2, r2, #28672
 1455 01b0 22F04002 		bic	r2, r2, #64
 1456              	.LVL153:
 397:Drivers/STM32WBxx_HAL_Driver/Src/stm32wbxx_ll_usb.c ****       PCD_SET_EP_RX_STATUS(USBx, ep->num, USB_EP_RX_DIS);
 1457              		.loc 1 397 7 discriminator 3 view .LVU490
 397:Drivers/STM32WBxx_HAL_Driver/Src/stm32wbxx_ll_usb.c ****       PCD_SET_EP_RX_STATUS(USBx, ep->num, USB_EP_RX_DIS);
 1458              		.loc 1 397 7 discriminator 3 view .LVU491
 397:Drivers/STM32WBxx_HAL_Driver/Src/stm32wbxx_ll_usb.c ****       PCD_SET_EP_RX_STATUS(USBx, ep->num, USB_EP_RX_DIS);
 1459              		.loc 1 397 7 discriminator 3 view .LVU492
 1460 01b4 48F28004 		movw	r4, #32896
 1461 01b8 2243     		orrs	r2, r2, r4
 1462              	.LVL154:
 397:Drivers/STM32WBxx_HAL_Driver/Src/stm32wbxx_ll_usb.c ****       PCD_SET_EP_RX_STATUS(USBx, ep->num, USB_EP_RX_DIS);
 1463              		.loc 1 397 7 is_stmt 0 discriminator 3 view .LVU493
 1464 01ba 20F82320 		strh	r2, [r0, r3, lsl #2]	@ movhi
 1465              	.LBE52:
 397:Drivers/STM32WBxx_HAL_Driver/Src/stm32wbxx_ll_usb.c ****       PCD_SET_EP_RX_STATUS(USBx, ep->num, USB_EP_RX_DIS);
 1466              		.loc 1 397 7 is_stmt 1 discriminator 3 view .LVU494
 398:Drivers/STM32WBxx_HAL_Driver/Src/stm32wbxx_ll_usb.c ****     }
 1467              		.loc 1 398 7 discriminator 3 view .LVU495
 1468              	.LBB53:
 398:Drivers/STM32WBxx_HAL_Driver/Src/stm32wbxx_ll_usb.c ****     }
 1469              		.loc 1 398 7 discriminator 3 view .LVU496
 398:Drivers/STM32WBxx_HAL_Driver/Src/stm32wbxx_ll_usb.c ****     }
 1470              		.loc 1 398 7 discriminator 3 view .LVU497
 1471 01be 0A78     		ldrb	r2, [r1]	@ zero_extendqisi2
 1472 01c0 30F82230 		ldrh	r3, [r0, r2, lsl #2]
 1473 01c4 9BB2     		uxth	r3, r3
 1474 01c6 23F48043 		bic	r3, r3, #16384
 1475 01ca 23F07003 		bic	r3, r3, #112
 1476              	.LVL155:
 398:Drivers/STM32WBxx_HAL_Driver/Src/stm32wbxx_ll_usb.c ****     }
 1477              		.loc 1 398 7 discriminator 3 view .LVU498
 398:Drivers/STM32WBxx_HAL_Driver/Src/stm32wbxx_ll_usb.c ****     }
 1478              		.loc 1 398 7 discriminator 3 view .LVU499
 398:Drivers/STM32WBxx_HAL_Driver/Src/stm32wbxx_ll_usb.c ****     }
 1479              		.loc 1 398 7 discriminator 3 view .LVU500
 1480 01ce 2343     		orrs	r3, r3, r4
 1481              	.LVL156:
 398:Drivers/STM32WBxx_HAL_Driver/Src/stm32wbxx_ll_usb.c ****     }
 1482              		.loc 1 398 7 is_stmt 0 discriminator 3 view .LVU501
 1483 01d0 20F82230 		strh	r3, [r0, r2, lsl #2]	@ movhi
 1484 01d4 AEE7     		b	.L41
 1485              	.LBE53:
 1486              		.cfi_endproc
 1487              	.LFE950:
 1489              		.section	.text.USB_WritePacket,"ax",%progbits
 1490              		.align	1
 1491              		.global	USB_WritePacket
ARM GAS  /tmp/ccr3mP7A.s 			page 39


 1492              		.syntax unified
 1493              		.thumb
 1494              		.thumb_func
 1495              		.fpu fpv4-sp-d16
 1497              	USB_WritePacket:
 1498              	.LVL157:
 1499              	.LFB952:
 404:Drivers/STM32WBxx_HAL_Driver/Src/stm32wbxx_ll_usb.c **** 
 405:Drivers/STM32WBxx_HAL_Driver/Src/stm32wbxx_ll_usb.c **** /**
 406:Drivers/STM32WBxx_HAL_Driver/Src/stm32wbxx_ll_usb.c ****   * @brief  USB_EPStartXfer : setup and starts a transfer over an EP
 407:Drivers/STM32WBxx_HAL_Driver/Src/stm32wbxx_ll_usb.c ****   * @param  USBx : Selected device
 408:Drivers/STM32WBxx_HAL_Driver/Src/stm32wbxx_ll_usb.c ****   * @param  ep: pointer to endpoint structure
 409:Drivers/STM32WBxx_HAL_Driver/Src/stm32wbxx_ll_usb.c ****   * @retval HAL status
 410:Drivers/STM32WBxx_HAL_Driver/Src/stm32wbxx_ll_usb.c ****   */
 411:Drivers/STM32WBxx_HAL_Driver/Src/stm32wbxx_ll_usb.c **** HAL_StatusTypeDef USB_EPStartXfer(USB_TypeDef *USBx, USB_EPTypeDef *ep)
 412:Drivers/STM32WBxx_HAL_Driver/Src/stm32wbxx_ll_usb.c **** {
 413:Drivers/STM32WBxx_HAL_Driver/Src/stm32wbxx_ll_usb.c ****   uint16_t pmabuffer;
 414:Drivers/STM32WBxx_HAL_Driver/Src/stm32wbxx_ll_usb.c ****   uint32_t len;
 415:Drivers/STM32WBxx_HAL_Driver/Src/stm32wbxx_ll_usb.c **** 
 416:Drivers/STM32WBxx_HAL_Driver/Src/stm32wbxx_ll_usb.c ****   /* IN endpoint */
 417:Drivers/STM32WBxx_HAL_Driver/Src/stm32wbxx_ll_usb.c ****   if (ep->is_in == 1U)
 418:Drivers/STM32WBxx_HAL_Driver/Src/stm32wbxx_ll_usb.c ****   {
 419:Drivers/STM32WBxx_HAL_Driver/Src/stm32wbxx_ll_usb.c ****     /*Multi packet transfer*/
 420:Drivers/STM32WBxx_HAL_Driver/Src/stm32wbxx_ll_usb.c ****     if (ep->xfer_len > ep->maxpacket)
 421:Drivers/STM32WBxx_HAL_Driver/Src/stm32wbxx_ll_usb.c ****     {
 422:Drivers/STM32WBxx_HAL_Driver/Src/stm32wbxx_ll_usb.c ****       len = ep->maxpacket;
 423:Drivers/STM32WBxx_HAL_Driver/Src/stm32wbxx_ll_usb.c ****       ep->xfer_len -= len;
 424:Drivers/STM32WBxx_HAL_Driver/Src/stm32wbxx_ll_usb.c ****     }
 425:Drivers/STM32WBxx_HAL_Driver/Src/stm32wbxx_ll_usb.c ****     else
 426:Drivers/STM32WBxx_HAL_Driver/Src/stm32wbxx_ll_usb.c ****     {
 427:Drivers/STM32WBxx_HAL_Driver/Src/stm32wbxx_ll_usb.c ****       len = ep->xfer_len;
 428:Drivers/STM32WBxx_HAL_Driver/Src/stm32wbxx_ll_usb.c ****       ep->xfer_len = 0U;
 429:Drivers/STM32WBxx_HAL_Driver/Src/stm32wbxx_ll_usb.c ****     }
 430:Drivers/STM32WBxx_HAL_Driver/Src/stm32wbxx_ll_usb.c **** 
 431:Drivers/STM32WBxx_HAL_Driver/Src/stm32wbxx_ll_usb.c ****     /* configure and validate Tx endpoint */
 432:Drivers/STM32WBxx_HAL_Driver/Src/stm32wbxx_ll_usb.c ****     if (ep->doublebuffer == 0U)
 433:Drivers/STM32WBxx_HAL_Driver/Src/stm32wbxx_ll_usb.c ****     {
 434:Drivers/STM32WBxx_HAL_Driver/Src/stm32wbxx_ll_usb.c ****       USB_WritePMA(USBx, ep->xfer_buff, ep->pmaadress, (uint16_t)len);
 435:Drivers/STM32WBxx_HAL_Driver/Src/stm32wbxx_ll_usb.c ****       PCD_SET_EP_TX_CNT(USBx, ep->num, len);
 436:Drivers/STM32WBxx_HAL_Driver/Src/stm32wbxx_ll_usb.c ****     }
 437:Drivers/STM32WBxx_HAL_Driver/Src/stm32wbxx_ll_usb.c ****     else
 438:Drivers/STM32WBxx_HAL_Driver/Src/stm32wbxx_ll_usb.c ****     {
 439:Drivers/STM32WBxx_HAL_Driver/Src/stm32wbxx_ll_usb.c ****       /* Write the data to the USB endpoint */
 440:Drivers/STM32WBxx_HAL_Driver/Src/stm32wbxx_ll_usb.c ****       if ((PCD_GET_ENDPOINT(USBx, ep->num) & USB_EP_DTOG_TX) != 0U)
 441:Drivers/STM32WBxx_HAL_Driver/Src/stm32wbxx_ll_usb.c ****       {
 442:Drivers/STM32WBxx_HAL_Driver/Src/stm32wbxx_ll_usb.c ****         /* Set the Double buffer counter for pmabuffer1 */
 443:Drivers/STM32WBxx_HAL_Driver/Src/stm32wbxx_ll_usb.c ****         PCD_SET_EP_DBUF1_CNT(USBx, ep->num, ep->is_in, len);
 444:Drivers/STM32WBxx_HAL_Driver/Src/stm32wbxx_ll_usb.c ****         pmabuffer = ep->pmaaddr1;
 445:Drivers/STM32WBxx_HAL_Driver/Src/stm32wbxx_ll_usb.c ****       }
 446:Drivers/STM32WBxx_HAL_Driver/Src/stm32wbxx_ll_usb.c ****       else
 447:Drivers/STM32WBxx_HAL_Driver/Src/stm32wbxx_ll_usb.c ****       {
 448:Drivers/STM32WBxx_HAL_Driver/Src/stm32wbxx_ll_usb.c ****         /* Set the Double buffer counter for pmabuffer0 */
 449:Drivers/STM32WBxx_HAL_Driver/Src/stm32wbxx_ll_usb.c ****         PCD_SET_EP_DBUF0_CNT(USBx, ep->num, ep->is_in, len);
 450:Drivers/STM32WBxx_HAL_Driver/Src/stm32wbxx_ll_usb.c ****         pmabuffer = ep->pmaaddr0;
 451:Drivers/STM32WBxx_HAL_Driver/Src/stm32wbxx_ll_usb.c ****       }
 452:Drivers/STM32WBxx_HAL_Driver/Src/stm32wbxx_ll_usb.c ****       USB_WritePMA(USBx, ep->xfer_buff, pmabuffer, (uint16_t)len);
 453:Drivers/STM32WBxx_HAL_Driver/Src/stm32wbxx_ll_usb.c ****       PCD_FreeUserBuffer(USBx, ep->num, ep->is_in);
ARM GAS  /tmp/ccr3mP7A.s 			page 40


 454:Drivers/STM32WBxx_HAL_Driver/Src/stm32wbxx_ll_usb.c ****     }
 455:Drivers/STM32WBxx_HAL_Driver/Src/stm32wbxx_ll_usb.c **** 
 456:Drivers/STM32WBxx_HAL_Driver/Src/stm32wbxx_ll_usb.c ****     PCD_SET_EP_TX_STATUS(USBx, ep->num, USB_EP_TX_VALID);
 457:Drivers/STM32WBxx_HAL_Driver/Src/stm32wbxx_ll_usb.c ****   }
 458:Drivers/STM32WBxx_HAL_Driver/Src/stm32wbxx_ll_usb.c ****   else /* OUT endpoint */
 459:Drivers/STM32WBxx_HAL_Driver/Src/stm32wbxx_ll_usb.c ****   {
 460:Drivers/STM32WBxx_HAL_Driver/Src/stm32wbxx_ll_usb.c ****     /* Multi packet transfer*/
 461:Drivers/STM32WBxx_HAL_Driver/Src/stm32wbxx_ll_usb.c ****     if (ep->xfer_len > ep->maxpacket)
 462:Drivers/STM32WBxx_HAL_Driver/Src/stm32wbxx_ll_usb.c ****     {
 463:Drivers/STM32WBxx_HAL_Driver/Src/stm32wbxx_ll_usb.c ****       len = ep->maxpacket;
 464:Drivers/STM32WBxx_HAL_Driver/Src/stm32wbxx_ll_usb.c ****       ep->xfer_len -= len;
 465:Drivers/STM32WBxx_HAL_Driver/Src/stm32wbxx_ll_usb.c ****     }
 466:Drivers/STM32WBxx_HAL_Driver/Src/stm32wbxx_ll_usb.c ****     else
 467:Drivers/STM32WBxx_HAL_Driver/Src/stm32wbxx_ll_usb.c ****     {
 468:Drivers/STM32WBxx_HAL_Driver/Src/stm32wbxx_ll_usb.c ****       len = ep->xfer_len;
 469:Drivers/STM32WBxx_HAL_Driver/Src/stm32wbxx_ll_usb.c ****       ep->xfer_len = 0U;
 470:Drivers/STM32WBxx_HAL_Driver/Src/stm32wbxx_ll_usb.c ****     }
 471:Drivers/STM32WBxx_HAL_Driver/Src/stm32wbxx_ll_usb.c **** 
 472:Drivers/STM32WBxx_HAL_Driver/Src/stm32wbxx_ll_usb.c ****     /* configure and validate Rx endpoint */
 473:Drivers/STM32WBxx_HAL_Driver/Src/stm32wbxx_ll_usb.c ****     if (ep->doublebuffer == 0U)
 474:Drivers/STM32WBxx_HAL_Driver/Src/stm32wbxx_ll_usb.c ****     {
 475:Drivers/STM32WBxx_HAL_Driver/Src/stm32wbxx_ll_usb.c ****       /*Set RX buffer count*/
 476:Drivers/STM32WBxx_HAL_Driver/Src/stm32wbxx_ll_usb.c ****       PCD_SET_EP_RX_CNT(USBx, ep->num, len);
 477:Drivers/STM32WBxx_HAL_Driver/Src/stm32wbxx_ll_usb.c ****     }
 478:Drivers/STM32WBxx_HAL_Driver/Src/stm32wbxx_ll_usb.c ****     else
 479:Drivers/STM32WBxx_HAL_Driver/Src/stm32wbxx_ll_usb.c ****     {
 480:Drivers/STM32WBxx_HAL_Driver/Src/stm32wbxx_ll_usb.c ****       /*Set the Double buffer counter*/
 481:Drivers/STM32WBxx_HAL_Driver/Src/stm32wbxx_ll_usb.c ****       PCD_SET_EP_DBUF_CNT(USBx, ep->num, ep->is_in, len);
 482:Drivers/STM32WBxx_HAL_Driver/Src/stm32wbxx_ll_usb.c ****     }
 483:Drivers/STM32WBxx_HAL_Driver/Src/stm32wbxx_ll_usb.c **** 
 484:Drivers/STM32WBxx_HAL_Driver/Src/stm32wbxx_ll_usb.c ****     PCD_SET_EP_RX_STATUS(USBx, ep->num, USB_EP_RX_VALID);
 485:Drivers/STM32WBxx_HAL_Driver/Src/stm32wbxx_ll_usb.c ****   }
 486:Drivers/STM32WBxx_HAL_Driver/Src/stm32wbxx_ll_usb.c **** 
 487:Drivers/STM32WBxx_HAL_Driver/Src/stm32wbxx_ll_usb.c ****   return HAL_OK;
 488:Drivers/STM32WBxx_HAL_Driver/Src/stm32wbxx_ll_usb.c **** }
 489:Drivers/STM32WBxx_HAL_Driver/Src/stm32wbxx_ll_usb.c **** 
 490:Drivers/STM32WBxx_HAL_Driver/Src/stm32wbxx_ll_usb.c **** /**
 491:Drivers/STM32WBxx_HAL_Driver/Src/stm32wbxx_ll_usb.c ****   * @brief  USB_WritePacket : Writes a packet into the Tx FIFO associated
 492:Drivers/STM32WBxx_HAL_Driver/Src/stm32wbxx_ll_usb.c ****   *         with the EP/channel
 493:Drivers/STM32WBxx_HAL_Driver/Src/stm32wbxx_ll_usb.c ****   * @param  USBx : Selected device
 494:Drivers/STM32WBxx_HAL_Driver/Src/stm32wbxx_ll_usb.c ****   * @param  src :  pointer to source buffer
 495:Drivers/STM32WBxx_HAL_Driver/Src/stm32wbxx_ll_usb.c ****   * @param  ch_ep_num : endpoint or host channel number
 496:Drivers/STM32WBxx_HAL_Driver/Src/stm32wbxx_ll_usb.c ****   * @param  len : Number of bytes to write
 497:Drivers/STM32WBxx_HAL_Driver/Src/stm32wbxx_ll_usb.c ****   * @retval HAL status
 498:Drivers/STM32WBxx_HAL_Driver/Src/stm32wbxx_ll_usb.c ****   */
 499:Drivers/STM32WBxx_HAL_Driver/Src/stm32wbxx_ll_usb.c **** HAL_StatusTypeDef USB_WritePacket(USB_TypeDef *USBx, uint8_t *src, uint8_t ch_ep_num, uint16_t len)
 500:Drivers/STM32WBxx_HAL_Driver/Src/stm32wbxx_ll_usb.c **** {
 1500              		.loc 1 500 1 is_stmt 1 view -0
 1501              		.cfi_startproc
 1502              		@ args = 0, pretend = 0, frame = 0
 1503              		@ frame_needed = 0, uses_anonymous_args = 0
 1504              		@ link register save eliminated.
 501:Drivers/STM32WBxx_HAL_Driver/Src/stm32wbxx_ll_usb.c ****   /* Prevent unused argument(s) compilation warning */
 502:Drivers/STM32WBxx_HAL_Driver/Src/stm32wbxx_ll_usb.c ****   UNUSED(USBx);
 1505              		.loc 1 502 3 view .LVU503
 503:Drivers/STM32WBxx_HAL_Driver/Src/stm32wbxx_ll_usb.c ****   UNUSED(src);
 1506              		.loc 1 503 3 view .LVU504
ARM GAS  /tmp/ccr3mP7A.s 			page 41


 504:Drivers/STM32WBxx_HAL_Driver/Src/stm32wbxx_ll_usb.c ****   UNUSED(ch_ep_num);
 1507              		.loc 1 504 3 view .LVU505
 505:Drivers/STM32WBxx_HAL_Driver/Src/stm32wbxx_ll_usb.c ****   UNUSED(len);
 1508              		.loc 1 505 3 view .LVU506
 506:Drivers/STM32WBxx_HAL_Driver/Src/stm32wbxx_ll_usb.c ****   /* NOTE : - This function is not required by USB Device FS peripheral, it is used
 507:Drivers/STM32WBxx_HAL_Driver/Src/stm32wbxx_ll_usb.c ****               only by USB OTG FS peripheral.
 508:Drivers/STM32WBxx_HAL_Driver/Src/stm32wbxx_ll_usb.c ****             - This function is added to ensure compatibility across platforms.
 509:Drivers/STM32WBxx_HAL_Driver/Src/stm32wbxx_ll_usb.c ****    */
 510:Drivers/STM32WBxx_HAL_Driver/Src/stm32wbxx_ll_usb.c ****   return HAL_OK;
 1509              		.loc 1 510 3 view .LVU507
 511:Drivers/STM32WBxx_HAL_Driver/Src/stm32wbxx_ll_usb.c **** }
 1510              		.loc 1 511 1 is_stmt 0 view .LVU508
 1511 0000 0020     		movs	r0, #0
 1512              	.LVL158:
 1513              		.loc 1 511 1 view .LVU509
 1514 0002 7047     		bx	lr
 1515              		.cfi_endproc
 1516              	.LFE952:
 1518              		.section	.text.USB_ReadPacket,"ax",%progbits
 1519              		.align	1
 1520              		.global	USB_ReadPacket
 1521              		.syntax unified
 1522              		.thumb
 1523              		.thumb_func
 1524              		.fpu fpv4-sp-d16
 1526              	USB_ReadPacket:
 1527              	.LVL159:
 1528              	.LFB953:
 512:Drivers/STM32WBxx_HAL_Driver/Src/stm32wbxx_ll_usb.c **** 
 513:Drivers/STM32WBxx_HAL_Driver/Src/stm32wbxx_ll_usb.c **** /**
 514:Drivers/STM32WBxx_HAL_Driver/Src/stm32wbxx_ll_usb.c ****   * @brief  USB_ReadPacket : read a packet from the Tx FIFO associated
 515:Drivers/STM32WBxx_HAL_Driver/Src/stm32wbxx_ll_usb.c ****   *         with the EP/channel
 516:Drivers/STM32WBxx_HAL_Driver/Src/stm32wbxx_ll_usb.c ****   * @param  USBx : Selected device
 517:Drivers/STM32WBxx_HAL_Driver/Src/stm32wbxx_ll_usb.c ****   * @param  dest : destination pointer
 518:Drivers/STM32WBxx_HAL_Driver/Src/stm32wbxx_ll_usb.c ****   * @param  len : Number of bytes to read
 519:Drivers/STM32WBxx_HAL_Driver/Src/stm32wbxx_ll_usb.c ****   * @retval pointer to destination buffer
 520:Drivers/STM32WBxx_HAL_Driver/Src/stm32wbxx_ll_usb.c ****   */
 521:Drivers/STM32WBxx_HAL_Driver/Src/stm32wbxx_ll_usb.c **** void *USB_ReadPacket(USB_TypeDef *USBx, uint8_t *dest, uint16_t len)
 522:Drivers/STM32WBxx_HAL_Driver/Src/stm32wbxx_ll_usb.c **** {
 1529              		.loc 1 522 1 is_stmt 1 view -0
 1530              		.cfi_startproc
 1531              		@ args = 0, pretend = 0, frame = 0
 1532              		@ frame_needed = 0, uses_anonymous_args = 0
 1533              		@ link register save eliminated.
 523:Drivers/STM32WBxx_HAL_Driver/Src/stm32wbxx_ll_usb.c ****   /* Prevent unused argument(s) compilation warning */
 524:Drivers/STM32WBxx_HAL_Driver/Src/stm32wbxx_ll_usb.c ****   UNUSED(USBx);
 1534              		.loc 1 524 3 view .LVU511
 525:Drivers/STM32WBxx_HAL_Driver/Src/stm32wbxx_ll_usb.c ****   UNUSED(dest);
 1535              		.loc 1 525 3 view .LVU512
 526:Drivers/STM32WBxx_HAL_Driver/Src/stm32wbxx_ll_usb.c ****   UNUSED(len);
 1536              		.loc 1 526 3 view .LVU513
 527:Drivers/STM32WBxx_HAL_Driver/Src/stm32wbxx_ll_usb.c ****   /* NOTE : - This function is not required by USB Device FS peripheral, it is used
 528:Drivers/STM32WBxx_HAL_Driver/Src/stm32wbxx_ll_usb.c ****               only by USB OTG FS peripheral.
 529:Drivers/STM32WBxx_HAL_Driver/Src/stm32wbxx_ll_usb.c ****             - This function is added to ensure compatibility across platforms.
 530:Drivers/STM32WBxx_HAL_Driver/Src/stm32wbxx_ll_usb.c ****    */
 531:Drivers/STM32WBxx_HAL_Driver/Src/stm32wbxx_ll_usb.c ****   return ((void *)NULL);
 1537              		.loc 1 531 3 view .LVU514
ARM GAS  /tmp/ccr3mP7A.s 			page 42


 532:Drivers/STM32WBxx_HAL_Driver/Src/stm32wbxx_ll_usb.c **** }
 1538              		.loc 1 532 1 is_stmt 0 view .LVU515
 1539 0000 0020     		movs	r0, #0
 1540              	.LVL160:
 1541              		.loc 1 532 1 view .LVU516
 1542 0002 7047     		bx	lr
 1543              		.cfi_endproc
 1544              	.LFE953:
 1546              		.section	.text.USB_EPSetStall,"ax",%progbits
 1547              		.align	1
 1548              		.global	USB_EPSetStall
 1549              		.syntax unified
 1550              		.thumb
 1551              		.thumb_func
 1552              		.fpu fpv4-sp-d16
 1554              	USB_EPSetStall:
 1555              	.LVL161:
 1556              	.LFB954:
 533:Drivers/STM32WBxx_HAL_Driver/Src/stm32wbxx_ll_usb.c **** 
 534:Drivers/STM32WBxx_HAL_Driver/Src/stm32wbxx_ll_usb.c **** /**
 535:Drivers/STM32WBxx_HAL_Driver/Src/stm32wbxx_ll_usb.c ****   * @brief  USB_EPSetStall : set a stall condition over an EP
 536:Drivers/STM32WBxx_HAL_Driver/Src/stm32wbxx_ll_usb.c ****   * @param  USBx : Selected device
 537:Drivers/STM32WBxx_HAL_Driver/Src/stm32wbxx_ll_usb.c ****   * @param  ep: pointer to endpoint structure
 538:Drivers/STM32WBxx_HAL_Driver/Src/stm32wbxx_ll_usb.c ****   * @retval HAL status
 539:Drivers/STM32WBxx_HAL_Driver/Src/stm32wbxx_ll_usb.c ****   */
 540:Drivers/STM32WBxx_HAL_Driver/Src/stm32wbxx_ll_usb.c **** HAL_StatusTypeDef USB_EPSetStall(USB_TypeDef *USBx, USB_EPTypeDef *ep)
 541:Drivers/STM32WBxx_HAL_Driver/Src/stm32wbxx_ll_usb.c **** {
 1557              		.loc 1 541 1 is_stmt 1 view -0
 1558              		.cfi_startproc
 1559              		@ args = 0, pretend = 0, frame = 0
 1560              		@ frame_needed = 0, uses_anonymous_args = 0
 1561              		@ link register save eliminated.
 542:Drivers/STM32WBxx_HAL_Driver/Src/stm32wbxx_ll_usb.c ****   if (ep->is_in != 0U)
 1562              		.loc 1 542 3 view .LVU518
 1563              		.loc 1 542 9 is_stmt 0 view .LVU519
 1564 0000 4B78     		ldrb	r3, [r1, #1]	@ zero_extendqisi2
 1565              		.loc 1 542 6 view .LVU520
 1566 0002 8BB1     		cbz	r3, .L54
 543:Drivers/STM32WBxx_HAL_Driver/Src/stm32wbxx_ll_usb.c ****   {
 544:Drivers/STM32WBxx_HAL_Driver/Src/stm32wbxx_ll_usb.c ****     PCD_SET_EP_TX_STATUS(USBx, ep->num, USB_EP_TX_STALL);
 1567              		.loc 1 544 5 is_stmt 1 view .LVU521
 1568              	.LBB54:
 1569              		.loc 1 544 5 view .LVU522
 1570              		.loc 1 544 5 view .LVU523
 1571 0004 0A78     		ldrb	r2, [r1]	@ zero_extendqisi2
 1572 0006 30F82230 		ldrh	r3, [r0, r2, lsl #2]
 1573 000a 9BB2     		uxth	r3, r3
 1574 000c 23F4E043 		bic	r3, r3, #28672
 1575 0010 23F04003 		bic	r3, r3, #64
 1576              	.LVL162:
 1577              		.loc 1 544 5 view .LVU524
 1578              		.loc 1 544 5 view .LVU525
 1579 0014 83F01003 		eor	r3, r3, #16
 1580              	.LVL163:
 1581              		.loc 1 544 5 view .LVU526
 1582              		.loc 1 544 5 view .LVU527
 1583 0018 43F40043 		orr	r3, r3, #32768
ARM GAS  /tmp/ccr3mP7A.s 			page 43


 1584              	.LVL164:
 1585              		.loc 1 544 5 is_stmt 0 view .LVU528
 1586 001c 43F08003 		orr	r3, r3, #128
 1587 0020 20F82230 		strh	r3, [r0, r2, lsl #2]	@ movhi
 1588              	.LBE54:
 1589              		.loc 1 544 5 is_stmt 1 view .LVU529
 1590              	.L55:
 545:Drivers/STM32WBxx_HAL_Driver/Src/stm32wbxx_ll_usb.c ****   }
 546:Drivers/STM32WBxx_HAL_Driver/Src/stm32wbxx_ll_usb.c ****   else
 547:Drivers/STM32WBxx_HAL_Driver/Src/stm32wbxx_ll_usb.c ****   {
 548:Drivers/STM32WBxx_HAL_Driver/Src/stm32wbxx_ll_usb.c ****     PCD_SET_EP_RX_STATUS(USBx, ep->num, USB_EP_RX_STALL);
 1591              		.loc 1 548 5 discriminator 7 view .LVU530
 549:Drivers/STM32WBxx_HAL_Driver/Src/stm32wbxx_ll_usb.c ****   }
 550:Drivers/STM32WBxx_HAL_Driver/Src/stm32wbxx_ll_usb.c **** 
 551:Drivers/STM32WBxx_HAL_Driver/Src/stm32wbxx_ll_usb.c ****   return HAL_OK;
 1592              		.loc 1 551 3 discriminator 7 view .LVU531
 552:Drivers/STM32WBxx_HAL_Driver/Src/stm32wbxx_ll_usb.c **** }
 1593              		.loc 1 552 1 is_stmt 0 discriminator 7 view .LVU532
 1594 0024 0020     		movs	r0, #0
 1595              	.LVL165:
 1596              		.loc 1 552 1 discriminator 7 view .LVU533
 1597 0026 7047     		bx	lr
 1598              	.LVL166:
 1599              	.L54:
 548:Drivers/STM32WBxx_HAL_Driver/Src/stm32wbxx_ll_usb.c ****   }
 1600              		.loc 1 548 5 is_stmt 1 view .LVU534
 1601              	.LBB55:
 548:Drivers/STM32WBxx_HAL_Driver/Src/stm32wbxx_ll_usb.c ****   }
 1602              		.loc 1 548 5 view .LVU535
 548:Drivers/STM32WBxx_HAL_Driver/Src/stm32wbxx_ll_usb.c ****   }
 1603              		.loc 1 548 5 view .LVU536
 1604 0028 0A78     		ldrb	r2, [r1]	@ zero_extendqisi2
 1605 002a 30F82230 		ldrh	r3, [r0, r2, lsl #2]
 1606 002e 9BB2     		uxth	r3, r3
 1607 0030 23F48043 		bic	r3, r3, #16384
 1608 0034 23F07003 		bic	r3, r3, #112
 1609              	.LVL167:
 548:Drivers/STM32WBxx_HAL_Driver/Src/stm32wbxx_ll_usb.c ****   }
 1610              		.loc 1 548 5 view .LVU537
 548:Drivers/STM32WBxx_HAL_Driver/Src/stm32wbxx_ll_usb.c ****   }
 1611              		.loc 1 548 5 view .LVU538
 1612 0038 83F48053 		eor	r3, r3, #4096
 1613              	.LVL168:
 548:Drivers/STM32WBxx_HAL_Driver/Src/stm32wbxx_ll_usb.c ****   }
 1614              		.loc 1 548 5 view .LVU539
 548:Drivers/STM32WBxx_HAL_Driver/Src/stm32wbxx_ll_usb.c ****   }
 1615              		.loc 1 548 5 view .LVU540
 1616 003c 43F40043 		orr	r3, r3, #32768
 1617              	.LVL169:
 548:Drivers/STM32WBxx_HAL_Driver/Src/stm32wbxx_ll_usb.c ****   }
 1618              		.loc 1 548 5 is_stmt 0 view .LVU541
 1619 0040 43F08003 		orr	r3, r3, #128
 1620 0044 20F82230 		strh	r3, [r0, r2, lsl #2]	@ movhi
 1621 0048 ECE7     		b	.L55
 1622              	.LBE55:
 1623              		.cfi_endproc
 1624              	.LFE954:
ARM GAS  /tmp/ccr3mP7A.s 			page 44


 1626              		.section	.text.USB_EPClearStall,"ax",%progbits
 1627              		.align	1
 1628              		.global	USB_EPClearStall
 1629              		.syntax unified
 1630              		.thumb
 1631              		.thumb_func
 1632              		.fpu fpv4-sp-d16
 1634              	USB_EPClearStall:
 1635              	.LVL170:
 1636              	.LFB955:
 553:Drivers/STM32WBxx_HAL_Driver/Src/stm32wbxx_ll_usb.c **** 
 554:Drivers/STM32WBxx_HAL_Driver/Src/stm32wbxx_ll_usb.c **** /**
 555:Drivers/STM32WBxx_HAL_Driver/Src/stm32wbxx_ll_usb.c ****   * @brief  USB_EPClearStall : Clear a stall condition over an EP
 556:Drivers/STM32WBxx_HAL_Driver/Src/stm32wbxx_ll_usb.c ****   * @param  USBx : Selected device
 557:Drivers/STM32WBxx_HAL_Driver/Src/stm32wbxx_ll_usb.c ****   * @param  ep: pointer to endpoint structure
 558:Drivers/STM32WBxx_HAL_Driver/Src/stm32wbxx_ll_usb.c ****   * @retval HAL status
 559:Drivers/STM32WBxx_HAL_Driver/Src/stm32wbxx_ll_usb.c ****   */
 560:Drivers/STM32WBxx_HAL_Driver/Src/stm32wbxx_ll_usb.c **** HAL_StatusTypeDef USB_EPClearStall(USB_TypeDef *USBx, USB_EPTypeDef *ep)
 561:Drivers/STM32WBxx_HAL_Driver/Src/stm32wbxx_ll_usb.c **** {
 1637              		.loc 1 561 1 is_stmt 1 view -0
 1638              		.cfi_startproc
 1639              		@ args = 0, pretend = 0, frame = 0
 1640              		@ frame_needed = 0, uses_anonymous_args = 0
 1641              		@ link register save eliminated.
 562:Drivers/STM32WBxx_HAL_Driver/Src/stm32wbxx_ll_usb.c ****   if (ep->doublebuffer == 0U)
 1642              		.loc 1 562 3 view .LVU543
 1643              		.loc 1 562 9 is_stmt 0 view .LVU544
 1644 0000 0B7B     		ldrb	r3, [r1, #12]	@ zero_extendqisi2
 1645              		.loc 1 562 6 view .LVU545
 1646 0002 002B     		cmp	r3, #0
 1647 0004 4BD1     		bne	.L57
 563:Drivers/STM32WBxx_HAL_Driver/Src/stm32wbxx_ll_usb.c ****   {
 564:Drivers/STM32WBxx_HAL_Driver/Src/stm32wbxx_ll_usb.c ****     if (ep->is_in != 0U)
 1648              		.loc 1 564 5 is_stmt 1 view .LVU546
 1649              		.loc 1 564 11 is_stmt 0 view .LVU547
 1650 0006 4B78     		ldrb	r3, [r1, #1]	@ zero_extendqisi2
 1651              		.loc 1 564 8 view .LVU548
 1652 0008 33B3     		cbz	r3, .L58
 565:Drivers/STM32WBxx_HAL_Driver/Src/stm32wbxx_ll_usb.c ****     {
 566:Drivers/STM32WBxx_HAL_Driver/Src/stm32wbxx_ll_usb.c ****       PCD_CLEAR_TX_DTOG(USBx, ep->num);
 1653              		.loc 1 566 7 is_stmt 1 view .LVU549
 1654              	.LBB56:
 1655              		.loc 1 566 7 view .LVU550
 1656              		.loc 1 566 7 view .LVU551
 1657 000a 0A78     		ldrb	r2, [r1]	@ zero_extendqisi2
 1658 000c 30F82230 		ldrh	r3, [r0, r2, lsl #2]
 1659              	.LVL171:
 1660              		.loc 1 566 7 view .LVU552
 1661 0010 13F0400F 		tst	r3, #64
 1662 0014 0CD0     		beq	.L59
 1663              		.loc 1 566 7 discriminator 1 view .LVU553
 1664              	.LBB57:
 1665              		.loc 1 566 7 discriminator 1 view .LVU554
 1666              		.loc 1 566 7 discriminator 1 view .LVU555
 1667 0016 30F82230 		ldrh	r3, [r0, r2, lsl #2]
 1668              	.LVL172:
 1669              		.loc 1 566 7 is_stmt 0 discriminator 1 view .LVU556
ARM GAS  /tmp/ccr3mP7A.s 			page 45


 1670 001a 9BB2     		uxth	r3, r3
 1671 001c 23F4E043 		bic	r3, r3, #28672
 1672 0020 23F07003 		bic	r3, r3, #112
 1673              	.LVL173:
 1674              		.loc 1 566 7 is_stmt 1 discriminator 1 view .LVU557
 1675 0024 43F40043 		orr	r3, r3, #32768
 1676              	.LVL174:
 1677              		.loc 1 566 7 is_stmt 0 discriminator 1 view .LVU558
 1678 0028 43F0C003 		orr	r3, r3, #192
 1679 002c 20F82230 		strh	r3, [r0, r2, lsl #2]	@ movhi
 1680              	.L59:
 1681              		.loc 1 566 7 discriminator 1 view .LVU559
 1682              	.LBE57:
 1683              		.loc 1 566 7 is_stmt 1 discriminator 3 view .LVU560
 1684              	.LBE56:
 1685              		.loc 1 566 7 discriminator 3 view .LVU561
 567:Drivers/STM32WBxx_HAL_Driver/Src/stm32wbxx_ll_usb.c **** 
 568:Drivers/STM32WBxx_HAL_Driver/Src/stm32wbxx_ll_usb.c ****       if (ep->type != EP_TYPE_ISOC)
 1686              		.loc 1 568 7 discriminator 3 view .LVU562
 1687              		.loc 1 568 13 is_stmt 0 discriminator 3 view .LVU563
 1688 0030 CB78     		ldrb	r3, [r1, #3]	@ zero_extendqisi2
 1689              		.loc 1 568 10 discriminator 3 view .LVU564
 1690 0032 012B     		cmp	r3, #1
 1691 0034 33D0     		beq	.L57
 569:Drivers/STM32WBxx_HAL_Driver/Src/stm32wbxx_ll_usb.c ****       {
 570:Drivers/STM32WBxx_HAL_Driver/Src/stm32wbxx_ll_usb.c ****         /* Configure NAK status for the Endpoint */
 571:Drivers/STM32WBxx_HAL_Driver/Src/stm32wbxx_ll_usb.c ****         PCD_SET_EP_TX_STATUS(USBx, ep->num, USB_EP_TX_NAK);
 1692              		.loc 1 571 9 is_stmt 1 view .LVU565
 1693              	.LBB58:
 1694              		.loc 1 571 9 view .LVU566
 1695              		.loc 1 571 9 view .LVU567
 1696 0036 0A78     		ldrb	r2, [r1]	@ zero_extendqisi2
 1697 0038 30F82230 		ldrh	r3, [r0, r2, lsl #2]
 1698 003c 9BB2     		uxth	r3, r3
 1699 003e 23F4E043 		bic	r3, r3, #28672
 1700 0042 23F04003 		bic	r3, r3, #64
 1701              	.LVL175:
 1702              		.loc 1 571 9 view .LVU568
 1703              		.loc 1 571 9 view .LVU569
 1704              		.loc 1 571 9 view .LVU570
 1705 0046 83F02003 		eor	r3, r3, #32
 1706              	.LVL176:
 1707              		.loc 1 571 9 view .LVU571
 1708 004a 43F40043 		orr	r3, r3, #32768
 1709              	.LVL177:
 1710              		.loc 1 571 9 is_stmt 0 view .LVU572
 1711 004e 43F08003 		orr	r3, r3, #128
 1712 0052 20F82230 		strh	r3, [r0, r2, lsl #2]	@ movhi
 1713 0056 22E0     		b	.L57
 1714              	.L58:
 1715              		.loc 1 571 9 view .LVU573
 1716              	.LBE58:
 572:Drivers/STM32WBxx_HAL_Driver/Src/stm32wbxx_ll_usb.c ****       }
 573:Drivers/STM32WBxx_HAL_Driver/Src/stm32wbxx_ll_usb.c ****     }
 574:Drivers/STM32WBxx_HAL_Driver/Src/stm32wbxx_ll_usb.c ****     else
 575:Drivers/STM32WBxx_HAL_Driver/Src/stm32wbxx_ll_usb.c ****     {
 576:Drivers/STM32WBxx_HAL_Driver/Src/stm32wbxx_ll_usb.c ****       PCD_CLEAR_RX_DTOG(USBx, ep->num);
ARM GAS  /tmp/ccr3mP7A.s 			page 46


 1717              		.loc 1 576 7 is_stmt 1 view .LVU574
 1718              	.LBB59:
 1719              		.loc 1 576 7 view .LVU575
 1720              		.loc 1 576 7 view .LVU576
 1721 0058 0A78     		ldrb	r2, [r1]	@ zero_extendqisi2
 1722 005a 30F82230 		ldrh	r3, [r0, r2, lsl #2]
 1723              	.LVL178:
 1724              		.loc 1 576 7 view .LVU577
 1725 005e 13F4804F 		tst	r3, #16384
 1726 0062 0CD0     		beq	.L60
 1727              		.loc 1 576 7 discriminator 1 view .LVU578
 1728              	.LBB60:
 1729              		.loc 1 576 7 discriminator 1 view .LVU579
 1730              		.loc 1 576 7 discriminator 1 view .LVU580
 1731 0064 30F82230 		ldrh	r3, [r0, r2, lsl #2]
 1732              	.LVL179:
 1733              		.loc 1 576 7 is_stmt 0 discriminator 1 view .LVU581
 1734 0068 9BB2     		uxth	r3, r3
 1735 006a 23F4E043 		bic	r3, r3, #28672
 1736 006e 23F07003 		bic	r3, r3, #112
 1737              	.LVL180:
 1738              		.loc 1 576 7 is_stmt 1 discriminator 1 view .LVU582
 1739 0072 43F44043 		orr	r3, r3, #49152
 1740              	.LVL181:
 1741              		.loc 1 576 7 is_stmt 0 discriminator 1 view .LVU583
 1742 0076 43F08003 		orr	r3, r3, #128
 1743 007a 20F82230 		strh	r3, [r0, r2, lsl #2]	@ movhi
 1744              	.L60:
 1745              		.loc 1 576 7 discriminator 1 view .LVU584
 1746              	.LBE60:
 1747              		.loc 1 576 7 is_stmt 1 discriminator 3 view .LVU585
 1748              	.LBE59:
 1749              		.loc 1 576 7 discriminator 3 view .LVU586
 577:Drivers/STM32WBxx_HAL_Driver/Src/stm32wbxx_ll_usb.c **** 
 578:Drivers/STM32WBxx_HAL_Driver/Src/stm32wbxx_ll_usb.c ****       /* Configure VALID status for the Endpoint*/
 579:Drivers/STM32WBxx_HAL_Driver/Src/stm32wbxx_ll_usb.c ****       PCD_SET_EP_RX_STATUS(USBx, ep->num, USB_EP_RX_VALID);
 1750              		.loc 1 579 7 discriminator 3 view .LVU587
 1751              	.LBB61:
 1752              		.loc 1 579 7 discriminator 3 view .LVU588
 1753              		.loc 1 579 7 discriminator 3 view .LVU589
 1754 007e 0A78     		ldrb	r2, [r1]	@ zero_extendqisi2
 1755 0080 30F82230 		ldrh	r3, [r0, r2, lsl #2]
 1756 0084 9BB2     		uxth	r3, r3
 1757 0086 23F48043 		bic	r3, r3, #16384
 1758 008a 23F07003 		bic	r3, r3, #112
 1759              	.LVL182:
 1760              		.loc 1 579 7 discriminator 3 view .LVU590
 1761              		.loc 1 579 7 discriminator 3 view .LVU591
 1762              		.loc 1 579 7 discriminator 3 view .LVU592
 1763              		.loc 1 579 7 discriminator 3 view .LVU593
 1764 008e 83F44053 		eor	r3, r3, #12288
 1765              	.LVL183:
 1766              		.loc 1 579 7 discriminator 3 view .LVU594
 1767 0092 43F40043 		orr	r3, r3, #32768
 1768              	.LVL184:
 1769              		.loc 1 579 7 is_stmt 0 discriminator 3 view .LVU595
 1770 0096 43F08003 		orr	r3, r3, #128
ARM GAS  /tmp/ccr3mP7A.s 			page 47


 1771 009a 20F82230 		strh	r3, [r0, r2, lsl #2]	@ movhi
 1772              	.L57:
 1773              		.loc 1 579 7 discriminator 3 view .LVU596
 1774              	.LBE61:
 1775              		.loc 1 579 7 is_stmt 1 discriminator 7 view .LVU597
 580:Drivers/STM32WBxx_HAL_Driver/Src/stm32wbxx_ll_usb.c ****     }
 581:Drivers/STM32WBxx_HAL_Driver/Src/stm32wbxx_ll_usb.c ****   }
 582:Drivers/STM32WBxx_HAL_Driver/Src/stm32wbxx_ll_usb.c **** 
 583:Drivers/STM32WBxx_HAL_Driver/Src/stm32wbxx_ll_usb.c ****   return HAL_OK;
 1776              		.loc 1 583 3 discriminator 7 view .LVU598
 584:Drivers/STM32WBxx_HAL_Driver/Src/stm32wbxx_ll_usb.c **** }
 1777              		.loc 1 584 1 is_stmt 0 discriminator 7 view .LVU599
 1778 009e 0020     		movs	r0, #0
 1779              	.LVL185:
 1780              		.loc 1 584 1 discriminator 7 view .LVU600
 1781 00a0 7047     		bx	lr
 1782              		.cfi_endproc
 1783              	.LFE955:
 1785              		.section	.text.USB_StopDevice,"ax",%progbits
 1786              		.align	1
 1787              		.global	USB_StopDevice
 1788              		.syntax unified
 1789              		.thumb
 1790              		.thumb_func
 1791              		.fpu fpv4-sp-d16
 1793              	USB_StopDevice:
 1794              	.LVL186:
 1795              	.LFB956:
 585:Drivers/STM32WBxx_HAL_Driver/Src/stm32wbxx_ll_usb.c **** 
 586:Drivers/STM32WBxx_HAL_Driver/Src/stm32wbxx_ll_usb.c **** /**
 587:Drivers/STM32WBxx_HAL_Driver/Src/stm32wbxx_ll_usb.c ****   * @brief  USB_StopDevice : Stop the usb device mode
 588:Drivers/STM32WBxx_HAL_Driver/Src/stm32wbxx_ll_usb.c ****   * @param  USBx : Selected device
 589:Drivers/STM32WBxx_HAL_Driver/Src/stm32wbxx_ll_usb.c ****   * @retval HAL status
 590:Drivers/STM32WBxx_HAL_Driver/Src/stm32wbxx_ll_usb.c ****   */
 591:Drivers/STM32WBxx_HAL_Driver/Src/stm32wbxx_ll_usb.c **** HAL_StatusTypeDef USB_StopDevice(USB_TypeDef *USBx)
 592:Drivers/STM32WBxx_HAL_Driver/Src/stm32wbxx_ll_usb.c **** {
 1796              		.loc 1 592 1 is_stmt 1 view -0
 1797              		.cfi_startproc
 1798              		@ args = 0, pretend = 0, frame = 0
 1799              		@ frame_needed = 0, uses_anonymous_args = 0
 1800              		@ link register save eliminated.
 1801              		.loc 1 592 1 is_stmt 0 view .LVU602
 1802 0000 0346     		mov	r3, r0
 593:Drivers/STM32WBxx_HAL_Driver/Src/stm32wbxx_ll_usb.c ****   /* disable all interrupts and force USB reset */
 594:Drivers/STM32WBxx_HAL_Driver/Src/stm32wbxx_ll_usb.c ****   USBx->CNTR = USB_CNTR_FRES;
 1803              		.loc 1 594 3 is_stmt 1 view .LVU603
 1804              		.loc 1 594 14 is_stmt 0 view .LVU604
 1805 0002 0122     		movs	r2, #1
 1806 0004 A0F84020 		strh	r2, [r0, #64]	@ movhi
 595:Drivers/STM32WBxx_HAL_Driver/Src/stm32wbxx_ll_usb.c **** 
 596:Drivers/STM32WBxx_HAL_Driver/Src/stm32wbxx_ll_usb.c ****   /* clear interrupt status register */
 597:Drivers/STM32WBxx_HAL_Driver/Src/stm32wbxx_ll_usb.c ****   USBx->ISTR = 0;
 1807              		.loc 1 597 3 is_stmt 1 view .LVU605
 1808              		.loc 1 597 14 is_stmt 0 view .LVU606
 1809 0008 0020     		movs	r0, #0
 1810              	.LVL187:
 1811              		.loc 1 597 14 view .LVU607
ARM GAS  /tmp/ccr3mP7A.s 			page 48


 1812 000a A3F84400 		strh	r0, [r3, #68]	@ movhi
 598:Drivers/STM32WBxx_HAL_Driver/Src/stm32wbxx_ll_usb.c **** 
 599:Drivers/STM32WBxx_HAL_Driver/Src/stm32wbxx_ll_usb.c ****   /* switch-off device */
 600:Drivers/STM32WBxx_HAL_Driver/Src/stm32wbxx_ll_usb.c ****   USBx->CNTR = (USB_CNTR_FRES | USB_CNTR_PDWN);
 1813              		.loc 1 600 3 is_stmt 1 view .LVU608
 1814              		.loc 1 600 14 is_stmt 0 view .LVU609
 1815 000e 0322     		movs	r2, #3
 1816 0010 A3F84020 		strh	r2, [r3, #64]	@ movhi
 601:Drivers/STM32WBxx_HAL_Driver/Src/stm32wbxx_ll_usb.c **** 
 602:Drivers/STM32WBxx_HAL_Driver/Src/stm32wbxx_ll_usb.c ****   return HAL_OK;
 1817              		.loc 1 602 3 is_stmt 1 view .LVU610
 603:Drivers/STM32WBxx_HAL_Driver/Src/stm32wbxx_ll_usb.c **** }
 1818              		.loc 1 603 1 is_stmt 0 view .LVU611
 1819 0014 7047     		bx	lr
 1820              		.cfi_endproc
 1821              	.LFE956:
 1823              		.section	.text.USB_SetDevAddress,"ax",%progbits
 1824              		.align	1
 1825              		.global	USB_SetDevAddress
 1826              		.syntax unified
 1827              		.thumb
 1828              		.thumb_func
 1829              		.fpu fpv4-sp-d16
 1831              	USB_SetDevAddress:
 1832              	.LVL188:
 1833              	.LFB957:
 604:Drivers/STM32WBxx_HAL_Driver/Src/stm32wbxx_ll_usb.c **** 
 605:Drivers/STM32WBxx_HAL_Driver/Src/stm32wbxx_ll_usb.c **** /**
 606:Drivers/STM32WBxx_HAL_Driver/Src/stm32wbxx_ll_usb.c ****   * @brief  USB_SetDevAddress : Stop the usb device mode
 607:Drivers/STM32WBxx_HAL_Driver/Src/stm32wbxx_ll_usb.c ****   * @param  USBx : Selected device
 608:Drivers/STM32WBxx_HAL_Driver/Src/stm32wbxx_ll_usb.c ****   * @param  address : new device address to be assigned
 609:Drivers/STM32WBxx_HAL_Driver/Src/stm32wbxx_ll_usb.c ****   *          This parameter can be a value from 0 to 255
 610:Drivers/STM32WBxx_HAL_Driver/Src/stm32wbxx_ll_usb.c ****   * @retval HAL status
 611:Drivers/STM32WBxx_HAL_Driver/Src/stm32wbxx_ll_usb.c ****   */
 612:Drivers/STM32WBxx_HAL_Driver/Src/stm32wbxx_ll_usb.c **** HAL_StatusTypeDef  USB_SetDevAddress(USB_TypeDef *USBx, uint8_t address)
 613:Drivers/STM32WBxx_HAL_Driver/Src/stm32wbxx_ll_usb.c **** {
 1834              		.loc 1 613 1 is_stmt 1 view -0
 1835              		.cfi_startproc
 1836              		@ args = 0, pretend = 0, frame = 0
 1837              		@ frame_needed = 0, uses_anonymous_args = 0
 1838              		@ link register save eliminated.
 614:Drivers/STM32WBxx_HAL_Driver/Src/stm32wbxx_ll_usb.c ****   if (address == 0U)
 1839              		.loc 1 614 3 view .LVU613
 1840              		.loc 1 614 6 is_stmt 0 view .LVU614
 1841 0000 11B9     		cbnz	r1, .L63
 615:Drivers/STM32WBxx_HAL_Driver/Src/stm32wbxx_ll_usb.c ****   {
 616:Drivers/STM32WBxx_HAL_Driver/Src/stm32wbxx_ll_usb.c ****     /* set device address and enable function */
 617:Drivers/STM32WBxx_HAL_Driver/Src/stm32wbxx_ll_usb.c ****     USBx->DADDR = USB_DADDR_EF;
 1842              		.loc 1 617 5 is_stmt 1 view .LVU615
 1843              		.loc 1 617 17 is_stmt 0 view .LVU616
 1844 0002 8023     		movs	r3, #128
 1845 0004 A0F84C30 		strh	r3, [r0, #76]	@ movhi
 1846              	.L63:
 618:Drivers/STM32WBxx_HAL_Driver/Src/stm32wbxx_ll_usb.c ****   }
 619:Drivers/STM32WBxx_HAL_Driver/Src/stm32wbxx_ll_usb.c **** 
 620:Drivers/STM32WBxx_HAL_Driver/Src/stm32wbxx_ll_usb.c ****   return HAL_OK;
 1847              		.loc 1 620 3 is_stmt 1 view .LVU617
ARM GAS  /tmp/ccr3mP7A.s 			page 49


 621:Drivers/STM32WBxx_HAL_Driver/Src/stm32wbxx_ll_usb.c **** }
 1848              		.loc 1 621 1 is_stmt 0 view .LVU618
 1849 0008 0020     		movs	r0, #0
 1850              	.LVL189:
 1851              		.loc 1 621 1 view .LVU619
 1852 000a 7047     		bx	lr
 1853              		.cfi_endproc
 1854              	.LFE957:
 1856              		.section	.text.USB_DevConnect,"ax",%progbits
 1857              		.align	1
 1858              		.global	USB_DevConnect
 1859              		.syntax unified
 1860              		.thumb
 1861              		.thumb_func
 1862              		.fpu fpv4-sp-d16
 1864              	USB_DevConnect:
 1865              	.LVL190:
 1866              	.LFB958:
 622:Drivers/STM32WBxx_HAL_Driver/Src/stm32wbxx_ll_usb.c **** 
 623:Drivers/STM32WBxx_HAL_Driver/Src/stm32wbxx_ll_usb.c **** /**
 624:Drivers/STM32WBxx_HAL_Driver/Src/stm32wbxx_ll_usb.c ****   * @brief  USB_DevConnect : Connect the USB device by enabling the pull-up/pull-down
 625:Drivers/STM32WBxx_HAL_Driver/Src/stm32wbxx_ll_usb.c ****   * @param  USBx : Selected device
 626:Drivers/STM32WBxx_HAL_Driver/Src/stm32wbxx_ll_usb.c ****   * @retval HAL status
 627:Drivers/STM32WBxx_HAL_Driver/Src/stm32wbxx_ll_usb.c ****   */
 628:Drivers/STM32WBxx_HAL_Driver/Src/stm32wbxx_ll_usb.c **** HAL_StatusTypeDef  USB_DevConnect(USB_TypeDef *USBx)
 629:Drivers/STM32WBxx_HAL_Driver/Src/stm32wbxx_ll_usb.c **** {
 1867              		.loc 1 629 1 is_stmt 1 view -0
 1868              		.cfi_startproc
 1869              		@ args = 0, pretend = 0, frame = 0
 1870              		@ frame_needed = 0, uses_anonymous_args = 0
 1871              		@ link register save eliminated.
 630:Drivers/STM32WBxx_HAL_Driver/Src/stm32wbxx_ll_usb.c ****   /* Enabling DP Pull-UP bit to Connect internal PU resistor on USB DP line */
 631:Drivers/STM32WBxx_HAL_Driver/Src/stm32wbxx_ll_usb.c ****   USBx->BCDR |= USB_BCDR_DPPU;
 1872              		.loc 1 631 3 view .LVU621
 1873              		.loc 1 631 14 is_stmt 0 view .LVU622
 1874 0000 B0F85830 		ldrh	r3, [r0, #88]
 1875 0004 6FEA4343 		mvn	r3, r3, lsl #17
 1876 0008 6FEA5343 		mvn	r3, r3, lsr #17
 1877 000c 9BB2     		uxth	r3, r3
 1878 000e A0F85830 		strh	r3, [r0, #88]	@ movhi
 632:Drivers/STM32WBxx_HAL_Driver/Src/stm32wbxx_ll_usb.c **** 
 633:Drivers/STM32WBxx_HAL_Driver/Src/stm32wbxx_ll_usb.c ****   return HAL_OK;
 1879              		.loc 1 633 3 is_stmt 1 view .LVU623
 634:Drivers/STM32WBxx_HAL_Driver/Src/stm32wbxx_ll_usb.c **** }
 1880              		.loc 1 634 1 is_stmt 0 view .LVU624
 1881 0012 0020     		movs	r0, #0
 1882              	.LVL191:
 1883              		.loc 1 634 1 view .LVU625
 1884 0014 7047     		bx	lr
 1885              		.cfi_endproc
 1886              	.LFE958:
 1888              		.section	.text.USB_DevDisconnect,"ax",%progbits
 1889              		.align	1
 1890              		.global	USB_DevDisconnect
 1891              		.syntax unified
 1892              		.thumb
 1893              		.thumb_func
ARM GAS  /tmp/ccr3mP7A.s 			page 50


 1894              		.fpu fpv4-sp-d16
 1896              	USB_DevDisconnect:
 1897              	.LVL192:
 1898              	.LFB959:
 635:Drivers/STM32WBxx_HAL_Driver/Src/stm32wbxx_ll_usb.c **** 
 636:Drivers/STM32WBxx_HAL_Driver/Src/stm32wbxx_ll_usb.c **** /**
 637:Drivers/STM32WBxx_HAL_Driver/Src/stm32wbxx_ll_usb.c ****   * @brief  USB_DevDisconnect : Disconnect the USB device by disabling the pull-up/pull-down
 638:Drivers/STM32WBxx_HAL_Driver/Src/stm32wbxx_ll_usb.c ****   * @param  USBx : Selected device
 639:Drivers/STM32WBxx_HAL_Driver/Src/stm32wbxx_ll_usb.c ****   * @retval HAL status
 640:Drivers/STM32WBxx_HAL_Driver/Src/stm32wbxx_ll_usb.c ****   */
 641:Drivers/STM32WBxx_HAL_Driver/Src/stm32wbxx_ll_usb.c **** HAL_StatusTypeDef  USB_DevDisconnect(USB_TypeDef *USBx)
 642:Drivers/STM32WBxx_HAL_Driver/Src/stm32wbxx_ll_usb.c **** {
 1899              		.loc 1 642 1 is_stmt 1 view -0
 1900              		.cfi_startproc
 1901              		@ args = 0, pretend = 0, frame = 0
 1902              		@ frame_needed = 0, uses_anonymous_args = 0
 1903              		@ link register save eliminated.
 643:Drivers/STM32WBxx_HAL_Driver/Src/stm32wbxx_ll_usb.c ****   /* Disable DP Pull-Up bit to disconnect the Internal PU resistor on USB DP line */
 644:Drivers/STM32WBxx_HAL_Driver/Src/stm32wbxx_ll_usb.c ****   USBx->BCDR &= (uint16_t)(~(USB_BCDR_DPPU));
 1904              		.loc 1 644 3 view .LVU627
 1905              		.loc 1 644 14 is_stmt 0 view .LVU628
 1906 0000 B0F85830 		ldrh	r3, [r0, #88]
 1907 0004 C3F30E03 		ubfx	r3, r3, #0, #15
 1908 0008 A0F85830 		strh	r3, [r0, #88]	@ movhi
 645:Drivers/STM32WBxx_HAL_Driver/Src/stm32wbxx_ll_usb.c **** 
 646:Drivers/STM32WBxx_HAL_Driver/Src/stm32wbxx_ll_usb.c ****   return HAL_OK;
 1909              		.loc 1 646 3 is_stmt 1 view .LVU629
 647:Drivers/STM32WBxx_HAL_Driver/Src/stm32wbxx_ll_usb.c **** }
 1910              		.loc 1 647 1 is_stmt 0 view .LVU630
 1911 000c 0020     		movs	r0, #0
 1912              	.LVL193:
 1913              		.loc 1 647 1 view .LVU631
 1914 000e 7047     		bx	lr
 1915              		.cfi_endproc
 1916              	.LFE959:
 1918              		.section	.text.USB_ReadInterrupts,"ax",%progbits
 1919              		.align	1
 1920              		.global	USB_ReadInterrupts
 1921              		.syntax unified
 1922              		.thumb
 1923              		.thumb_func
 1924              		.fpu fpv4-sp-d16
 1926              	USB_ReadInterrupts:
 1927              	.LVL194:
 1928              	.LFB960:
 648:Drivers/STM32WBxx_HAL_Driver/Src/stm32wbxx_ll_usb.c **** 
 649:Drivers/STM32WBxx_HAL_Driver/Src/stm32wbxx_ll_usb.c **** /**
 650:Drivers/STM32WBxx_HAL_Driver/Src/stm32wbxx_ll_usb.c ****   * @brief  USB_ReadInterrupts: return the global USB interrupt status
 651:Drivers/STM32WBxx_HAL_Driver/Src/stm32wbxx_ll_usb.c ****   * @param  USBx : Selected device
 652:Drivers/STM32WBxx_HAL_Driver/Src/stm32wbxx_ll_usb.c ****   * @retval HAL status
 653:Drivers/STM32WBxx_HAL_Driver/Src/stm32wbxx_ll_usb.c ****   */
 654:Drivers/STM32WBxx_HAL_Driver/Src/stm32wbxx_ll_usb.c **** uint32_t  USB_ReadInterrupts(USB_TypeDef *USBx)
 655:Drivers/STM32WBxx_HAL_Driver/Src/stm32wbxx_ll_usb.c **** {
 1929              		.loc 1 655 1 is_stmt 1 view -0
 1930              		.cfi_startproc
 1931              		@ args = 0, pretend = 0, frame = 0
 1932              		@ frame_needed = 0, uses_anonymous_args = 0
ARM GAS  /tmp/ccr3mP7A.s 			page 51


 1933              		@ link register save eliminated.
 656:Drivers/STM32WBxx_HAL_Driver/Src/stm32wbxx_ll_usb.c ****   uint32_t tmpreg;
 1934              		.loc 1 656 3 view .LVU633
 657:Drivers/STM32WBxx_HAL_Driver/Src/stm32wbxx_ll_usb.c **** 
 658:Drivers/STM32WBxx_HAL_Driver/Src/stm32wbxx_ll_usb.c ****   tmpreg = USBx->ISTR;
 1935              		.loc 1 658 3 view .LVU634
 1936              		.loc 1 658 16 is_stmt 0 view .LVU635
 1937 0000 B0F84400 		ldrh	r0, [r0, #68]
 1938              	.LVL195:
 659:Drivers/STM32WBxx_HAL_Driver/Src/stm32wbxx_ll_usb.c ****   return tmpreg;
 1939              		.loc 1 659 3 is_stmt 1 view .LVU636
 660:Drivers/STM32WBxx_HAL_Driver/Src/stm32wbxx_ll_usb.c **** }
 1940              		.loc 1 660 1 is_stmt 0 view .LVU637
 1941 0004 80B2     		uxth	r0, r0
 1942              	.LVL196:
 1943              		.loc 1 660 1 view .LVU638
 1944 0006 7047     		bx	lr
 1945              		.cfi_endproc
 1946              	.LFE960:
 1948              		.section	.text.USB_ReadDevAllOutEpInterrupt,"ax",%progbits
 1949              		.align	1
 1950              		.global	USB_ReadDevAllOutEpInterrupt
 1951              		.syntax unified
 1952              		.thumb
 1953              		.thumb_func
 1954              		.fpu fpv4-sp-d16
 1956              	USB_ReadDevAllOutEpInterrupt:
 1957              	.LVL197:
 1958              	.LFB961:
 661:Drivers/STM32WBxx_HAL_Driver/Src/stm32wbxx_ll_usb.c **** 
 662:Drivers/STM32WBxx_HAL_Driver/Src/stm32wbxx_ll_usb.c **** /**
 663:Drivers/STM32WBxx_HAL_Driver/Src/stm32wbxx_ll_usb.c ****   * @brief  USB_ReadDevAllOutEpInterrupt: return the USB device OUT endpoints interrupt status
 664:Drivers/STM32WBxx_HAL_Driver/Src/stm32wbxx_ll_usb.c ****   * @param  USBx : Selected device
 665:Drivers/STM32WBxx_HAL_Driver/Src/stm32wbxx_ll_usb.c ****   * @retval HAL status
 666:Drivers/STM32WBxx_HAL_Driver/Src/stm32wbxx_ll_usb.c ****   */
 667:Drivers/STM32WBxx_HAL_Driver/Src/stm32wbxx_ll_usb.c **** uint32_t USB_ReadDevAllOutEpInterrupt(USB_TypeDef *USBx)
 668:Drivers/STM32WBxx_HAL_Driver/Src/stm32wbxx_ll_usb.c **** {
 1959              		.loc 1 668 1 is_stmt 1 view -0
 1960              		.cfi_startproc
 1961              		@ args = 0, pretend = 0, frame = 0
 1962              		@ frame_needed = 0, uses_anonymous_args = 0
 1963              		@ link register save eliminated.
 669:Drivers/STM32WBxx_HAL_Driver/Src/stm32wbxx_ll_usb.c ****   /* Prevent unused argument(s) compilation warning */
 670:Drivers/STM32WBxx_HAL_Driver/Src/stm32wbxx_ll_usb.c ****   UNUSED(USBx);
 1964              		.loc 1 670 3 view .LVU640
 671:Drivers/STM32WBxx_HAL_Driver/Src/stm32wbxx_ll_usb.c ****   /* NOTE : - This function is not required by USB Device FS peripheral, it is used
 672:Drivers/STM32WBxx_HAL_Driver/Src/stm32wbxx_ll_usb.c ****               only by USB OTG FS peripheral.
 673:Drivers/STM32WBxx_HAL_Driver/Src/stm32wbxx_ll_usb.c ****             - This function is added to ensure compatibility across platforms.
 674:Drivers/STM32WBxx_HAL_Driver/Src/stm32wbxx_ll_usb.c ****    */
 675:Drivers/STM32WBxx_HAL_Driver/Src/stm32wbxx_ll_usb.c ****   return (0);
 1965              		.loc 1 675 3 view .LVU641
 676:Drivers/STM32WBxx_HAL_Driver/Src/stm32wbxx_ll_usb.c **** }
 1966              		.loc 1 676 1 is_stmt 0 view .LVU642
 1967 0000 0020     		movs	r0, #0
 1968              	.LVL198:
 1969              		.loc 1 676 1 view .LVU643
 1970 0002 7047     		bx	lr
ARM GAS  /tmp/ccr3mP7A.s 			page 52


 1971              		.cfi_endproc
 1972              	.LFE961:
 1974              		.section	.text.USB_ReadDevAllInEpInterrupt,"ax",%progbits
 1975              		.align	1
 1976              		.global	USB_ReadDevAllInEpInterrupt
 1977              		.syntax unified
 1978              		.thumb
 1979              		.thumb_func
 1980              		.fpu fpv4-sp-d16
 1982              	USB_ReadDevAllInEpInterrupt:
 1983              	.LVL199:
 1984              	.LFB962:
 677:Drivers/STM32WBxx_HAL_Driver/Src/stm32wbxx_ll_usb.c **** 
 678:Drivers/STM32WBxx_HAL_Driver/Src/stm32wbxx_ll_usb.c **** /**
 679:Drivers/STM32WBxx_HAL_Driver/Src/stm32wbxx_ll_usb.c ****   * @brief  USB_ReadDevAllInEpInterrupt: return the USB device IN endpoints interrupt status
 680:Drivers/STM32WBxx_HAL_Driver/Src/stm32wbxx_ll_usb.c ****   * @param  USBx : Selected device
 681:Drivers/STM32WBxx_HAL_Driver/Src/stm32wbxx_ll_usb.c ****   * @retval HAL status
 682:Drivers/STM32WBxx_HAL_Driver/Src/stm32wbxx_ll_usb.c ****   */
 683:Drivers/STM32WBxx_HAL_Driver/Src/stm32wbxx_ll_usb.c **** uint32_t USB_ReadDevAllInEpInterrupt(USB_TypeDef *USBx)
 684:Drivers/STM32WBxx_HAL_Driver/Src/stm32wbxx_ll_usb.c **** {
 1985              		.loc 1 684 1 is_stmt 1 view -0
 1986              		.cfi_startproc
 1987              		@ args = 0, pretend = 0, frame = 0
 1988              		@ frame_needed = 0, uses_anonymous_args = 0
 1989              		@ link register save eliminated.
 685:Drivers/STM32WBxx_HAL_Driver/Src/stm32wbxx_ll_usb.c ****   /* Prevent unused argument(s) compilation warning */
 686:Drivers/STM32WBxx_HAL_Driver/Src/stm32wbxx_ll_usb.c ****   UNUSED(USBx);
 1990              		.loc 1 686 3 view .LVU645
 687:Drivers/STM32WBxx_HAL_Driver/Src/stm32wbxx_ll_usb.c ****   /* NOTE : - This function is not required by USB Device FS peripheral, it is used
 688:Drivers/STM32WBxx_HAL_Driver/Src/stm32wbxx_ll_usb.c ****               only by USB OTG FS peripheral.
 689:Drivers/STM32WBxx_HAL_Driver/Src/stm32wbxx_ll_usb.c ****             - This function is added to ensure compatibility across platforms.
 690:Drivers/STM32WBxx_HAL_Driver/Src/stm32wbxx_ll_usb.c ****    */
 691:Drivers/STM32WBxx_HAL_Driver/Src/stm32wbxx_ll_usb.c ****   return (0);
 1991              		.loc 1 691 3 view .LVU646
 692:Drivers/STM32WBxx_HAL_Driver/Src/stm32wbxx_ll_usb.c **** }
 1992              		.loc 1 692 1 is_stmt 0 view .LVU647
 1993 0000 0020     		movs	r0, #0
 1994              	.LVL200:
 1995              		.loc 1 692 1 view .LVU648
 1996 0002 7047     		bx	lr
 1997              		.cfi_endproc
 1998              	.LFE962:
 2000              		.section	.text.USB_ReadDevOutEPInterrupt,"ax",%progbits
 2001              		.align	1
 2002              		.global	USB_ReadDevOutEPInterrupt
 2003              		.syntax unified
 2004              		.thumb
 2005              		.thumb_func
 2006              		.fpu fpv4-sp-d16
 2008              	USB_ReadDevOutEPInterrupt:
 2009              	.LVL201:
 2010              	.LFB963:
 693:Drivers/STM32WBxx_HAL_Driver/Src/stm32wbxx_ll_usb.c **** 
 694:Drivers/STM32WBxx_HAL_Driver/Src/stm32wbxx_ll_usb.c **** /**
 695:Drivers/STM32WBxx_HAL_Driver/Src/stm32wbxx_ll_usb.c ****   * @brief  Returns Device OUT EP Interrupt register
 696:Drivers/STM32WBxx_HAL_Driver/Src/stm32wbxx_ll_usb.c ****   * @param  USBx : Selected device
 697:Drivers/STM32WBxx_HAL_Driver/Src/stm32wbxx_ll_usb.c ****   * @param  epnum : endpoint number
ARM GAS  /tmp/ccr3mP7A.s 			page 53


 698:Drivers/STM32WBxx_HAL_Driver/Src/stm32wbxx_ll_usb.c ****   *          This parameter can be a value from 0 to 15
 699:Drivers/STM32WBxx_HAL_Driver/Src/stm32wbxx_ll_usb.c ****   * @retval Device OUT EP Interrupt register
 700:Drivers/STM32WBxx_HAL_Driver/Src/stm32wbxx_ll_usb.c ****   */
 701:Drivers/STM32WBxx_HAL_Driver/Src/stm32wbxx_ll_usb.c **** uint32_t USB_ReadDevOutEPInterrupt(USB_TypeDef *USBx, uint8_t epnum)
 702:Drivers/STM32WBxx_HAL_Driver/Src/stm32wbxx_ll_usb.c **** {
 2011              		.loc 1 702 1 is_stmt 1 view -0
 2012              		.cfi_startproc
 2013              		@ args = 0, pretend = 0, frame = 0
 2014              		@ frame_needed = 0, uses_anonymous_args = 0
 2015              		@ link register save eliminated.
 703:Drivers/STM32WBxx_HAL_Driver/Src/stm32wbxx_ll_usb.c ****   /* Prevent unused argument(s) compilation warning */
 704:Drivers/STM32WBxx_HAL_Driver/Src/stm32wbxx_ll_usb.c ****   UNUSED(USBx);
 2016              		.loc 1 704 3 view .LVU650
 705:Drivers/STM32WBxx_HAL_Driver/Src/stm32wbxx_ll_usb.c ****   UNUSED(epnum);
 2017              		.loc 1 705 3 view .LVU651
 706:Drivers/STM32WBxx_HAL_Driver/Src/stm32wbxx_ll_usb.c ****   /* NOTE : - This function is not required by USB Device FS peripheral, it is used
 707:Drivers/STM32WBxx_HAL_Driver/Src/stm32wbxx_ll_usb.c ****               only by USB OTG FS peripheral.
 708:Drivers/STM32WBxx_HAL_Driver/Src/stm32wbxx_ll_usb.c ****             - This function is added to ensure compatibility across platforms.
 709:Drivers/STM32WBxx_HAL_Driver/Src/stm32wbxx_ll_usb.c ****    */
 710:Drivers/STM32WBxx_HAL_Driver/Src/stm32wbxx_ll_usb.c ****   return (0);
 2018              		.loc 1 710 3 view .LVU652
 711:Drivers/STM32WBxx_HAL_Driver/Src/stm32wbxx_ll_usb.c **** }
 2019              		.loc 1 711 1 is_stmt 0 view .LVU653
 2020 0000 0020     		movs	r0, #0
 2021              	.LVL202:
 2022              		.loc 1 711 1 view .LVU654
 2023 0002 7047     		bx	lr
 2024              		.cfi_endproc
 2025              	.LFE963:
 2027              		.section	.text.USB_ReadDevInEPInterrupt,"ax",%progbits
 2028              		.align	1
 2029              		.global	USB_ReadDevInEPInterrupt
 2030              		.syntax unified
 2031              		.thumb
 2032              		.thumb_func
 2033              		.fpu fpv4-sp-d16
 2035              	USB_ReadDevInEPInterrupt:
 2036              	.LVL203:
 2037              	.LFB964:
 712:Drivers/STM32WBxx_HAL_Driver/Src/stm32wbxx_ll_usb.c **** 
 713:Drivers/STM32WBxx_HAL_Driver/Src/stm32wbxx_ll_usb.c **** /**
 714:Drivers/STM32WBxx_HAL_Driver/Src/stm32wbxx_ll_usb.c ****   * @brief  Returns Device IN EP Interrupt register
 715:Drivers/STM32WBxx_HAL_Driver/Src/stm32wbxx_ll_usb.c ****   * @param  USBx : Selected device
 716:Drivers/STM32WBxx_HAL_Driver/Src/stm32wbxx_ll_usb.c ****   * @param  epnum : endpoint number
 717:Drivers/STM32WBxx_HAL_Driver/Src/stm32wbxx_ll_usb.c ****   *          This parameter can be a value from 0 to 15
 718:Drivers/STM32WBxx_HAL_Driver/Src/stm32wbxx_ll_usb.c ****   * @retval Device IN EP Interrupt register
 719:Drivers/STM32WBxx_HAL_Driver/Src/stm32wbxx_ll_usb.c ****   */
 720:Drivers/STM32WBxx_HAL_Driver/Src/stm32wbxx_ll_usb.c **** uint32_t USB_ReadDevInEPInterrupt(USB_TypeDef *USBx, uint8_t epnum)
 721:Drivers/STM32WBxx_HAL_Driver/Src/stm32wbxx_ll_usb.c **** {
 2038              		.loc 1 721 1 is_stmt 1 view -0
 2039              		.cfi_startproc
 2040              		@ args = 0, pretend = 0, frame = 0
 2041              		@ frame_needed = 0, uses_anonymous_args = 0
 2042              		@ link register save eliminated.
 722:Drivers/STM32WBxx_HAL_Driver/Src/stm32wbxx_ll_usb.c ****   /* Prevent unused argument(s) compilation warning */
 723:Drivers/STM32WBxx_HAL_Driver/Src/stm32wbxx_ll_usb.c ****   UNUSED(USBx);
 2043              		.loc 1 723 3 view .LVU656
ARM GAS  /tmp/ccr3mP7A.s 			page 54


 724:Drivers/STM32WBxx_HAL_Driver/Src/stm32wbxx_ll_usb.c ****   UNUSED(epnum);
 2044              		.loc 1 724 3 view .LVU657
 725:Drivers/STM32WBxx_HAL_Driver/Src/stm32wbxx_ll_usb.c ****   /* NOTE : - This function is not required by USB Device FS peripheral, it is used
 726:Drivers/STM32WBxx_HAL_Driver/Src/stm32wbxx_ll_usb.c ****               only by USB OTG FS peripheral.
 727:Drivers/STM32WBxx_HAL_Driver/Src/stm32wbxx_ll_usb.c ****             - This function is added to ensure compatibility across platforms.
 728:Drivers/STM32WBxx_HAL_Driver/Src/stm32wbxx_ll_usb.c ****    */
 729:Drivers/STM32WBxx_HAL_Driver/Src/stm32wbxx_ll_usb.c ****   return (0);
 2045              		.loc 1 729 3 view .LVU658
 730:Drivers/STM32WBxx_HAL_Driver/Src/stm32wbxx_ll_usb.c **** }
 2046              		.loc 1 730 1 is_stmt 0 view .LVU659
 2047 0000 0020     		movs	r0, #0
 2048              	.LVL204:
 2049              		.loc 1 730 1 view .LVU660
 2050 0002 7047     		bx	lr
 2051              		.cfi_endproc
 2052              	.LFE964:
 2054              		.section	.text.USB_ClearInterrupts,"ax",%progbits
 2055              		.align	1
 2056              		.global	USB_ClearInterrupts
 2057              		.syntax unified
 2058              		.thumb
 2059              		.thumb_func
 2060              		.fpu fpv4-sp-d16
 2062              	USB_ClearInterrupts:
 2063              	.LVL205:
 2064              	.LFB965:
 731:Drivers/STM32WBxx_HAL_Driver/Src/stm32wbxx_ll_usb.c **** 
 732:Drivers/STM32WBxx_HAL_Driver/Src/stm32wbxx_ll_usb.c **** /**
 733:Drivers/STM32WBxx_HAL_Driver/Src/stm32wbxx_ll_usb.c ****   * @brief  USB_ClearInterrupts: clear a USB interrupt
 734:Drivers/STM32WBxx_HAL_Driver/Src/stm32wbxx_ll_usb.c ****   * @param  USBx  Selected device
 735:Drivers/STM32WBxx_HAL_Driver/Src/stm32wbxx_ll_usb.c ****   * @param  interrupt  interrupt flag
 736:Drivers/STM32WBxx_HAL_Driver/Src/stm32wbxx_ll_usb.c ****   * @retval None
 737:Drivers/STM32WBxx_HAL_Driver/Src/stm32wbxx_ll_usb.c ****   */
 738:Drivers/STM32WBxx_HAL_Driver/Src/stm32wbxx_ll_usb.c **** void  USB_ClearInterrupts(USB_TypeDef *USBx, uint32_t interrupt)
 739:Drivers/STM32WBxx_HAL_Driver/Src/stm32wbxx_ll_usb.c **** {
 2065              		.loc 1 739 1 is_stmt 1 view -0
 2066              		.cfi_startproc
 2067              		@ args = 0, pretend = 0, frame = 0
 2068              		@ frame_needed = 0, uses_anonymous_args = 0
 2069              		@ link register save eliminated.
 740:Drivers/STM32WBxx_HAL_Driver/Src/stm32wbxx_ll_usb.c ****   /* Prevent unused argument(s) compilation warning */
 741:Drivers/STM32WBxx_HAL_Driver/Src/stm32wbxx_ll_usb.c ****   UNUSED(USBx);
 2070              		.loc 1 741 3 view .LVU662
 742:Drivers/STM32WBxx_HAL_Driver/Src/stm32wbxx_ll_usb.c ****   UNUSED(interrupt);
 2071              		.loc 1 742 3 view .LVU663
 743:Drivers/STM32WBxx_HAL_Driver/Src/stm32wbxx_ll_usb.c ****   /* NOTE : - This function is not required by USB Device FS peripheral, it is used
 744:Drivers/STM32WBxx_HAL_Driver/Src/stm32wbxx_ll_usb.c ****               only by USB OTG FS peripheral.
 745:Drivers/STM32WBxx_HAL_Driver/Src/stm32wbxx_ll_usb.c ****             - This function is added to ensure compatibility across platforms.
 746:Drivers/STM32WBxx_HAL_Driver/Src/stm32wbxx_ll_usb.c ****    */
 747:Drivers/STM32WBxx_HAL_Driver/Src/stm32wbxx_ll_usb.c **** }
 2072              		.loc 1 747 1 is_stmt 0 view .LVU664
 2073 0000 7047     		bx	lr
 2074              		.cfi_endproc
 2075              	.LFE965:
 2077              		.section	.text.USB_EP0_OutStart,"ax",%progbits
 2078              		.align	1
 2079              		.global	USB_EP0_OutStart
ARM GAS  /tmp/ccr3mP7A.s 			page 55


 2080              		.syntax unified
 2081              		.thumb
 2082              		.thumb_func
 2083              		.fpu fpv4-sp-d16
 2085              	USB_EP0_OutStart:
 2086              	.LVL206:
 2087              	.LFB966:
 748:Drivers/STM32WBxx_HAL_Driver/Src/stm32wbxx_ll_usb.c **** 
 749:Drivers/STM32WBxx_HAL_Driver/Src/stm32wbxx_ll_usb.c **** /**
 750:Drivers/STM32WBxx_HAL_Driver/Src/stm32wbxx_ll_usb.c ****   * @brief  Prepare the EP0 to start the first control setup
 751:Drivers/STM32WBxx_HAL_Driver/Src/stm32wbxx_ll_usb.c ****   * @param  USBx  Selected device
 752:Drivers/STM32WBxx_HAL_Driver/Src/stm32wbxx_ll_usb.c ****   * @param  psetup  pointer to setup packet
 753:Drivers/STM32WBxx_HAL_Driver/Src/stm32wbxx_ll_usb.c ****   * @retval HAL status
 754:Drivers/STM32WBxx_HAL_Driver/Src/stm32wbxx_ll_usb.c ****   */
 755:Drivers/STM32WBxx_HAL_Driver/Src/stm32wbxx_ll_usb.c **** HAL_StatusTypeDef USB_EP0_OutStart(USB_TypeDef *USBx, uint8_t *psetup)
 756:Drivers/STM32WBxx_HAL_Driver/Src/stm32wbxx_ll_usb.c **** {
 2088              		.loc 1 756 1 is_stmt 1 view -0
 2089              		.cfi_startproc
 2090              		@ args = 0, pretend = 0, frame = 0
 2091              		@ frame_needed = 0, uses_anonymous_args = 0
 2092              		@ link register save eliminated.
 757:Drivers/STM32WBxx_HAL_Driver/Src/stm32wbxx_ll_usb.c ****   /* Prevent unused argument(s) compilation warning */
 758:Drivers/STM32WBxx_HAL_Driver/Src/stm32wbxx_ll_usb.c ****   UNUSED(USBx);
 2093              		.loc 1 758 3 view .LVU666
 759:Drivers/STM32WBxx_HAL_Driver/Src/stm32wbxx_ll_usb.c ****   UNUSED(psetup);
 2094              		.loc 1 759 3 view .LVU667
 760:Drivers/STM32WBxx_HAL_Driver/Src/stm32wbxx_ll_usb.c ****   /* NOTE : - This function is not required by USB Device FS peripheral, it is used
 761:Drivers/STM32WBxx_HAL_Driver/Src/stm32wbxx_ll_usb.c ****               only by USB OTG FS peripheral.
 762:Drivers/STM32WBxx_HAL_Driver/Src/stm32wbxx_ll_usb.c ****             - This function is added to ensure compatibility across platforms.
 763:Drivers/STM32WBxx_HAL_Driver/Src/stm32wbxx_ll_usb.c ****    */
 764:Drivers/STM32WBxx_HAL_Driver/Src/stm32wbxx_ll_usb.c ****   return HAL_OK;
 2095              		.loc 1 764 3 view .LVU668
 765:Drivers/STM32WBxx_HAL_Driver/Src/stm32wbxx_ll_usb.c **** }
 2096              		.loc 1 765 1 is_stmt 0 view .LVU669
 2097 0000 0020     		movs	r0, #0
 2098              	.LVL207:
 2099              		.loc 1 765 1 view .LVU670
 2100 0002 7047     		bx	lr
 2101              		.cfi_endproc
 2102              	.LFE966:
 2104              		.section	.text.USB_ActivateRemoteWakeup,"ax",%progbits
 2105              		.align	1
 2106              		.global	USB_ActivateRemoteWakeup
 2107              		.syntax unified
 2108              		.thumb
 2109              		.thumb_func
 2110              		.fpu fpv4-sp-d16
 2112              	USB_ActivateRemoteWakeup:
 2113              	.LVL208:
 2114              	.LFB967:
 766:Drivers/STM32WBxx_HAL_Driver/Src/stm32wbxx_ll_usb.c **** 
 767:Drivers/STM32WBxx_HAL_Driver/Src/stm32wbxx_ll_usb.c **** /**
 768:Drivers/STM32WBxx_HAL_Driver/Src/stm32wbxx_ll_usb.c ****   * @brief  USB_ActivateRemoteWakeup : active remote wakeup signalling
 769:Drivers/STM32WBxx_HAL_Driver/Src/stm32wbxx_ll_usb.c ****   * @param  USBx  Selected device
 770:Drivers/STM32WBxx_HAL_Driver/Src/stm32wbxx_ll_usb.c ****   * @retval HAL status
 771:Drivers/STM32WBxx_HAL_Driver/Src/stm32wbxx_ll_usb.c ****   */
 772:Drivers/STM32WBxx_HAL_Driver/Src/stm32wbxx_ll_usb.c **** HAL_StatusTypeDef USB_ActivateRemoteWakeup(USB_TypeDef *USBx)
ARM GAS  /tmp/ccr3mP7A.s 			page 56


 773:Drivers/STM32WBxx_HAL_Driver/Src/stm32wbxx_ll_usb.c **** {
 2115              		.loc 1 773 1 is_stmt 1 view -0
 2116              		.cfi_startproc
 2117              		@ args = 0, pretend = 0, frame = 0
 2118              		@ frame_needed = 0, uses_anonymous_args = 0
 2119              		@ link register save eliminated.
 774:Drivers/STM32WBxx_HAL_Driver/Src/stm32wbxx_ll_usb.c ****   USBx->CNTR |= USB_CNTR_RESUME;
 2120              		.loc 1 774 3 view .LVU672
 2121              		.loc 1 774 14 is_stmt 0 view .LVU673
 2122 0000 B0F84030 		ldrh	r3, [r0, #64]
 2123 0004 9BB2     		uxth	r3, r3
 2124 0006 43F01003 		orr	r3, r3, #16
 2125 000a A0F84030 		strh	r3, [r0, #64]	@ movhi
 775:Drivers/STM32WBxx_HAL_Driver/Src/stm32wbxx_ll_usb.c **** 
 776:Drivers/STM32WBxx_HAL_Driver/Src/stm32wbxx_ll_usb.c ****   return HAL_OK;
 2126              		.loc 1 776 3 is_stmt 1 view .LVU674
 777:Drivers/STM32WBxx_HAL_Driver/Src/stm32wbxx_ll_usb.c **** }
 2127              		.loc 1 777 1 is_stmt 0 view .LVU675
 2128 000e 0020     		movs	r0, #0
 2129              	.LVL209:
 2130              		.loc 1 777 1 view .LVU676
 2131 0010 7047     		bx	lr
 2132              		.cfi_endproc
 2133              	.LFE967:
 2135              		.section	.text.USB_DeActivateRemoteWakeup,"ax",%progbits
 2136              		.align	1
 2137              		.global	USB_DeActivateRemoteWakeup
 2138              		.syntax unified
 2139              		.thumb
 2140              		.thumb_func
 2141              		.fpu fpv4-sp-d16
 2143              	USB_DeActivateRemoteWakeup:
 2144              	.LVL210:
 2145              	.LFB968:
 778:Drivers/STM32WBxx_HAL_Driver/Src/stm32wbxx_ll_usb.c **** 
 779:Drivers/STM32WBxx_HAL_Driver/Src/stm32wbxx_ll_usb.c **** /**
 780:Drivers/STM32WBxx_HAL_Driver/Src/stm32wbxx_ll_usb.c ****   * @brief  USB_DeActivateRemoteWakeup : de-active remote wakeup signalling
 781:Drivers/STM32WBxx_HAL_Driver/Src/stm32wbxx_ll_usb.c ****   * @param  USBx  Selected device
 782:Drivers/STM32WBxx_HAL_Driver/Src/stm32wbxx_ll_usb.c ****   * @retval HAL status
 783:Drivers/STM32WBxx_HAL_Driver/Src/stm32wbxx_ll_usb.c ****   */
 784:Drivers/STM32WBxx_HAL_Driver/Src/stm32wbxx_ll_usb.c **** HAL_StatusTypeDef USB_DeActivateRemoteWakeup(USB_TypeDef *USBx)
 785:Drivers/STM32WBxx_HAL_Driver/Src/stm32wbxx_ll_usb.c **** {
 2146              		.loc 1 785 1 is_stmt 1 view -0
 2147              		.cfi_startproc
 2148              		@ args = 0, pretend = 0, frame = 0
 2149              		@ frame_needed = 0, uses_anonymous_args = 0
 2150              		@ link register save eliminated.
 786:Drivers/STM32WBxx_HAL_Driver/Src/stm32wbxx_ll_usb.c ****   USBx->CNTR &= ~(USB_CNTR_RESUME);
 2151              		.loc 1 786 3 view .LVU678
 2152              		.loc 1 786 14 is_stmt 0 view .LVU679
 2153 0000 B0F84030 		ldrh	r3, [r0, #64]
 2154 0004 9BB2     		uxth	r3, r3
 2155 0006 23F01003 		bic	r3, r3, #16
 2156 000a 9BB2     		uxth	r3, r3
 2157 000c A0F84030 		strh	r3, [r0, #64]	@ movhi
 787:Drivers/STM32WBxx_HAL_Driver/Src/stm32wbxx_ll_usb.c ****   return HAL_OK;
 2158              		.loc 1 787 3 is_stmt 1 view .LVU680
ARM GAS  /tmp/ccr3mP7A.s 			page 57


 788:Drivers/STM32WBxx_HAL_Driver/Src/stm32wbxx_ll_usb.c **** }
 2159              		.loc 1 788 1 is_stmt 0 view .LVU681
 2160 0010 0020     		movs	r0, #0
 2161              	.LVL211:
 2162              		.loc 1 788 1 view .LVU682
 2163 0012 7047     		bx	lr
 2164              		.cfi_endproc
 2165              	.LFE968:
 2167              		.section	.text.USB_WritePMA,"ax",%progbits
 2168              		.align	1
 2169              		.global	USB_WritePMA
 2170              		.syntax unified
 2171              		.thumb
 2172              		.thumb_func
 2173              		.fpu fpv4-sp-d16
 2175              	USB_WritePMA:
 2176              	.LVL212:
 2177              	.LFB969:
 789:Drivers/STM32WBxx_HAL_Driver/Src/stm32wbxx_ll_usb.c **** 
 790:Drivers/STM32WBxx_HAL_Driver/Src/stm32wbxx_ll_usb.c **** /**
 791:Drivers/STM32WBxx_HAL_Driver/Src/stm32wbxx_ll_usb.c ****   * @brief Copy a buffer from user memory area to packet memory area (PMA)
 792:Drivers/STM32WBxx_HAL_Driver/Src/stm32wbxx_ll_usb.c ****   * @param   USBx USB peripheral instance register address.
 793:Drivers/STM32WBxx_HAL_Driver/Src/stm32wbxx_ll_usb.c ****   * @param   pbUsrBuf pointer to user memory area.
 794:Drivers/STM32WBxx_HAL_Driver/Src/stm32wbxx_ll_usb.c ****   * @param   wPMABufAddr address into PMA.
 795:Drivers/STM32WBxx_HAL_Driver/Src/stm32wbxx_ll_usb.c ****   * @param   wNBytes: no. of bytes to be copied.
 796:Drivers/STM32WBxx_HAL_Driver/Src/stm32wbxx_ll_usb.c ****   * @retval None
 797:Drivers/STM32WBxx_HAL_Driver/Src/stm32wbxx_ll_usb.c ****   */
 798:Drivers/STM32WBxx_HAL_Driver/Src/stm32wbxx_ll_usb.c **** void USB_WritePMA(USB_TypeDef *USBx, uint8_t *pbUsrBuf, uint16_t wPMABufAddr, uint16_t wNBytes)
 799:Drivers/STM32WBxx_HAL_Driver/Src/stm32wbxx_ll_usb.c **** {
 2178              		.loc 1 799 1 is_stmt 1 view -0
 2179              		.cfi_startproc
 2180              		@ args = 0, pretend = 0, frame = 0
 2181              		@ frame_needed = 0, uses_anonymous_args = 0
 2182              		@ link register save eliminated.
 2183              		.loc 1 799 1 is_stmt 0 view .LVU684
 2184 0000 10B4     		push	{r4}
 2185              	.LCFI12:
 2186              		.cfi_def_cfa_offset 4
 2187              		.cfi_offset 4, -4
 800:Drivers/STM32WBxx_HAL_Driver/Src/stm32wbxx_ll_usb.c ****   uint32_t n = ((uint32_t)wNBytes + 1U) >> 1;
 2188              		.loc 1 800 3 is_stmt 1 view .LVU685
 2189              		.loc 1 800 35 is_stmt 0 view .LVU686
 2190 0002 5C1C     		adds	r4, r3, #1
 2191              		.loc 1 800 12 view .LVU687
 2192 0004 6408     		lsrs	r4, r4, #1
 2193              	.LVL213:
 801:Drivers/STM32WBxx_HAL_Driver/Src/stm32wbxx_ll_usb.c ****   uint32_t BaseAddr = (uint32_t)USBx;
 2194              		.loc 1 801 3 is_stmt 1 view .LVU688
 802:Drivers/STM32WBxx_HAL_Driver/Src/stm32wbxx_ll_usb.c ****   uint32_t i, temp1, temp2;
 2195              		.loc 1 802 3 view .LVU689
 803:Drivers/STM32WBxx_HAL_Driver/Src/stm32wbxx_ll_usb.c ****   __IO uint16_t *pdwVal;
 2196              		.loc 1 803 3 view .LVU690
 804:Drivers/STM32WBxx_HAL_Driver/Src/stm32wbxx_ll_usb.c ****   uint8_t *pBuf = pbUsrBuf;
 2197              		.loc 1 804 3 view .LVU691
 805:Drivers/STM32WBxx_HAL_Driver/Src/stm32wbxx_ll_usb.c **** 
 806:Drivers/STM32WBxx_HAL_Driver/Src/stm32wbxx_ll_usb.c ****   pdwVal = (__IO uint16_t *)(BaseAddr + 0x400U + ((uint32_t)wPMABufAddr * PMA_ACCESS));
 2198              		.loc 1 806 3 view .LVU692
ARM GAS  /tmp/ccr3mP7A.s 			page 58


 2199              		.loc 1 806 48 is_stmt 0 view .LVU693
 2200 0006 0244     		add	r2, r2, r0
 2201              	.LVL214:
 2202              		.loc 1 806 48 view .LVU694
 2203 0008 02F58062 		add	r2, r2, #1024
 2204              	.LVL215:
 807:Drivers/STM32WBxx_HAL_Driver/Src/stm32wbxx_ll_usb.c **** 
 808:Drivers/STM32WBxx_HAL_Driver/Src/stm32wbxx_ll_usb.c ****   for (i = n; i != 0U; i--)
 2205              		.loc 1 808 3 is_stmt 1 view .LVU695
 2206              	.L76:
 2207              		.loc 1 808 15 discriminator 1 view .LVU696
 2208              		.loc 1 808 3 is_stmt 0 discriminator 1 view .LVU697
 2209 000c 44B1     		cbz	r4, .L79
 809:Drivers/STM32WBxx_HAL_Driver/Src/stm32wbxx_ll_usb.c ****   {
 810:Drivers/STM32WBxx_HAL_Driver/Src/stm32wbxx_ll_usb.c ****     temp1 = *pBuf;
 2210              		.loc 1 810 5 is_stmt 1 discriminator 3 view .LVU698
 2211              		.loc 1 810 13 is_stmt 0 discriminator 3 view .LVU699
 2212 000e 0B78     		ldrb	r3, [r1]	@ zero_extendqisi2
 2213              	.LVL216:
 811:Drivers/STM32WBxx_HAL_Driver/Src/stm32wbxx_ll_usb.c ****     pBuf++;
 2214              		.loc 1 811 5 is_stmt 1 discriminator 3 view .LVU700
 812:Drivers/STM32WBxx_HAL_Driver/Src/stm32wbxx_ll_usb.c ****     temp2 = temp1 | ((uint16_t)((uint16_t) *pBuf << 8));
 2215              		.loc 1 812 5 discriminator 3 view .LVU701
 2216              		.loc 1 812 44 is_stmt 0 discriminator 3 view .LVU702
 2217 0010 4878     		ldrb	r0, [r1, #1]	@ zero_extendqisi2
 2218              	.LVL217:
 813:Drivers/STM32WBxx_HAL_Driver/Src/stm32wbxx_ll_usb.c ****     *pdwVal = (uint16_t)temp2;
 2219              		.loc 1 813 5 is_stmt 1 discriminator 3 view .LVU703
 2220              		.loc 1 813 15 is_stmt 0 discriminator 3 view .LVU704
 2221 0012 43EA0023 		orr	r3, r3, r0, lsl #8
 2222              	.LVL218:
 2223              		.loc 1 813 13 discriminator 3 view .LVU705
 2224 0016 22F8023B 		strh	r3, [r2], #2	@ movhi
 2225              	.LVL219:
 814:Drivers/STM32WBxx_HAL_Driver/Src/stm32wbxx_ll_usb.c ****     pdwVal++;
 2226              		.loc 1 814 5 is_stmt 1 discriminator 3 view .LVU706
 815:Drivers/STM32WBxx_HAL_Driver/Src/stm32wbxx_ll_usb.c **** 
 816:Drivers/STM32WBxx_HAL_Driver/Src/stm32wbxx_ll_usb.c **** #if PMA_ACCESS > 1U
 817:Drivers/STM32WBxx_HAL_Driver/Src/stm32wbxx_ll_usb.c ****     pdwVal++;
 818:Drivers/STM32WBxx_HAL_Driver/Src/stm32wbxx_ll_usb.c **** #endif
 819:Drivers/STM32WBxx_HAL_Driver/Src/stm32wbxx_ll_usb.c **** 
 820:Drivers/STM32WBxx_HAL_Driver/Src/stm32wbxx_ll_usb.c ****     pBuf++;
 2227              		.loc 1 820 5 discriminator 3 view .LVU707
 2228              		.loc 1 820 9 is_stmt 0 discriminator 3 view .LVU708
 2229 001a 0231     		adds	r1, r1, #2
 2230              	.LVL220:
 808:Drivers/STM32WBxx_HAL_Driver/Src/stm32wbxx_ll_usb.c ****   {
 2231              		.loc 1 808 24 is_stmt 1 discriminator 3 view .LVU709
 808:Drivers/STM32WBxx_HAL_Driver/Src/stm32wbxx_ll_usb.c ****   {
 2232              		.loc 1 808 25 is_stmt 0 discriminator 3 view .LVU710
 2233 001c 013C     		subs	r4, r4, #1
 2234              	.LVL221:
 808:Drivers/STM32WBxx_HAL_Driver/Src/stm32wbxx_ll_usb.c ****   {
 2235              		.loc 1 808 25 discriminator 3 view .LVU711
 2236 001e F5E7     		b	.L76
 2237              	.LVL222:
 2238              	.L79:
ARM GAS  /tmp/ccr3mP7A.s 			page 59


 821:Drivers/STM32WBxx_HAL_Driver/Src/stm32wbxx_ll_usb.c ****   }
 822:Drivers/STM32WBxx_HAL_Driver/Src/stm32wbxx_ll_usb.c **** }
 2239              		.loc 1 822 1 view .LVU712
 2240 0020 5DF8044B 		ldr	r4, [sp], #4
 2241              	.LCFI13:
 2242              		.cfi_restore 4
 2243              		.cfi_def_cfa_offset 0
 2244              	.LVL223:
 2245              		.loc 1 822 1 view .LVU713
 2246 0024 7047     		bx	lr
 2247              		.cfi_endproc
 2248              	.LFE969:
 2250              		.section	.text.USB_EPStartXfer,"ax",%progbits
 2251              		.align	1
 2252              		.global	USB_EPStartXfer
 2253              		.syntax unified
 2254              		.thumb
 2255              		.thumb_func
 2256              		.fpu fpv4-sp-d16
 2258              	USB_EPStartXfer:
 2259              	.LVL224:
 2260              	.LFB951:
 412:Drivers/STM32WBxx_HAL_Driver/Src/stm32wbxx_ll_usb.c ****   uint16_t pmabuffer;
 2261              		.loc 1 412 1 is_stmt 1 view -0
 2262              		.cfi_startproc
 2263              		@ args = 0, pretend = 0, frame = 0
 2264              		@ frame_needed = 0, uses_anonymous_args = 0
 412:Drivers/STM32WBxx_HAL_Driver/Src/stm32wbxx_ll_usb.c ****   uint16_t pmabuffer;
 2265              		.loc 1 412 1 is_stmt 0 view .LVU715
 2266 0000 70B5     		push	{r4, r5, r6, lr}
 2267              	.LCFI14:
 2268              		.cfi_def_cfa_offset 16
 2269              		.cfi_offset 4, -16
 2270              		.cfi_offset 5, -12
 2271              		.cfi_offset 6, -8
 2272              		.cfi_offset 14, -4
 2273 0002 0546     		mov	r5, r0
 2274 0004 0C46     		mov	r4, r1
 413:Drivers/STM32WBxx_HAL_Driver/Src/stm32wbxx_ll_usb.c ****   uint32_t len;
 2275              		.loc 1 413 3 is_stmt 1 view .LVU716
 414:Drivers/STM32WBxx_HAL_Driver/Src/stm32wbxx_ll_usb.c **** 
 2276              		.loc 1 414 3 view .LVU717
 417:Drivers/STM32WBxx_HAL_Driver/Src/stm32wbxx_ll_usb.c ****   {
 2277              		.loc 1 417 3 view .LVU718
 417:Drivers/STM32WBxx_HAL_Driver/Src/stm32wbxx_ll_usb.c ****   {
 2278              		.loc 1 417 9 is_stmt 0 view .LVU719
 2279 0006 4978     		ldrb	r1, [r1, #1]	@ zero_extendqisi2
 2280              	.LVL225:
 417:Drivers/STM32WBxx_HAL_Driver/Src/stm32wbxx_ll_usb.c ****   {
 2281              		.loc 1 417 6 view .LVU720
 2282 0008 0129     		cmp	r1, #1
 2283 000a 30D0     		beq	.L116
 461:Drivers/STM32WBxx_HAL_Driver/Src/stm32wbxx_ll_usb.c ****     {
 2284              		.loc 1 461 5 is_stmt 1 view .LVU721
 461:Drivers/STM32WBxx_HAL_Driver/Src/stm32wbxx_ll_usb.c ****     {
 2285              		.loc 1 461 11 is_stmt 0 view .LVU722
 2286 000c A269     		ldr	r2, [r4, #24]
ARM GAS  /tmp/ccr3mP7A.s 			page 60


 461:Drivers/STM32WBxx_HAL_Driver/Src/stm32wbxx_ll_usb.c ****     {
 2287              		.loc 1 461 26 view .LVU723
 2288 000e 2369     		ldr	r3, [r4, #16]
 461:Drivers/STM32WBxx_HAL_Driver/Src/stm32wbxx_ll_usb.c ****     {
 2289              		.loc 1 461 8 view .LVU724
 2290 0010 9A42     		cmp	r2, r3
 2291 0012 40F2E680 		bls	.L100
 463:Drivers/STM32WBxx_HAL_Driver/Src/stm32wbxx_ll_usb.c ****       ep->xfer_len -= len;
 2292              		.loc 1 463 7 is_stmt 1 view .LVU725
 2293              	.LVL226:
 464:Drivers/STM32WBxx_HAL_Driver/Src/stm32wbxx_ll_usb.c ****     }
 2294              		.loc 1 464 7 view .LVU726
 464:Drivers/STM32WBxx_HAL_Driver/Src/stm32wbxx_ll_usb.c ****     }
 2295              		.loc 1 464 20 is_stmt 0 view .LVU727
 2296 0016 D21A     		subs	r2, r2, r3
 2297 0018 A261     		str	r2, [r4, #24]
 2298              	.L101:
 473:Drivers/STM32WBxx_HAL_Driver/Src/stm32wbxx_ll_usb.c ****     {
 2299              		.loc 1 473 5 is_stmt 1 view .LVU728
 473:Drivers/STM32WBxx_HAL_Driver/Src/stm32wbxx_ll_usb.c ****     {
 2300              		.loc 1 473 11 is_stmt 0 view .LVU729
 2301 001a 227B     		ldrb	r2, [r4, #12]	@ zero_extendqisi2
 473:Drivers/STM32WBxx_HAL_Driver/Src/stm32wbxx_ll_usb.c ****     {
 2302              		.loc 1 473 8 view .LVU730
 2303 001c 002A     		cmp	r2, #0
 2304 001e 40F0F780 		bne	.L102
 476:Drivers/STM32WBxx_HAL_Driver/Src/stm32wbxx_ll_usb.c ****     }
 2305              		.loc 1 476 7 is_stmt 1 view .LVU731
 2306              	.LBB62:
 476:Drivers/STM32WBxx_HAL_Driver/Src/stm32wbxx_ll_usb.c ****     }
 2307              		.loc 1 476 7 view .LVU732
 2308              	.LVL227:
 476:Drivers/STM32WBxx_HAL_Driver/Src/stm32wbxx_ll_usb.c ****     }
 2309              		.loc 1 476 7 view .LVU733
 476:Drivers/STM32WBxx_HAL_Driver/Src/stm32wbxx_ll_usb.c ****     }
 2310              		.loc 1 476 7 view .LVU734
 2311 0022 B5F85020 		ldrh	r2, [r5, #80]
 2312 0026 15FA82F2 		uxtah	r2, r5, r2
 2313              	.LVL228:
 476:Drivers/STM32WBxx_HAL_Driver/Src/stm32wbxx_ll_usb.c ****     }
 2314              		.loc 1 476 7 view .LVU735
 2315 002a 2178     		ldrb	r1, [r4]	@ zero_extendqisi2
 2316 002c 02EBC102 		add	r2, r2, r1, lsl #3
 2317              	.LVL229:
 476:Drivers/STM32WBxx_HAL_Driver/Src/stm32wbxx_ll_usb.c ****     }
 2318              		.loc 1 476 7 view .LVU736
 2319              	.LBB63:
 476:Drivers/STM32WBxx_HAL_Driver/Src/stm32wbxx_ll_usb.c ****     }
 2320              		.loc 1 476 7 view .LVU737
 476:Drivers/STM32WBxx_HAL_Driver/Src/stm32wbxx_ll_usb.c ****     }
 2321              		.loc 1 476 7 view .LVU738
 2322 0030 002B     		cmp	r3, #0
 2323 0032 40F0DA80 		bne	.L103
 476:Drivers/STM32WBxx_HAL_Driver/Src/stm32wbxx_ll_usb.c ****     }
 2324              		.loc 1 476 7 discriminator 1 view .LVU739
 2325 0036 B2F80634 		ldrh	r3, [r2, #1030]
 2326              	.LVL230:
ARM GAS  /tmp/ccr3mP7A.s 			page 61


 476:Drivers/STM32WBxx_HAL_Driver/Src/stm32wbxx_ll_usb.c ****     }
 2327              		.loc 1 476 7 is_stmt 0 discriminator 1 view .LVU740
 2328 003a 23F4F843 		bic	r3, r3, #31744
 476:Drivers/STM32WBxx_HAL_Driver/Src/stm32wbxx_ll_usb.c ****     }
 2329              		.loc 1 476 7 is_stmt 1 discriminator 1 view .LVU741
 2330 003e 6FEA4343 		mvn	r3, r3, lsl #17
 2331 0042 6FEA5343 		mvn	r3, r3, lsr #17
 2332 0046 A2F80634 		strh	r3, [r2, #1030]	@ movhi
 2333              	.LVL231:
 2334              	.L104:
 476:Drivers/STM32WBxx_HAL_Driver/Src/stm32wbxx_ll_usb.c ****     }
 2335              		.loc 1 476 7 is_stmt 0 discriminator 1 view .LVU742
 2336              	.LBE63:
 2337              	.LBE62:
 481:Drivers/STM32WBxx_HAL_Driver/Src/stm32wbxx_ll_usb.c ****     }
 2338              		.loc 1 481 7 is_stmt 1 discriminator 30 view .LVU743
 481:Drivers/STM32WBxx_HAL_Driver/Src/stm32wbxx_ll_usb.c ****     }
 2339              		.loc 1 481 7 discriminator 30 view .LVU744
 484:Drivers/STM32WBxx_HAL_Driver/Src/stm32wbxx_ll_usb.c ****   }
 2340              		.loc 1 484 5 discriminator 30 view .LVU745
 2341              	.LBB65:
 484:Drivers/STM32WBxx_HAL_Driver/Src/stm32wbxx_ll_usb.c ****   }
 2342              		.loc 1 484 5 discriminator 30 view .LVU746
 484:Drivers/STM32WBxx_HAL_Driver/Src/stm32wbxx_ll_usb.c ****   }
 2343              		.loc 1 484 5 discriminator 30 view .LVU747
 2344 004a 2278     		ldrb	r2, [r4]	@ zero_extendqisi2
 2345 004c 35F82230 		ldrh	r3, [r5, r2, lsl #2]
 2346 0050 9BB2     		uxth	r3, r3
 2347 0052 23F48043 		bic	r3, r3, #16384
 2348 0056 23F07003 		bic	r3, r3, #112
 2349              	.LVL232:
 484:Drivers/STM32WBxx_HAL_Driver/Src/stm32wbxx_ll_usb.c ****   }
 2350              		.loc 1 484 5 discriminator 30 view .LVU748
 484:Drivers/STM32WBxx_HAL_Driver/Src/stm32wbxx_ll_usb.c ****   }
 2351              		.loc 1 484 5 discriminator 30 view .LVU749
 484:Drivers/STM32WBxx_HAL_Driver/Src/stm32wbxx_ll_usb.c ****   }
 2352              		.loc 1 484 5 discriminator 30 view .LVU750
 484:Drivers/STM32WBxx_HAL_Driver/Src/stm32wbxx_ll_usb.c ****   }
 2353              		.loc 1 484 5 discriminator 30 view .LVU751
 2354 005a 83F44053 		eor	r3, r3, #12288
 2355              	.LVL233:
 484:Drivers/STM32WBxx_HAL_Driver/Src/stm32wbxx_ll_usb.c ****   }
 2356              		.loc 1 484 5 discriminator 30 view .LVU752
 2357 005e 43F40043 		orr	r3, r3, #32768
 2358              	.LVL234:
 484:Drivers/STM32WBxx_HAL_Driver/Src/stm32wbxx_ll_usb.c ****   }
 2359              		.loc 1 484 5 is_stmt 0 discriminator 30 view .LVU753
 2360 0062 43F08003 		orr	r3, r3, #128
 2361 0066 25F82230 		strh	r3, [r5, r2, lsl #2]	@ movhi
 2362              	.LVL235:
 2363              	.L99:
 484:Drivers/STM32WBxx_HAL_Driver/Src/stm32wbxx_ll_usb.c ****   }
 2364              		.loc 1 484 5 discriminator 30 view .LVU754
 2365              	.LBE65:
 484:Drivers/STM32WBxx_HAL_Driver/Src/stm32wbxx_ll_usb.c ****   }
 2366              		.loc 1 484 5 is_stmt 1 discriminator 7 view .LVU755
 487:Drivers/STM32WBxx_HAL_Driver/Src/stm32wbxx_ll_usb.c **** }
ARM GAS  /tmp/ccr3mP7A.s 			page 62


 2367              		.loc 1 487 3 discriminator 7 view .LVU756
 488:Drivers/STM32WBxx_HAL_Driver/Src/stm32wbxx_ll_usb.c **** 
 2368              		.loc 1 488 1 is_stmt 0 discriminator 7 view .LVU757
 2369 006a 0020     		movs	r0, #0
 2370 006c 70BD     		pop	{r4, r5, r6, pc}
 2371              	.LVL236:
 2372              	.L116:
 420:Drivers/STM32WBxx_HAL_Driver/Src/stm32wbxx_ll_usb.c ****     {
 2373              		.loc 1 420 5 is_stmt 1 view .LVU758
 420:Drivers/STM32WBxx_HAL_Driver/Src/stm32wbxx_ll_usb.c ****     {
 2374              		.loc 1 420 11 is_stmt 0 view .LVU759
 2375 006e A269     		ldr	r2, [r4, #24]
 420:Drivers/STM32WBxx_HAL_Driver/Src/stm32wbxx_ll_usb.c ****     {
 2376              		.loc 1 420 26 view .LVU760
 2377 0070 2369     		ldr	r3, [r4, #16]
 420:Drivers/STM32WBxx_HAL_Driver/Src/stm32wbxx_ll_usb.c ****     {
 2378              		.loc 1 420 8 view .LVU761
 2379 0072 9A42     		cmp	r2, r3
 2380 0074 1CD9     		bls	.L82
 422:Drivers/STM32WBxx_HAL_Driver/Src/stm32wbxx_ll_usb.c ****       ep->xfer_len -= len;
 2381              		.loc 1 422 7 is_stmt 1 view .LVU762
 2382              	.LVL237:
 423:Drivers/STM32WBxx_HAL_Driver/Src/stm32wbxx_ll_usb.c ****     }
 2383              		.loc 1 423 7 view .LVU763
 423:Drivers/STM32WBxx_HAL_Driver/Src/stm32wbxx_ll_usb.c ****     }
 2384              		.loc 1 423 20 is_stmt 0 view .LVU764
 2385 0076 D21A     		subs	r2, r2, r3
 2386 0078 A261     		str	r2, [r4, #24]
 2387              	.L83:
 432:Drivers/STM32WBxx_HAL_Driver/Src/stm32wbxx_ll_usb.c ****     {
 2388              		.loc 1 432 5 is_stmt 1 view .LVU765
 432:Drivers/STM32WBxx_HAL_Driver/Src/stm32wbxx_ll_usb.c ****     {
 2389              		.loc 1 432 11 is_stmt 0 view .LVU766
 2390 007a 227B     		ldrb	r2, [r4, #12]	@ zero_extendqisi2
 432:Drivers/STM32WBxx_HAL_Driver/Src/stm32wbxx_ll_usb.c ****     {
 2391              		.loc 1 432 8 view .LVU767
 2392 007c E2B1     		cbz	r2, .L117
 440:Drivers/STM32WBxx_HAL_Driver/Src/stm32wbxx_ll_usb.c ****       {
 2393              		.loc 1 440 7 is_stmt 1 view .LVU768
 440:Drivers/STM32WBxx_HAL_Driver/Src/stm32wbxx_ll_usb.c ****       {
 2394              		.loc 1 440 12 is_stmt 0 view .LVU769
 2395 007e 2278     		ldrb	r2, [r4]	@ zero_extendqisi2
 2396 0080 35F82200 		ldrh	r0, [r5, r2, lsl #2]
 2397              	.LVL238:
 440:Drivers/STM32WBxx_HAL_Driver/Src/stm32wbxx_ll_usb.c ****       {
 2398              		.loc 1 440 10 view .LVU770
 2399 0084 10F0400F 		tst	r0, #64
 2400 0088 6AD0     		beq	.L86
 443:Drivers/STM32WBxx_HAL_Driver/Src/stm32wbxx_ll_usb.c ****         pmabuffer = ep->pmaaddr1;
 2401              		.loc 1 443 9 is_stmt 1 view .LVU771
 2402              	.LBB66:
 443:Drivers/STM32WBxx_HAL_Driver/Src/stm32wbxx_ll_usb.c ****         pmabuffer = ep->pmaaddr1;
 2403              		.loc 1 443 9 view .LVU772
 2404              	.LVL239:
 443:Drivers/STM32WBxx_HAL_Driver/Src/stm32wbxx_ll_usb.c ****         pmabuffer = ep->pmaaddr1;
 2405              		.loc 1 443 9 view .LVU773
 443:Drivers/STM32WBxx_HAL_Driver/Src/stm32wbxx_ll_usb.c ****         pmabuffer = ep->pmaaddr1;
ARM GAS  /tmp/ccr3mP7A.s 			page 63


 2406              		.loc 1 443 9 view .LVU774
 2407 008a C9BB     		cbnz	r1, .L87
 443:Drivers/STM32WBxx_HAL_Driver/Src/stm32wbxx_ll_usb.c ****         pmabuffer = ep->pmaaddr1;
 2408              		.loc 1 443 9 discriminator 1 view .LVU775
 2409              	.LBB67:
 443:Drivers/STM32WBxx_HAL_Driver/Src/stm32wbxx_ll_usb.c ****         pmabuffer = ep->pmaaddr1;
 2410              		.loc 1 443 9 discriminator 1 view .LVU776
 2411              	.LVL240:
 443:Drivers/STM32WBxx_HAL_Driver/Src/stm32wbxx_ll_usb.c ****         pmabuffer = ep->pmaaddr1;
 2412              		.loc 1 443 9 discriminator 1 view .LVU777
 443:Drivers/STM32WBxx_HAL_Driver/Src/stm32wbxx_ll_usb.c ****         pmabuffer = ep->pmaaddr1;
 2413              		.loc 1 443 9 discriminator 1 view .LVU778
 2414 008c B5F85010 		ldrh	r1, [r5, #80]
 2415 0090 15FA81F1 		uxtah	r1, r5, r1
 2416              	.LVL241:
 443:Drivers/STM32WBxx_HAL_Driver/Src/stm32wbxx_ll_usb.c ****         pmabuffer = ep->pmaaddr1;
 2417              		.loc 1 443 9 discriminator 1 view .LVU779
 2418 0094 01EBC202 		add	r2, r1, r2, lsl #3
 2419              	.LVL242:
 443:Drivers/STM32WBxx_HAL_Driver/Src/stm32wbxx_ll_usb.c ****         pmabuffer = ep->pmaaddr1;
 2420              		.loc 1 443 9 discriminator 1 view .LVU780
 2421              	.LBB68:
 443:Drivers/STM32WBxx_HAL_Driver/Src/stm32wbxx_ll_usb.c ****         pmabuffer = ep->pmaaddr1;
 2422              		.loc 1 443 9 discriminator 1 view .LVU781
 443:Drivers/STM32WBxx_HAL_Driver/Src/stm32wbxx_ll_usb.c ****         pmabuffer = ep->pmaaddr1;
 2423              		.loc 1 443 9 discriminator 1 view .LVU782
 2424 0098 FBB9     		cbnz	r3, .L88
 443:Drivers/STM32WBxx_HAL_Driver/Src/stm32wbxx_ll_usb.c ****         pmabuffer = ep->pmaaddr1;
 2425              		.loc 1 443 9 discriminator 3 view .LVU783
 2426 009a B2F80614 		ldrh	r1, [r2, #1030]
 2427              	.LVL243:
 443:Drivers/STM32WBxx_HAL_Driver/Src/stm32wbxx_ll_usb.c ****         pmabuffer = ep->pmaaddr1;
 2428              		.loc 1 443 9 is_stmt 0 discriminator 3 view .LVU784
 2429 009e 21F4F841 		bic	r1, r1, #31744
 443:Drivers/STM32WBxx_HAL_Driver/Src/stm32wbxx_ll_usb.c ****         pmabuffer = ep->pmaaddr1;
 2430              		.loc 1 443 9 is_stmt 1 discriminator 3 view .LVU785
 2431 00a2 6FEA4141 		mvn	r1, r1, lsl #17
 2432 00a6 6FEA5141 		mvn	r1, r1, lsr #17
 2433 00aa A2F80614 		strh	r1, [r2, #1030]	@ movhi
 2434 00ae 2FE0     		b	.L89
 2435              	.LVL244:
 2436              	.L82:
 443:Drivers/STM32WBxx_HAL_Driver/Src/stm32wbxx_ll_usb.c ****         pmabuffer = ep->pmaaddr1;
 2437              		.loc 1 443 9 is_stmt 0 discriminator 3 view .LVU786
 2438              	.LBE68:
 2439              	.LBE67:
 2440              	.LBE66:
 427:Drivers/STM32WBxx_HAL_Driver/Src/stm32wbxx_ll_usb.c ****       ep->xfer_len = 0U;
 2441              		.loc 1 427 7 is_stmt 1 view .LVU787
 428:Drivers/STM32WBxx_HAL_Driver/Src/stm32wbxx_ll_usb.c ****     }
 2442              		.loc 1 428 7 view .LVU788
 428:Drivers/STM32WBxx_HAL_Driver/Src/stm32wbxx_ll_usb.c ****     }
 2443              		.loc 1 428 20 is_stmt 0 view .LVU789
 2444 00b0 0023     		movs	r3, #0
 2445 00b2 A361     		str	r3, [r4, #24]
 427:Drivers/STM32WBxx_HAL_Driver/Src/stm32wbxx_ll_usb.c ****       ep->xfer_len = 0U;
 2446              		.loc 1 427 11 view .LVU790
ARM GAS  /tmp/ccr3mP7A.s 			page 64


 2447 00b4 1346     		mov	r3, r2
 2448 00b6 E0E7     		b	.L83
 2449              	.LVL245:
 2450              	.L117:
 434:Drivers/STM32WBxx_HAL_Driver/Src/stm32wbxx_ll_usb.c ****       PCD_SET_EP_TX_CNT(USBx, ep->num, len);
 2451              		.loc 1 434 7 is_stmt 1 view .LVU791
 2452 00b8 9EB2     		uxth	r6, r3
 2453 00ba 3346     		mov	r3, r6
 2454              	.LVL246:
 434:Drivers/STM32WBxx_HAL_Driver/Src/stm32wbxx_ll_usb.c ****       PCD_SET_EP_TX_CNT(USBx, ep->num, len);
 2455              		.loc 1 434 7 is_stmt 0 view .LVU792
 2456 00bc E288     		ldrh	r2, [r4, #6]
 2457 00be 6169     		ldr	r1, [r4, #20]
 2458 00c0 2846     		mov	r0, r5
 2459              	.LVL247:
 434:Drivers/STM32WBxx_HAL_Driver/Src/stm32wbxx_ll_usb.c ****       PCD_SET_EP_TX_CNT(USBx, ep->num, len);
 2460              		.loc 1 434 7 view .LVU793
 2461 00c2 FFF7FEFF 		bl	USB_WritePMA
 2462              	.LVL248:
 435:Drivers/STM32WBxx_HAL_Driver/Src/stm32wbxx_ll_usb.c ****     }
 2463              		.loc 1 435 7 is_stmt 1 view .LVU794
 2464              	.LBB71:
 435:Drivers/STM32WBxx_HAL_Driver/Src/stm32wbxx_ll_usb.c ****     }
 2465              		.loc 1 435 7 view .LVU795
 435:Drivers/STM32WBxx_HAL_Driver/Src/stm32wbxx_ll_usb.c ****     }
 2466              		.loc 1 435 7 view .LVU796
 435:Drivers/STM32WBxx_HAL_Driver/Src/stm32wbxx_ll_usb.c ****     }
 2467              		.loc 1 435 7 view .LVU797
 2468 00c6 B5F85030 		ldrh	r3, [r5, #80]
 2469 00ca 15FA83F3 		uxtah	r3, r5, r3
 2470              	.LVL249:
 435:Drivers/STM32WBxx_HAL_Driver/Src/stm32wbxx_ll_usb.c ****     }
 2471              		.loc 1 435 7 view .LVU798
 2472 00ce 2278     		ldrb	r2, [r4]	@ zero_extendqisi2
 2473 00d0 03EBC203 		add	r3, r3, r2, lsl #3
 2474              	.LVL250:
 435:Drivers/STM32WBxx_HAL_Driver/Src/stm32wbxx_ll_usb.c ****     }
 2475              		.loc 1 435 7 view .LVU799
 2476 00d4 A3F80264 		strh	r6, [r3, #1026]	@ movhi
 2477              	.LBE71:
 435:Drivers/STM32WBxx_HAL_Driver/Src/stm32wbxx_ll_usb.c ****     }
 2478              		.loc 1 435 7 view .LVU800
 2479 00d8 31E0     		b	.L85
 2480              	.LVL251:
 2481              	.L88:
 2482              	.LBB72:
 2483              	.LBB70:
 2484              	.LBB69:
 443:Drivers/STM32WBxx_HAL_Driver/Src/stm32wbxx_ll_usb.c ****         pmabuffer = ep->pmaaddr1;
 2485              		.loc 1 443 9 discriminator 4 view .LVU801
 2486 00da 3D2B     		cmp	r3, #61
 2487 00dc 08D8     		bhi	.L90
 443:Drivers/STM32WBxx_HAL_Driver/Src/stm32wbxx_ll_usb.c ****         pmabuffer = ep->pmaaddr1;
 2488              		.loc 1 443 9 discriminator 6 view .LVU802
 443:Drivers/STM32WBxx_HAL_Driver/Src/stm32wbxx_ll_usb.c ****         pmabuffer = ep->pmaaddr1;
 2489              		.loc 1 443 9 discriminator 6 view .LVU803
 2490 00de 5908     		lsrs	r1, r3, #1
ARM GAS  /tmp/ccr3mP7A.s 			page 65


 2491              	.LVL252:
 443:Drivers/STM32WBxx_HAL_Driver/Src/stm32wbxx_ll_usb.c ****         pmabuffer = ep->pmaaddr1;
 2492              		.loc 1 443 9 discriminator 6 view .LVU804
 2493 00e0 13F0010F 		tst	r3, #1
 2494 00e4 00D0     		beq	.L91
 443:Drivers/STM32WBxx_HAL_Driver/Src/stm32wbxx_ll_usb.c ****         pmabuffer = ep->pmaaddr1;
 2495              		.loc 1 443 9 discriminator 8 view .LVU805
 2496 00e6 0131     		adds	r1, r1, #1
 2497              	.LVL253:
 2498              	.L91:
 443:Drivers/STM32WBxx_HAL_Driver/Src/stm32wbxx_ll_usb.c ****         pmabuffer = ep->pmaaddr1;
 2499              		.loc 1 443 9 discriminator 10 view .LVU806
 2500 00e8 8902     		lsls	r1, r1, #10
 2501              	.LVL254:
 443:Drivers/STM32WBxx_HAL_Driver/Src/stm32wbxx_ll_usb.c ****         pmabuffer = ep->pmaaddr1;
 2502              		.loc 1 443 9 is_stmt 0 discriminator 10 view .LVU807
 2503 00ea A2F80614 		strh	r1, [r2, #1030]	@ movhi
 443:Drivers/STM32WBxx_HAL_Driver/Src/stm32wbxx_ll_usb.c ****         pmabuffer = ep->pmaaddr1;
 2504              		.loc 1 443 9 is_stmt 1 discriminator 10 view .LVU808
 2505 00ee 0FE0     		b	.L89
 2506              	.LVL255:
 2507              	.L90:
 443:Drivers/STM32WBxx_HAL_Driver/Src/stm32wbxx_ll_usb.c ****         pmabuffer = ep->pmaaddr1;
 2508              		.loc 1 443 9 discriminator 7 view .LVU809
 443:Drivers/STM32WBxx_HAL_Driver/Src/stm32wbxx_ll_usb.c ****         pmabuffer = ep->pmaaddr1;
 2509              		.loc 1 443 9 discriminator 7 view .LVU810
 2510 00f0 5909     		lsrs	r1, r3, #5
 2511              	.LVL256:
 443:Drivers/STM32WBxx_HAL_Driver/Src/stm32wbxx_ll_usb.c ****         pmabuffer = ep->pmaaddr1;
 2512              		.loc 1 443 9 discriminator 7 view .LVU811
 2513 00f2 6FEAC161 		mvn	r1, r1, lsl #27
 2514              	.LVL257:
 443:Drivers/STM32WBxx_HAL_Driver/Src/stm32wbxx_ll_usb.c ****         pmabuffer = ep->pmaaddr1;
 2515              		.loc 1 443 9 is_stmt 0 discriminator 7 view .LVU812
 2516 00f6 6FEA5141 		mvn	r1, r1, lsr #17
 2517 00fa A2F80614 		strh	r1, [r2, #1030]	@ movhi
 2518 00fe 07E0     		b	.L89
 2519              	.LVL258:
 2520              	.L87:
 443:Drivers/STM32WBxx_HAL_Driver/Src/stm32wbxx_ll_usb.c ****         pmabuffer = ep->pmaaddr1;
 2521              		.loc 1 443 9 discriminator 7 view .LVU813
 2522              	.LBE69:
 2523              	.LBE70:
 443:Drivers/STM32WBxx_HAL_Driver/Src/stm32wbxx_ll_usb.c ****         pmabuffer = ep->pmaaddr1;
 2524              		.loc 1 443 9 is_stmt 1 discriminator 13 view .LVU814
 443:Drivers/STM32WBxx_HAL_Driver/Src/stm32wbxx_ll_usb.c ****         pmabuffer = ep->pmaaddr1;
 2525              		.loc 1 443 9 discriminator 13 view .LVU815
 2526 0100 B5F85010 		ldrh	r1, [r5, #80]
 2527 0104 15FA81F1 		uxtah	r1, r5, r1
 2528              	.LVL259:
 443:Drivers/STM32WBxx_HAL_Driver/Src/stm32wbxx_ll_usb.c ****         pmabuffer = ep->pmaaddr1;
 2529              		.loc 1 443 9 discriminator 13 view .LVU816
 2530 0108 01EBC202 		add	r2, r1, r2, lsl #3
 2531              	.LVL260:
 443:Drivers/STM32WBxx_HAL_Driver/Src/stm32wbxx_ll_usb.c ****         pmabuffer = ep->pmaaddr1;
 2532              		.loc 1 443 9 discriminator 13 view .LVU817
 2533 010c A2F80634 		strh	r3, [r2, #1030]	@ movhi
ARM GAS  /tmp/ccr3mP7A.s 			page 66


 2534              	.LVL261:
 2535              	.L89:
 443:Drivers/STM32WBxx_HAL_Driver/Src/stm32wbxx_ll_usb.c ****         pmabuffer = ep->pmaaddr1;
 2536              		.loc 1 443 9 is_stmt 0 discriminator 13 view .LVU818
 2537              	.LBE72:
 443:Drivers/STM32WBxx_HAL_Driver/Src/stm32wbxx_ll_usb.c ****         pmabuffer = ep->pmaaddr1;
 2538              		.loc 1 443 9 is_stmt 1 discriminator 15 view .LVU819
 444:Drivers/STM32WBxx_HAL_Driver/Src/stm32wbxx_ll_usb.c ****       }
 2539              		.loc 1 444 9 discriminator 15 view .LVU820
 444:Drivers/STM32WBxx_HAL_Driver/Src/stm32wbxx_ll_usb.c ****       }
 2540              		.loc 1 444 19 is_stmt 0 discriminator 15 view .LVU821
 2541 0110 6289     		ldrh	r2, [r4, #10]
 2542              	.LVL262:
 2543              	.L92:
 452:Drivers/STM32WBxx_HAL_Driver/Src/stm32wbxx_ll_usb.c ****       PCD_FreeUserBuffer(USBx, ep->num, ep->is_in);
 2544              		.loc 1 452 7 is_stmt 1 view .LVU822
 2545 0112 9BB2     		uxth	r3, r3
 2546              	.LVL263:
 452:Drivers/STM32WBxx_HAL_Driver/Src/stm32wbxx_ll_usb.c ****       PCD_FreeUserBuffer(USBx, ep->num, ep->is_in);
 2547              		.loc 1 452 7 is_stmt 0 view .LVU823
 2548 0114 6169     		ldr	r1, [r4, #20]
 2549 0116 2846     		mov	r0, r5
 2550 0118 FFF7FEFF 		bl	USB_WritePMA
 2551              	.LVL264:
 453:Drivers/STM32WBxx_HAL_Driver/Src/stm32wbxx_ll_usb.c ****     }
 2552              		.loc 1 453 7 is_stmt 1 view .LVU824
 453:Drivers/STM32WBxx_HAL_Driver/Src/stm32wbxx_ll_usb.c ****     }
 2553              		.loc 1 453 7 view .LVU825
 2554 011c 6378     		ldrb	r3, [r4, #1]	@ zero_extendqisi2
 2555 011e 002B     		cmp	r3, #0
 2556 0120 4ED1     		bne	.L98
 453:Drivers/STM32WBxx_HAL_Driver/Src/stm32wbxx_ll_usb.c ****     }
 2557              		.loc 1 453 7 discriminator 1 view .LVU826
 2558              	.LBB73:
 453:Drivers/STM32WBxx_HAL_Driver/Src/stm32wbxx_ll_usb.c ****     }
 2559              		.loc 1 453 7 discriminator 1 view .LVU827
 453:Drivers/STM32WBxx_HAL_Driver/Src/stm32wbxx_ll_usb.c ****     }
 2560              		.loc 1 453 7 discriminator 1 view .LVU828
 2561 0122 2278     		ldrb	r2, [r4]	@ zero_extendqisi2
 2562 0124 35F82230 		ldrh	r3, [r5, r2, lsl #2]
 2563 0128 9BB2     		uxth	r3, r3
 2564 012a 23F4E043 		bic	r3, r3, #28672
 2565 012e 23F07003 		bic	r3, r3, #112
 2566              	.LVL265:
 453:Drivers/STM32WBxx_HAL_Driver/Src/stm32wbxx_ll_usb.c ****     }
 2567              		.loc 1 453 7 discriminator 1 view .LVU829
 2568 0132 43F40043 		orr	r3, r3, #32768
 2569              	.LVL266:
 453:Drivers/STM32WBxx_HAL_Driver/Src/stm32wbxx_ll_usb.c ****     }
 2570              		.loc 1 453 7 is_stmt 0 discriminator 1 view .LVU830
 2571 0136 43F0C003 		orr	r3, r3, #192
 2572 013a 25F82230 		strh	r3, [r5, r2, lsl #2]	@ movhi
 2573              	.LBE73:
 453:Drivers/STM32WBxx_HAL_Driver/Src/stm32wbxx_ll_usb.c ****     }
 2574              		.loc 1 453 7 is_stmt 1 discriminator 1 view .LVU831
 2575              	.L85:
 453:Drivers/STM32WBxx_HAL_Driver/Src/stm32wbxx_ll_usb.c ****     }
ARM GAS  /tmp/ccr3mP7A.s 			page 67


 2576              		.loc 1 453 7 discriminator 6 view .LVU832
 453:Drivers/STM32WBxx_HAL_Driver/Src/stm32wbxx_ll_usb.c ****     }
 2577              		.loc 1 453 7 discriminator 6 view .LVU833
 456:Drivers/STM32WBxx_HAL_Driver/Src/stm32wbxx_ll_usb.c ****   }
 2578              		.loc 1 456 5 discriminator 6 view .LVU834
 2579              	.LBB74:
 456:Drivers/STM32WBxx_HAL_Driver/Src/stm32wbxx_ll_usb.c ****   }
 2580              		.loc 1 456 5 discriminator 6 view .LVU835
 456:Drivers/STM32WBxx_HAL_Driver/Src/stm32wbxx_ll_usb.c ****   }
 2581              		.loc 1 456 5 discriminator 6 view .LVU836
 2582 013e 2278     		ldrb	r2, [r4]	@ zero_extendqisi2
 2583 0140 35F82230 		ldrh	r3, [r5, r2, lsl #2]
 2584 0144 9BB2     		uxth	r3, r3
 2585 0146 23F4E043 		bic	r3, r3, #28672
 2586 014a 23F04003 		bic	r3, r3, #64
 2587              	.LVL267:
 456:Drivers/STM32WBxx_HAL_Driver/Src/stm32wbxx_ll_usb.c ****   }
 2588              		.loc 1 456 5 discriminator 6 view .LVU837
 456:Drivers/STM32WBxx_HAL_Driver/Src/stm32wbxx_ll_usb.c ****   }
 2589              		.loc 1 456 5 discriminator 6 view .LVU838
 456:Drivers/STM32WBxx_HAL_Driver/Src/stm32wbxx_ll_usb.c ****   }
 2590              		.loc 1 456 5 discriminator 6 view .LVU839
 456:Drivers/STM32WBxx_HAL_Driver/Src/stm32wbxx_ll_usb.c ****   }
 2591              		.loc 1 456 5 discriminator 6 view .LVU840
 2592 014e 83F03003 		eor	r3, r3, #48
 2593              	.LVL268:
 456:Drivers/STM32WBxx_HAL_Driver/Src/stm32wbxx_ll_usb.c ****   }
 2594              		.loc 1 456 5 discriminator 6 view .LVU841
 2595 0152 43F40043 		orr	r3, r3, #32768
 2596              	.LVL269:
 456:Drivers/STM32WBxx_HAL_Driver/Src/stm32wbxx_ll_usb.c ****   }
 2597              		.loc 1 456 5 is_stmt 0 discriminator 6 view .LVU842
 2598 0156 43F08003 		orr	r3, r3, #128
 2599 015a 25F82230 		strh	r3, [r5, r2, lsl #2]	@ movhi
 2600              	.LBE74:
 456:Drivers/STM32WBxx_HAL_Driver/Src/stm32wbxx_ll_usb.c ****   }
 2601              		.loc 1 456 5 is_stmt 1 discriminator 6 view .LVU843
 2602 015e 84E7     		b	.L99
 2603              	.LVL270:
 2604              	.L86:
 449:Drivers/STM32WBxx_HAL_Driver/Src/stm32wbxx_ll_usb.c ****         pmabuffer = ep->pmaaddr0;
 2605              		.loc 1 449 9 view .LVU844
 449:Drivers/STM32WBxx_HAL_Driver/Src/stm32wbxx_ll_usb.c ****         pmabuffer = ep->pmaaddr0;
 2606              		.loc 1 449 9 view .LVU845
 2607 0160 21BB     		cbnz	r1, .L93
 449:Drivers/STM32WBxx_HAL_Driver/Src/stm32wbxx_ll_usb.c ****         pmabuffer = ep->pmaaddr0;
 2608              		.loc 1 449 9 discriminator 1 view .LVU846
 2609              	.LBB75:
 449:Drivers/STM32WBxx_HAL_Driver/Src/stm32wbxx_ll_usb.c ****         pmabuffer = ep->pmaaddr0;
 2610              		.loc 1 449 9 discriminator 1 view .LVU847
 2611              	.LVL271:
 449:Drivers/STM32WBxx_HAL_Driver/Src/stm32wbxx_ll_usb.c ****         pmabuffer = ep->pmaaddr0;
 2612              		.loc 1 449 9 discriminator 1 view .LVU848
 449:Drivers/STM32WBxx_HAL_Driver/Src/stm32wbxx_ll_usb.c ****         pmabuffer = ep->pmaaddr0;
 2613              		.loc 1 449 9 discriminator 1 view .LVU849
 2614 0162 B5F85010 		ldrh	r1, [r5, #80]
 2615 0166 15FA81F1 		uxtah	r1, r5, r1
ARM GAS  /tmp/ccr3mP7A.s 			page 68


 2616              	.LVL272:
 449:Drivers/STM32WBxx_HAL_Driver/Src/stm32wbxx_ll_usb.c ****         pmabuffer = ep->pmaaddr0;
 2617              		.loc 1 449 9 discriminator 1 view .LVU850
 2618 016a 01EBC202 		add	r2, r1, r2, lsl #3
 2619              	.LVL273:
 449:Drivers/STM32WBxx_HAL_Driver/Src/stm32wbxx_ll_usb.c ****         pmabuffer = ep->pmaaddr0;
 2620              		.loc 1 449 9 discriminator 1 view .LVU851
 2621              	.LBB76:
 449:Drivers/STM32WBxx_HAL_Driver/Src/stm32wbxx_ll_usb.c ****         pmabuffer = ep->pmaaddr0;
 2622              		.loc 1 449 9 discriminator 1 view .LVU852
 449:Drivers/STM32WBxx_HAL_Driver/Src/stm32wbxx_ll_usb.c ****         pmabuffer = ep->pmaaddr0;
 2623              		.loc 1 449 9 discriminator 1 view .LVU853
 2624 016e 53B9     		cbnz	r3, .L94
 449:Drivers/STM32WBxx_HAL_Driver/Src/stm32wbxx_ll_usb.c ****         pmabuffer = ep->pmaaddr0;
 2625              		.loc 1 449 9 discriminator 3 view .LVU854
 2626 0170 B2F80214 		ldrh	r1, [r2, #1026]
 2627              	.LVL274:
 449:Drivers/STM32WBxx_HAL_Driver/Src/stm32wbxx_ll_usb.c ****         pmabuffer = ep->pmaaddr0;
 2628              		.loc 1 449 9 is_stmt 0 discriminator 3 view .LVU855
 2629 0174 21F4F841 		bic	r1, r1, #31744
 449:Drivers/STM32WBxx_HAL_Driver/Src/stm32wbxx_ll_usb.c ****         pmabuffer = ep->pmaaddr0;
 2630              		.loc 1 449 9 is_stmt 1 discriminator 3 view .LVU856
 2631 0178 6FEA4141 		mvn	r1, r1, lsl #17
 2632 017c 6FEA5141 		mvn	r1, r1, lsr #17
 2633 0180 A2F80214 		strh	r1, [r2, #1026]	@ movhi
 2634 0184 1AE0     		b	.L95
 2635              	.LVL275:
 2636              	.L94:
 449:Drivers/STM32WBxx_HAL_Driver/Src/stm32wbxx_ll_usb.c ****         pmabuffer = ep->pmaaddr0;
 2637              		.loc 1 449 9 discriminator 4 view .LVU857
 2638 0186 3D2B     		cmp	r3, #61
 2639 0188 08D8     		bhi	.L96
 449:Drivers/STM32WBxx_HAL_Driver/Src/stm32wbxx_ll_usb.c ****         pmabuffer = ep->pmaaddr0;
 2640              		.loc 1 449 9 discriminator 6 view .LVU858
 449:Drivers/STM32WBxx_HAL_Driver/Src/stm32wbxx_ll_usb.c ****         pmabuffer = ep->pmaaddr0;
 2641              		.loc 1 449 9 discriminator 6 view .LVU859
 2642 018a 5908     		lsrs	r1, r3, #1
 2643              	.LVL276:
 449:Drivers/STM32WBxx_HAL_Driver/Src/stm32wbxx_ll_usb.c ****         pmabuffer = ep->pmaaddr0;
 2644              		.loc 1 449 9 discriminator 6 view .LVU860
 2645 018c 13F0010F 		tst	r3, #1
 2646 0190 00D0     		beq	.L97
 449:Drivers/STM32WBxx_HAL_Driver/Src/stm32wbxx_ll_usb.c ****         pmabuffer = ep->pmaaddr0;
 2647              		.loc 1 449 9 discriminator 8 view .LVU861
 2648 0192 0131     		adds	r1, r1, #1
 2649              	.LVL277:
 2650              	.L97:
 449:Drivers/STM32WBxx_HAL_Driver/Src/stm32wbxx_ll_usb.c ****         pmabuffer = ep->pmaaddr0;
 2651              		.loc 1 449 9 discriminator 10 view .LVU862
 2652 0194 8902     		lsls	r1, r1, #10
 2653              	.LVL278:
 449:Drivers/STM32WBxx_HAL_Driver/Src/stm32wbxx_ll_usb.c ****         pmabuffer = ep->pmaaddr0;
 2654              		.loc 1 449 9 is_stmt 0 discriminator 10 view .LVU863
 2655 0196 A2F80214 		strh	r1, [r2, #1026]	@ movhi
 449:Drivers/STM32WBxx_HAL_Driver/Src/stm32wbxx_ll_usb.c ****         pmabuffer = ep->pmaaddr0;
 2656              		.loc 1 449 9 is_stmt 1 discriminator 10 view .LVU864
 2657 019a 0FE0     		b	.L95
ARM GAS  /tmp/ccr3mP7A.s 			page 69


 2658              	.LVL279:
 2659              	.L96:
 449:Drivers/STM32WBxx_HAL_Driver/Src/stm32wbxx_ll_usb.c ****         pmabuffer = ep->pmaaddr0;
 2660              		.loc 1 449 9 discriminator 7 view .LVU865
 449:Drivers/STM32WBxx_HAL_Driver/Src/stm32wbxx_ll_usb.c ****         pmabuffer = ep->pmaaddr0;
 2661              		.loc 1 449 9 discriminator 7 view .LVU866
 2662 019c 5909     		lsrs	r1, r3, #5
 2663              	.LVL280:
 449:Drivers/STM32WBxx_HAL_Driver/Src/stm32wbxx_ll_usb.c ****         pmabuffer = ep->pmaaddr0;
 2664              		.loc 1 449 9 discriminator 7 view .LVU867
 2665 019e 6FEAC161 		mvn	r1, r1, lsl #27
 2666              	.LVL281:
 449:Drivers/STM32WBxx_HAL_Driver/Src/stm32wbxx_ll_usb.c ****         pmabuffer = ep->pmaaddr0;
 2667              		.loc 1 449 9 is_stmt 0 discriminator 7 view .LVU868
 2668 01a2 6FEA5141 		mvn	r1, r1, lsr #17
 2669 01a6 A2F80214 		strh	r1, [r2, #1026]	@ movhi
 2670 01aa 07E0     		b	.L95
 2671              	.LVL282:
 2672              	.L93:
 449:Drivers/STM32WBxx_HAL_Driver/Src/stm32wbxx_ll_usb.c ****         pmabuffer = ep->pmaaddr0;
 2673              		.loc 1 449 9 discriminator 7 view .LVU869
 2674              	.LBE76:
 2675              	.LBE75:
 449:Drivers/STM32WBxx_HAL_Driver/Src/stm32wbxx_ll_usb.c ****         pmabuffer = ep->pmaaddr0;
 2676              		.loc 1 449 9 is_stmt 1 discriminator 13 view .LVU870
 449:Drivers/STM32WBxx_HAL_Driver/Src/stm32wbxx_ll_usb.c ****         pmabuffer = ep->pmaaddr0;
 2677              		.loc 1 449 9 discriminator 13 view .LVU871
 2678              	.LBB77:
 449:Drivers/STM32WBxx_HAL_Driver/Src/stm32wbxx_ll_usb.c ****         pmabuffer = ep->pmaaddr0;
 2679              		.loc 1 449 9 discriminator 13 view .LVU872
 449:Drivers/STM32WBxx_HAL_Driver/Src/stm32wbxx_ll_usb.c ****         pmabuffer = ep->pmaaddr0;
 2680              		.loc 1 449 9 discriminator 13 view .LVU873
 449:Drivers/STM32WBxx_HAL_Driver/Src/stm32wbxx_ll_usb.c ****         pmabuffer = ep->pmaaddr0;
 2681              		.loc 1 449 9 discriminator 13 view .LVU874
 2682 01ac B5F85010 		ldrh	r1, [r5, #80]
 2683 01b0 15FA81F1 		uxtah	r1, r5, r1
 2684              	.LVL283:
 449:Drivers/STM32WBxx_HAL_Driver/Src/stm32wbxx_ll_usb.c ****         pmabuffer = ep->pmaaddr0;
 2685              		.loc 1 449 9 discriminator 13 view .LVU875
 2686 01b4 01EBC202 		add	r2, r1, r2, lsl #3
 2687              	.LVL284:
 449:Drivers/STM32WBxx_HAL_Driver/Src/stm32wbxx_ll_usb.c ****         pmabuffer = ep->pmaaddr0;
 2688              		.loc 1 449 9 discriminator 13 view .LVU876
 2689 01b8 A2F80234 		strh	r3, [r2, #1026]	@ movhi
 2690              	.LVL285:
 2691              	.L95:
 449:Drivers/STM32WBxx_HAL_Driver/Src/stm32wbxx_ll_usb.c ****         pmabuffer = ep->pmaaddr0;
 2692              		.loc 1 449 9 is_stmt 0 discriminator 13 view .LVU877
 2693              	.LBE77:
 449:Drivers/STM32WBxx_HAL_Driver/Src/stm32wbxx_ll_usb.c ****         pmabuffer = ep->pmaaddr0;
 2694              		.loc 1 449 9 is_stmt 1 discriminator 15 view .LVU878
 449:Drivers/STM32WBxx_HAL_Driver/Src/stm32wbxx_ll_usb.c ****         pmabuffer = ep->pmaaddr0;
 2695              		.loc 1 449 9 discriminator 15 view .LVU879
 450:Drivers/STM32WBxx_HAL_Driver/Src/stm32wbxx_ll_usb.c ****       }
 2696              		.loc 1 450 9 discriminator 15 view .LVU880
 450:Drivers/STM32WBxx_HAL_Driver/Src/stm32wbxx_ll_usb.c ****       }
 2697              		.loc 1 450 19 is_stmt 0 discriminator 15 view .LVU881
ARM GAS  /tmp/ccr3mP7A.s 			page 70


 2698 01bc 2289     		ldrh	r2, [r4, #8]
 2699              	.LVL286:
 450:Drivers/STM32WBxx_HAL_Driver/Src/stm32wbxx_ll_usb.c ****       }
 2700              		.loc 1 450 19 discriminator 15 view .LVU882
 2701 01be A8E7     		b	.L92
 2702              	.LVL287:
 2703              	.L98:
 453:Drivers/STM32WBxx_HAL_Driver/Src/stm32wbxx_ll_usb.c ****     }
 2704              		.loc 1 453 7 is_stmt 1 discriminator 2 view .LVU883
 2705 01c0 012B     		cmp	r3, #1
 2706 01c2 BCD1     		bne	.L85
 453:Drivers/STM32WBxx_HAL_Driver/Src/stm32wbxx_ll_usb.c ****     }
 2707              		.loc 1 453 7 discriminator 4 view .LVU884
 2708              	.LBB78:
 453:Drivers/STM32WBxx_HAL_Driver/Src/stm32wbxx_ll_usb.c ****     }
 2709              		.loc 1 453 7 discriminator 4 view .LVU885
 453:Drivers/STM32WBxx_HAL_Driver/Src/stm32wbxx_ll_usb.c ****     }
 2710              		.loc 1 453 7 discriminator 4 view .LVU886
 2711 01c4 2278     		ldrb	r2, [r4]	@ zero_extendqisi2
 2712 01c6 35F82230 		ldrh	r3, [r5, r2, lsl #2]
 2713 01ca 9BB2     		uxth	r3, r3
 2714 01cc 23F4E043 		bic	r3, r3, #28672
 2715 01d0 23F07003 		bic	r3, r3, #112
 2716              	.LVL288:
 453:Drivers/STM32WBxx_HAL_Driver/Src/stm32wbxx_ll_usb.c ****     }
 2717              		.loc 1 453 7 discriminator 4 view .LVU887
 2718 01d4 43F44043 		orr	r3, r3, #49152
 2719              	.LVL289:
 453:Drivers/STM32WBxx_HAL_Driver/Src/stm32wbxx_ll_usb.c ****     }
 2720              		.loc 1 453 7 is_stmt 0 discriminator 4 view .LVU888
 2721 01d8 43F08003 		orr	r3, r3, #128
 2722 01dc 25F82230 		strh	r3, [r5, r2, lsl #2]	@ movhi
 2723 01e0 ADE7     		b	.L85
 2724              	.LVL290:
 2725              	.L100:
 453:Drivers/STM32WBxx_HAL_Driver/Src/stm32wbxx_ll_usb.c ****     }
 2726              		.loc 1 453 7 discriminator 4 view .LVU889
 2727              	.LBE78:
 468:Drivers/STM32WBxx_HAL_Driver/Src/stm32wbxx_ll_usb.c ****       ep->xfer_len = 0U;
 2728              		.loc 1 468 7 is_stmt 1 view .LVU890
 469:Drivers/STM32WBxx_HAL_Driver/Src/stm32wbxx_ll_usb.c ****     }
 2729              		.loc 1 469 7 view .LVU891
 469:Drivers/STM32WBxx_HAL_Driver/Src/stm32wbxx_ll_usb.c ****     }
 2730              		.loc 1 469 20 is_stmt 0 view .LVU892
 2731 01e2 0023     		movs	r3, #0
 2732 01e4 A361     		str	r3, [r4, #24]
 468:Drivers/STM32WBxx_HAL_Driver/Src/stm32wbxx_ll_usb.c ****       ep->xfer_len = 0U;
 2733              		.loc 1 468 11 view .LVU893
 2734 01e6 1346     		mov	r3, r2
 2735 01e8 17E7     		b	.L101
 2736              	.LVL291:
 2737              	.L103:
 2738              	.LBB79:
 2739              	.LBB64:
 476:Drivers/STM32WBxx_HAL_Driver/Src/stm32wbxx_ll_usb.c ****     }
 2740              		.loc 1 476 7 is_stmt 1 discriminator 2 view .LVU894
 2741 01ea 3D2B     		cmp	r3, #61
ARM GAS  /tmp/ccr3mP7A.s 			page 71


 2742 01ec 08D8     		bhi	.L105
 476:Drivers/STM32WBxx_HAL_Driver/Src/stm32wbxx_ll_usb.c ****     }
 2743              		.loc 1 476 7 discriminator 4 view .LVU895
 476:Drivers/STM32WBxx_HAL_Driver/Src/stm32wbxx_ll_usb.c ****     }
 2744              		.loc 1 476 7 discriminator 4 view .LVU896
 2745 01ee 5908     		lsrs	r1, r3, #1
 2746              	.LVL292:
 476:Drivers/STM32WBxx_HAL_Driver/Src/stm32wbxx_ll_usb.c ****     }
 2747              		.loc 1 476 7 discriminator 4 view .LVU897
 2748 01f0 13F0010F 		tst	r3, #1
 2749 01f4 00D0     		beq	.L106
 476:Drivers/STM32WBxx_HAL_Driver/Src/stm32wbxx_ll_usb.c ****     }
 2750              		.loc 1 476 7 discriminator 6 view .LVU898
 2751 01f6 0131     		adds	r1, r1, #1
 2752              	.LVL293:
 2753              	.L106:
 476:Drivers/STM32WBxx_HAL_Driver/Src/stm32wbxx_ll_usb.c ****     }
 2754              		.loc 1 476 7 discriminator 8 view .LVU899
 2755 01f8 8902     		lsls	r1, r1, #10
 2756              	.LVL294:
 476:Drivers/STM32WBxx_HAL_Driver/Src/stm32wbxx_ll_usb.c ****     }
 2757              		.loc 1 476 7 is_stmt 0 discriminator 8 view .LVU900
 2758 01fa A2F80614 		strh	r1, [r2, #1030]	@ movhi
 476:Drivers/STM32WBxx_HAL_Driver/Src/stm32wbxx_ll_usb.c ****     }
 2759              		.loc 1 476 7 is_stmt 1 discriminator 8 view .LVU901
 2760 01fe 24E7     		b	.L104
 2761              	.L105:
 476:Drivers/STM32WBxx_HAL_Driver/Src/stm32wbxx_ll_usb.c ****     }
 2762              		.loc 1 476 7 discriminator 5 view .LVU902
 476:Drivers/STM32WBxx_HAL_Driver/Src/stm32wbxx_ll_usb.c ****     }
 2763              		.loc 1 476 7 discriminator 5 view .LVU903
 2764 0200 5B09     		lsrs	r3, r3, #5
 2765              	.LVL295:
 476:Drivers/STM32WBxx_HAL_Driver/Src/stm32wbxx_ll_usb.c ****     }
 2766              		.loc 1 476 7 discriminator 5 view .LVU904
 2767 0202 6FEAC363 		mvn	r3, r3, lsl #27
 2768              	.LVL296:
 476:Drivers/STM32WBxx_HAL_Driver/Src/stm32wbxx_ll_usb.c ****     }
 2769              		.loc 1 476 7 is_stmt 0 discriminator 5 view .LVU905
 2770 0206 6FEA5343 		mvn	r3, r3, lsr #17
 2771 020a A2F80634 		strh	r3, [r2, #1030]	@ movhi
 2772 020e 1CE7     		b	.L104
 2773              	.LVL297:
 2774              	.L102:
 476:Drivers/STM32WBxx_HAL_Driver/Src/stm32wbxx_ll_usb.c ****     }
 2775              		.loc 1 476 7 discriminator 5 view .LVU906
 2776              	.LBE64:
 2777              	.LBE79:
 481:Drivers/STM32WBxx_HAL_Driver/Src/stm32wbxx_ll_usb.c ****     }
 2778              		.loc 1 481 7 is_stmt 1 view .LVU907
 481:Drivers/STM32WBxx_HAL_Driver/Src/stm32wbxx_ll_usb.c ****     }
 2779              		.loc 1 481 7 view .LVU908
 481:Drivers/STM32WBxx_HAL_Driver/Src/stm32wbxx_ll_usb.c ****     }
 2780              		.loc 1 481 7 view .LVU909
 2781 0210 89B9     		cbnz	r1, .L107
 481:Drivers/STM32WBxx_HAL_Driver/Src/stm32wbxx_ll_usb.c ****     }
 2782              		.loc 1 481 7 discriminator 1 view .LVU910
ARM GAS  /tmp/ccr3mP7A.s 			page 72


 2783              	.LBB80:
 481:Drivers/STM32WBxx_HAL_Driver/Src/stm32wbxx_ll_usb.c ****     }
 2784              		.loc 1 481 7 discriminator 1 view .LVU911
 2785              	.LVL298:
 481:Drivers/STM32WBxx_HAL_Driver/Src/stm32wbxx_ll_usb.c ****     }
 2786              		.loc 1 481 7 discriminator 1 view .LVU912
 481:Drivers/STM32WBxx_HAL_Driver/Src/stm32wbxx_ll_usb.c ****     }
 2787              		.loc 1 481 7 discriminator 1 view .LVU913
 2788 0212 B5F85020 		ldrh	r2, [r5, #80]
 2789 0216 15FA82F2 		uxtah	r2, r5, r2
 2790              	.LVL299:
 481:Drivers/STM32WBxx_HAL_Driver/Src/stm32wbxx_ll_usb.c ****     }
 2791              		.loc 1 481 7 discriminator 1 view .LVU914
 2792 021a 2178     		ldrb	r1, [r4]	@ zero_extendqisi2
 2793 021c 02EBC102 		add	r2, r2, r1, lsl #3
 2794              	.LVL300:
 481:Drivers/STM32WBxx_HAL_Driver/Src/stm32wbxx_ll_usb.c ****     }
 2795              		.loc 1 481 7 discriminator 1 view .LVU915
 2796              	.LBB81:
 481:Drivers/STM32WBxx_HAL_Driver/Src/stm32wbxx_ll_usb.c ****     }
 2797              		.loc 1 481 7 discriminator 1 view .LVU916
 481:Drivers/STM32WBxx_HAL_Driver/Src/stm32wbxx_ll_usb.c ****     }
 2798              		.loc 1 481 7 discriminator 1 view .LVU917
 2799 0220 F3B9     		cbnz	r3, .L108
 481:Drivers/STM32WBxx_HAL_Driver/Src/stm32wbxx_ll_usb.c ****     }
 2800              		.loc 1 481 7 discriminator 3 view .LVU918
 2801 0222 B2F80214 		ldrh	r1, [r2, #1026]
 2802 0226 21F4F841 		bic	r1, r1, #31744
 481:Drivers/STM32WBxx_HAL_Driver/Src/stm32wbxx_ll_usb.c ****     }
 2803              		.loc 1 481 7 discriminator 3 view .LVU919
 2804 022a 6FEA4141 		mvn	r1, r1, lsl #17
 2805 022e 6FEA5141 		mvn	r1, r1, lsr #17
 2806 0232 A2F80214 		strh	r1, [r2, #1026]	@ movhi
 2807              	.LVL301:
 2808              	.L107:
 481:Drivers/STM32WBxx_HAL_Driver/Src/stm32wbxx_ll_usb.c ****     }
 2809              		.loc 1 481 7 is_stmt 0 discriminator 3 view .LVU920
 2810              	.LBE81:
 2811              	.LBE80:
 481:Drivers/STM32WBxx_HAL_Driver/Src/stm32wbxx_ll_usb.c ****     }
 2812              		.loc 1 481 7 is_stmt 1 discriminator 15 view .LVU921
 481:Drivers/STM32WBxx_HAL_Driver/Src/stm32wbxx_ll_usb.c ****     }
 2813              		.loc 1 481 7 discriminator 15 view .LVU922
 481:Drivers/STM32WBxx_HAL_Driver/Src/stm32wbxx_ll_usb.c ****     }
 2814              		.loc 1 481 7 discriminator 15 view .LVU923
 2815              	.LBB83:
 481:Drivers/STM32WBxx_HAL_Driver/Src/stm32wbxx_ll_usb.c ****     }
 2816              		.loc 1 481 7 discriminator 15 view .LVU924
 481:Drivers/STM32WBxx_HAL_Driver/Src/stm32wbxx_ll_usb.c ****     }
 2817              		.loc 1 481 7 discriminator 15 view .LVU925
 481:Drivers/STM32WBxx_HAL_Driver/Src/stm32wbxx_ll_usb.c ****     }
 2818              		.loc 1 481 7 discriminator 15 view .LVU926
 2819 0236 6278     		ldrb	r2, [r4, #1]	@ zero_extendqisi2
 2820 0238 C2BB     		cbnz	r2, .L111
 481:Drivers/STM32WBxx_HAL_Driver/Src/stm32wbxx_ll_usb.c ****     }
 2821              		.loc 1 481 7 discriminator 16 view .LVU927
 2822              	.LBB84:
ARM GAS  /tmp/ccr3mP7A.s 			page 73


 481:Drivers/STM32WBxx_HAL_Driver/Src/stm32wbxx_ll_usb.c ****     }
 2823              		.loc 1 481 7 discriminator 16 view .LVU928
 2824              	.LVL302:
 481:Drivers/STM32WBxx_HAL_Driver/Src/stm32wbxx_ll_usb.c ****     }
 2825              		.loc 1 481 7 discriminator 16 view .LVU929
 481:Drivers/STM32WBxx_HAL_Driver/Src/stm32wbxx_ll_usb.c ****     }
 2826              		.loc 1 481 7 discriminator 16 view .LVU930
 2827 023a B5F85020 		ldrh	r2, [r5, #80]
 2828 023e 15FA82F2 		uxtah	r2, r5, r2
 2829              	.LVL303:
 481:Drivers/STM32WBxx_HAL_Driver/Src/stm32wbxx_ll_usb.c ****     }
 2830              		.loc 1 481 7 discriminator 16 view .LVU931
 2831 0242 2178     		ldrb	r1, [r4]	@ zero_extendqisi2
 2832 0244 02EBC102 		add	r2, r2, r1, lsl #3
 2833              	.LVL304:
 481:Drivers/STM32WBxx_HAL_Driver/Src/stm32wbxx_ll_usb.c ****     }
 2834              		.loc 1 481 7 discriminator 16 view .LVU932
 2835              	.LBB85:
 481:Drivers/STM32WBxx_HAL_Driver/Src/stm32wbxx_ll_usb.c ****     }
 2836              		.loc 1 481 7 discriminator 16 view .LVU933
 481:Drivers/STM32WBxx_HAL_Driver/Src/stm32wbxx_ll_usb.c ****     }
 2837              		.loc 1 481 7 discriminator 16 view .LVU934
 2838 0248 EBB9     		cbnz	r3, .L112
 481:Drivers/STM32WBxx_HAL_Driver/Src/stm32wbxx_ll_usb.c ****     }
 2839              		.loc 1 481 7 discriminator 18 view .LVU935
 2840 024a B2F80634 		ldrh	r3, [r2, #1030]
 2841              	.LVL305:
 481:Drivers/STM32WBxx_HAL_Driver/Src/stm32wbxx_ll_usb.c ****     }
 2842              		.loc 1 481 7 is_stmt 0 discriminator 18 view .LVU936
 2843 024e 23F4F843 		bic	r3, r3, #31744
 481:Drivers/STM32WBxx_HAL_Driver/Src/stm32wbxx_ll_usb.c ****     }
 2844              		.loc 1 481 7 is_stmt 1 discriminator 18 view .LVU937
 2845 0252 6FEA4343 		mvn	r3, r3, lsl #17
 2846 0256 6FEA5343 		mvn	r3, r3, lsr #17
 2847 025a A2F80634 		strh	r3, [r2, #1030]	@ movhi
 2848 025e F4E6     		b	.L104
 2849              	.LVL306:
 2850              	.L108:
 481:Drivers/STM32WBxx_HAL_Driver/Src/stm32wbxx_ll_usb.c ****     }
 2851              		.loc 1 481 7 is_stmt 0 discriminator 18 view .LVU938
 2852              	.LBE85:
 2853              	.LBE84:
 2854              	.LBE83:
 2855              	.LBB88:
 2856              	.LBB82:
 481:Drivers/STM32WBxx_HAL_Driver/Src/stm32wbxx_ll_usb.c ****     }
 2857              		.loc 1 481 7 is_stmt 1 discriminator 4 view .LVU939
 2858 0260 3D2B     		cmp	r3, #61
 2859 0262 08D8     		bhi	.L109
 481:Drivers/STM32WBxx_HAL_Driver/Src/stm32wbxx_ll_usb.c ****     }
 2860              		.loc 1 481 7 discriminator 6 view .LVU940
 481:Drivers/STM32WBxx_HAL_Driver/Src/stm32wbxx_ll_usb.c ****     }
 2861              		.loc 1 481 7 discriminator 6 view .LVU941
 2862 0264 5908     		lsrs	r1, r3, #1
 2863              	.LVL307:
 481:Drivers/STM32WBxx_HAL_Driver/Src/stm32wbxx_ll_usb.c ****     }
 2864              		.loc 1 481 7 discriminator 6 view .LVU942
ARM GAS  /tmp/ccr3mP7A.s 			page 74


 2865 0266 13F0010F 		tst	r3, #1
 2866 026a 00D0     		beq	.L110
 481:Drivers/STM32WBxx_HAL_Driver/Src/stm32wbxx_ll_usb.c ****     }
 2867              		.loc 1 481 7 discriminator 8 view .LVU943
 2868 026c 0131     		adds	r1, r1, #1
 2869              	.LVL308:
 2870              	.L110:
 481:Drivers/STM32WBxx_HAL_Driver/Src/stm32wbxx_ll_usb.c ****     }
 2871              		.loc 1 481 7 discriminator 10 view .LVU944
 2872 026e 8902     		lsls	r1, r1, #10
 2873              	.LVL309:
 481:Drivers/STM32WBxx_HAL_Driver/Src/stm32wbxx_ll_usb.c ****     }
 2874              		.loc 1 481 7 is_stmt 0 discriminator 10 view .LVU945
 2875 0270 A2F80214 		strh	r1, [r2, #1026]	@ movhi
 481:Drivers/STM32WBxx_HAL_Driver/Src/stm32wbxx_ll_usb.c ****     }
 2876              		.loc 1 481 7 is_stmt 1 discriminator 10 view .LVU946
 2877 0274 DFE7     		b	.L107
 2878              	.L109:
 481:Drivers/STM32WBxx_HAL_Driver/Src/stm32wbxx_ll_usb.c ****     }
 2879              		.loc 1 481 7 discriminator 7 view .LVU947
 481:Drivers/STM32WBxx_HAL_Driver/Src/stm32wbxx_ll_usb.c ****     }
 2880              		.loc 1 481 7 discriminator 7 view .LVU948
 2881 0276 5909     		lsrs	r1, r3, #5
 2882              	.LVL310:
 481:Drivers/STM32WBxx_HAL_Driver/Src/stm32wbxx_ll_usb.c ****     }
 2883              		.loc 1 481 7 discriminator 7 view .LVU949
 2884 0278 6FEAC161 		mvn	r1, r1, lsl #27
 2885              	.LVL311:
 481:Drivers/STM32WBxx_HAL_Driver/Src/stm32wbxx_ll_usb.c ****     }
 2886              		.loc 1 481 7 is_stmt 0 discriminator 7 view .LVU950
 2887 027c 6FEA5141 		mvn	r1, r1, lsr #17
 2888 0280 A2F80214 		strh	r1, [r2, #1026]	@ movhi
 2889 0284 D7E7     		b	.L107
 2890              	.LVL312:
 2891              	.L112:
 481:Drivers/STM32WBxx_HAL_Driver/Src/stm32wbxx_ll_usb.c ****     }
 2892              		.loc 1 481 7 discriminator 7 view .LVU951
 2893              	.LBE82:
 2894              	.LBE88:
 2895              	.LBB89:
 2896              	.LBB87:
 2897              	.LBB86:
 481:Drivers/STM32WBxx_HAL_Driver/Src/stm32wbxx_ll_usb.c ****     }
 2898              		.loc 1 481 7 is_stmt 1 discriminator 19 view .LVU952
 2899 0286 3D2B     		cmp	r3, #61
 2900 0288 08D8     		bhi	.L113
 481:Drivers/STM32WBxx_HAL_Driver/Src/stm32wbxx_ll_usb.c ****     }
 2901              		.loc 1 481 7 discriminator 21 view .LVU953
 481:Drivers/STM32WBxx_HAL_Driver/Src/stm32wbxx_ll_usb.c ****     }
 2902              		.loc 1 481 7 discriminator 21 view .LVU954
 2903 028a 5908     		lsrs	r1, r3, #1
 2904              	.LVL313:
 481:Drivers/STM32WBxx_HAL_Driver/Src/stm32wbxx_ll_usb.c ****     }
 2905              		.loc 1 481 7 discriminator 21 view .LVU955
 2906 028c 13F0010F 		tst	r3, #1
 2907 0290 00D0     		beq	.L114
 481:Drivers/STM32WBxx_HAL_Driver/Src/stm32wbxx_ll_usb.c ****     }
ARM GAS  /tmp/ccr3mP7A.s 			page 75


 2908              		.loc 1 481 7 discriminator 23 view .LVU956
 2909 0292 0131     		adds	r1, r1, #1
 2910              	.LVL314:
 2911              	.L114:
 481:Drivers/STM32WBxx_HAL_Driver/Src/stm32wbxx_ll_usb.c ****     }
 2912              		.loc 1 481 7 discriminator 25 view .LVU957
 2913 0294 8902     		lsls	r1, r1, #10
 2914              	.LVL315:
 481:Drivers/STM32WBxx_HAL_Driver/Src/stm32wbxx_ll_usb.c ****     }
 2915              		.loc 1 481 7 is_stmt 0 discriminator 25 view .LVU958
 2916 0296 A2F80614 		strh	r1, [r2, #1030]	@ movhi
 481:Drivers/STM32WBxx_HAL_Driver/Src/stm32wbxx_ll_usb.c ****     }
 2917              		.loc 1 481 7 is_stmt 1 discriminator 25 view .LVU959
 2918 029a D6E6     		b	.L104
 2919              	.L113:
 481:Drivers/STM32WBxx_HAL_Driver/Src/stm32wbxx_ll_usb.c ****     }
 2920              		.loc 1 481 7 discriminator 22 view .LVU960
 481:Drivers/STM32WBxx_HAL_Driver/Src/stm32wbxx_ll_usb.c ****     }
 2921              		.loc 1 481 7 discriminator 22 view .LVU961
 2922 029c 5B09     		lsrs	r3, r3, #5
 2923              	.LVL316:
 481:Drivers/STM32WBxx_HAL_Driver/Src/stm32wbxx_ll_usb.c ****     }
 2924              		.loc 1 481 7 discriminator 22 view .LVU962
 2925 029e 6FEAC363 		mvn	r3, r3, lsl #27
 2926              	.LVL317:
 481:Drivers/STM32WBxx_HAL_Driver/Src/stm32wbxx_ll_usb.c ****     }
 2927              		.loc 1 481 7 is_stmt 0 discriminator 22 view .LVU963
 2928 02a2 6FEA5343 		mvn	r3, r3, lsr #17
 2929 02a6 A2F80634 		strh	r3, [r2, #1030]	@ movhi
 2930 02aa CEE6     		b	.L104
 2931              	.LVL318:
 2932              	.L111:
 481:Drivers/STM32WBxx_HAL_Driver/Src/stm32wbxx_ll_usb.c ****     }
 2933              		.loc 1 481 7 discriminator 22 view .LVU964
 2934              	.LBE86:
 2935              	.LBE87:
 481:Drivers/STM32WBxx_HAL_Driver/Src/stm32wbxx_ll_usb.c ****     }
 2936              		.loc 1 481 7 is_stmt 1 discriminator 17 view .LVU965
 2937 02ac 012A     		cmp	r2, #1
 2938 02ae 7FF4CCAE 		bne	.L104
 481:Drivers/STM32WBxx_HAL_Driver/Src/stm32wbxx_ll_usb.c ****     }
 2939              		.loc 1 481 7 discriminator 28 view .LVU966
 2940 02b2 B5F85020 		ldrh	r2, [r5, #80]
 2941 02b6 15FA82F2 		uxtah	r2, r5, r2
 2942              	.LVL319:
 481:Drivers/STM32WBxx_HAL_Driver/Src/stm32wbxx_ll_usb.c ****     }
 2943              		.loc 1 481 7 discriminator 28 view .LVU967
 2944 02ba 2178     		ldrb	r1, [r4]	@ zero_extendqisi2
 2945 02bc 02EBC102 		add	r2, r2, r1, lsl #3
 2946              	.LVL320:
