ARM GAS  /tmp/ccRrvtNP.s 			page 1


   1              		.cpu cortex-m4
   2              		.eabi_attribute 27, 1
   3              		.eabi_attribute 28, 1
   4              		.eabi_attribute 20, 1
   5              		.eabi_attribute 21, 1
   6              		.eabi_attribute 23, 3
   7              		.eabi_attribute 24, 1
   8              		.eabi_attribute 25, 1
   9              		.eabi_attribute 26, 1
  10              		.eabi_attribute 30, 1
  11              		.eabi_attribute 34, 1
  12              		.eabi_attribute 18, 4
  13              		.file	"stm32wbxx_hal_pwr_ex.c"
  14              		.text
  15              	.Ltext0:
  16              		.cfi_sections	.debug_frame
  17              		.section	.text.HAL_PWREx_GetVoltageRange,"ax",%progbits
  18              		.align	1
  19              		.global	HAL_PWREx_GetVoltageRange
  20              		.arch armv7e-m
  21              		.syntax unified
  22              		.thumb
  23              		.thumb_func
  24              		.fpu fpv4-sp-d16
  26              	HAL_PWREx_GetVoltageRange:
  27              	.LFB941:
  28              		.file 1 "Drivers/STM32WBxx_HAL_Driver/Src/stm32wbxx_hal_pwr_ex.c"
   1:Drivers/STM32WBxx_HAL_Driver/Src/stm32wbxx_hal_pwr_ex.c **** /**
   2:Drivers/STM32WBxx_HAL_Driver/Src/stm32wbxx_hal_pwr_ex.c ****   ******************************************************************************
   3:Drivers/STM32WBxx_HAL_Driver/Src/stm32wbxx_hal_pwr_ex.c ****   * @file    stm32wbxx_hal_pwr_ex.c
   4:Drivers/STM32WBxx_HAL_Driver/Src/stm32wbxx_hal_pwr_ex.c ****   * @author  MCD Application Team
   5:Drivers/STM32WBxx_HAL_Driver/Src/stm32wbxx_hal_pwr_ex.c ****   * @brief   Extended PWR HAL module driver.
   6:Drivers/STM32WBxx_HAL_Driver/Src/stm32wbxx_hal_pwr_ex.c ****   *          This file provides firmware functions to manage the following
   7:Drivers/STM32WBxx_HAL_Driver/Src/stm32wbxx_hal_pwr_ex.c ****   *          functionalities of the Power Controller (PWR) peripheral:
   8:Drivers/STM32WBxx_HAL_Driver/Src/stm32wbxx_hal_pwr_ex.c ****   *           + Extended Initialization and de-initialization functions
   9:Drivers/STM32WBxx_HAL_Driver/Src/stm32wbxx_hal_pwr_ex.c ****   *           + Extended Peripheral Control functions
  10:Drivers/STM32WBxx_HAL_Driver/Src/stm32wbxx_hal_pwr_ex.c ****   *         
  11:Drivers/STM32WBxx_HAL_Driver/Src/stm32wbxx_hal_pwr_ex.c ****   ******************************************************************************
  12:Drivers/STM32WBxx_HAL_Driver/Src/stm32wbxx_hal_pwr_ex.c ****   * @attention
  13:Drivers/STM32WBxx_HAL_Driver/Src/stm32wbxx_hal_pwr_ex.c ****   *
  14:Drivers/STM32WBxx_HAL_Driver/Src/stm32wbxx_hal_pwr_ex.c ****   * <h2><center>&copy; Copyright (c) 2019 STMicroelectronics. 
  15:Drivers/STM32WBxx_HAL_Driver/Src/stm32wbxx_hal_pwr_ex.c ****   * All rights reserved.</center></h2>
  16:Drivers/STM32WBxx_HAL_Driver/Src/stm32wbxx_hal_pwr_ex.c ****   *
  17:Drivers/STM32WBxx_HAL_Driver/Src/stm32wbxx_hal_pwr_ex.c ****   * This software component is licensed by ST under BSD 3-Clause license,
  18:Drivers/STM32WBxx_HAL_Driver/Src/stm32wbxx_hal_pwr_ex.c ****   * the "License"; You may not use this file except in compliance with the 
  19:Drivers/STM32WBxx_HAL_Driver/Src/stm32wbxx_hal_pwr_ex.c ****   * License. You may obtain a copy of the License at:
  20:Drivers/STM32WBxx_HAL_Driver/Src/stm32wbxx_hal_pwr_ex.c ****   *                        opensource.org/licenses/BSD-3-Clause
  21:Drivers/STM32WBxx_HAL_Driver/Src/stm32wbxx_hal_pwr_ex.c ****   *
  22:Drivers/STM32WBxx_HAL_Driver/Src/stm32wbxx_hal_pwr_ex.c ****   ******************************************************************************
  23:Drivers/STM32WBxx_HAL_Driver/Src/stm32wbxx_hal_pwr_ex.c ****   */
  24:Drivers/STM32WBxx_HAL_Driver/Src/stm32wbxx_hal_pwr_ex.c **** 
  25:Drivers/STM32WBxx_HAL_Driver/Src/stm32wbxx_hal_pwr_ex.c **** /* Includes ------------------------------------------------------------------*/
  26:Drivers/STM32WBxx_HAL_Driver/Src/stm32wbxx_hal_pwr_ex.c **** #include "stm32wbxx_hal.h"
  27:Drivers/STM32WBxx_HAL_Driver/Src/stm32wbxx_hal_pwr_ex.c **** 
  28:Drivers/STM32WBxx_HAL_Driver/Src/stm32wbxx_hal_pwr_ex.c **** /** @addtogroup STM32WBxx_HAL_Driver
  29:Drivers/STM32WBxx_HAL_Driver/Src/stm32wbxx_hal_pwr_ex.c ****   * @{
  30:Drivers/STM32WBxx_HAL_Driver/Src/stm32wbxx_hal_pwr_ex.c ****   */
ARM GAS  /tmp/ccRrvtNP.s 			page 2


  31:Drivers/STM32WBxx_HAL_Driver/Src/stm32wbxx_hal_pwr_ex.c **** 
  32:Drivers/STM32WBxx_HAL_Driver/Src/stm32wbxx_hal_pwr_ex.c **** /** @addtogroup PWREx
  33:Drivers/STM32WBxx_HAL_Driver/Src/stm32wbxx_hal_pwr_ex.c ****   * @{
  34:Drivers/STM32WBxx_HAL_Driver/Src/stm32wbxx_hal_pwr_ex.c ****   */
  35:Drivers/STM32WBxx_HAL_Driver/Src/stm32wbxx_hal_pwr_ex.c **** 
  36:Drivers/STM32WBxx_HAL_Driver/Src/stm32wbxx_hal_pwr_ex.c **** #ifdef HAL_PWR_MODULE_ENABLED
  37:Drivers/STM32WBxx_HAL_Driver/Src/stm32wbxx_hal_pwr_ex.c **** 
  38:Drivers/STM32WBxx_HAL_Driver/Src/stm32wbxx_hal_pwr_ex.c **** /* Private typedef -----------------------------------------------------------*/
  39:Drivers/STM32WBxx_HAL_Driver/Src/stm32wbxx_hal_pwr_ex.c **** /* Private define ------------------------------------------------------------*/
  40:Drivers/STM32WBxx_HAL_Driver/Src/stm32wbxx_hal_pwr_ex.c **** /** @defgroup PWR_Extended_Private_Defines PWR Extended Private Defines
  41:Drivers/STM32WBxx_HAL_Driver/Src/stm32wbxx_hal_pwr_ex.c ****   * @{
  42:Drivers/STM32WBxx_HAL_Driver/Src/stm32wbxx_hal_pwr_ex.c ****   */
  43:Drivers/STM32WBxx_HAL_Driver/Src/stm32wbxx_hal_pwr_ex.c **** #define PWR_PORTE_AVAILABLE_PINS   (PWR_GPIO_BIT_4 | PWR_GPIO_BIT_3 | PWR_GPIO_BIT_2 | PWR_GPIO_BIT
  44:Drivers/STM32WBxx_HAL_Driver/Src/stm32wbxx_hal_pwr_ex.c **** #define PWR_PORTH_AVAILABLE_PINS   (PWR_GPIO_BIT_3 | PWR_GPIO_BIT_1 | PWR_GPIO_BIT_0)
  45:Drivers/STM32WBxx_HAL_Driver/Src/stm32wbxx_hal_pwr_ex.c **** 
  46:Drivers/STM32WBxx_HAL_Driver/Src/stm32wbxx_hal_pwr_ex.c **** /** @defgroup PWREx_TimeOut_Value PWR Extended Flag Setting Time Out Value
  47:Drivers/STM32WBxx_HAL_Driver/Src/stm32wbxx_hal_pwr_ex.c ****   * @{
  48:Drivers/STM32WBxx_HAL_Driver/Src/stm32wbxx_hal_pwr_ex.c ****   */ 
  49:Drivers/STM32WBxx_HAL_Driver/Src/stm32wbxx_hal_pwr_ex.c **** #define PWR_FLAG_SETTING_DELAY_US                      50U   /*!< Time out value for REGLPF and VOS
  50:Drivers/STM32WBxx_HAL_Driver/Src/stm32wbxx_hal_pwr_ex.c **** /**
  51:Drivers/STM32WBxx_HAL_Driver/Src/stm32wbxx_hal_pwr_ex.c ****   * @}
  52:Drivers/STM32WBxx_HAL_Driver/Src/stm32wbxx_hal_pwr_ex.c ****   */
  53:Drivers/STM32WBxx_HAL_Driver/Src/stm32wbxx_hal_pwr_ex.c **** 
  54:Drivers/STM32WBxx_HAL_Driver/Src/stm32wbxx_hal_pwr_ex.c **** /**
  55:Drivers/STM32WBxx_HAL_Driver/Src/stm32wbxx_hal_pwr_ex.c ****   * @}
  56:Drivers/STM32WBxx_HAL_Driver/Src/stm32wbxx_hal_pwr_ex.c ****   */
  57:Drivers/STM32WBxx_HAL_Driver/Src/stm32wbxx_hal_pwr_ex.c **** 
  58:Drivers/STM32WBxx_HAL_Driver/Src/stm32wbxx_hal_pwr_ex.c **** 
  59:Drivers/STM32WBxx_HAL_Driver/Src/stm32wbxx_hal_pwr_ex.c **** 
  60:Drivers/STM32WBxx_HAL_Driver/Src/stm32wbxx_hal_pwr_ex.c **** /* Private macro -------------------------------------------------------------*/
  61:Drivers/STM32WBxx_HAL_Driver/Src/stm32wbxx_hal_pwr_ex.c **** /* Private variables ---------------------------------------------------------*/
  62:Drivers/STM32WBxx_HAL_Driver/Src/stm32wbxx_hal_pwr_ex.c **** /* Private function prototypes -----------------------------------------------*/
  63:Drivers/STM32WBxx_HAL_Driver/Src/stm32wbxx_hal_pwr_ex.c **** /* Exported functions --------------------------------------------------------*/
  64:Drivers/STM32WBxx_HAL_Driver/Src/stm32wbxx_hal_pwr_ex.c **** /** @addtogroup PWREx_Exported_Functions PWR Extended Exported Functions
  65:Drivers/STM32WBxx_HAL_Driver/Src/stm32wbxx_hal_pwr_ex.c ****   * @{
  66:Drivers/STM32WBxx_HAL_Driver/Src/stm32wbxx_hal_pwr_ex.c ****   */
  67:Drivers/STM32WBxx_HAL_Driver/Src/stm32wbxx_hal_pwr_ex.c ****   
  68:Drivers/STM32WBxx_HAL_Driver/Src/stm32wbxx_hal_pwr_ex.c **** /** @addtogroup PWREx_Exported_Functions_Group1 Extended Peripheral Control functions
  69:Drivers/STM32WBxx_HAL_Driver/Src/stm32wbxx_hal_pwr_ex.c ****   *  @brief   Extended Peripheral Control functions
  70:Drivers/STM32WBxx_HAL_Driver/Src/stm32wbxx_hal_pwr_ex.c ****   *
  71:Drivers/STM32WBxx_HAL_Driver/Src/stm32wbxx_hal_pwr_ex.c **** @verbatim
  72:Drivers/STM32WBxx_HAL_Driver/Src/stm32wbxx_hal_pwr_ex.c ****  ===============================================================================
  73:Drivers/STM32WBxx_HAL_Driver/Src/stm32wbxx_hal_pwr_ex.c ****               ##### Extended Peripheral Initialization and de-initialization functions #####
  74:Drivers/STM32WBxx_HAL_Driver/Src/stm32wbxx_hal_pwr_ex.c ****  ===============================================================================
  75:Drivers/STM32WBxx_HAL_Driver/Src/stm32wbxx_hal_pwr_ex.c ****     [..]
  76:Drivers/STM32WBxx_HAL_Driver/Src/stm32wbxx_hal_pwr_ex.c **** 
  77:Drivers/STM32WBxx_HAL_Driver/Src/stm32wbxx_hal_pwr_ex.c **** @endverbatim
  78:Drivers/STM32WBxx_HAL_Driver/Src/stm32wbxx_hal_pwr_ex.c ****   * @{
  79:Drivers/STM32WBxx_HAL_Driver/Src/stm32wbxx_hal_pwr_ex.c ****   */
  80:Drivers/STM32WBxx_HAL_Driver/Src/stm32wbxx_hal_pwr_ex.c ****   
  81:Drivers/STM32WBxx_HAL_Driver/Src/stm32wbxx_hal_pwr_ex.c **** 
  82:Drivers/STM32WBxx_HAL_Driver/Src/stm32wbxx_hal_pwr_ex.c **** #if defined(PWR_CR1_VOS)
  83:Drivers/STM32WBxx_HAL_Driver/Src/stm32wbxx_hal_pwr_ex.c **** /**
  84:Drivers/STM32WBxx_HAL_Driver/Src/stm32wbxx_hal_pwr_ex.c ****   * @brief Return Voltage Scaling Range.
  85:Drivers/STM32WBxx_HAL_Driver/Src/stm32wbxx_hal_pwr_ex.c ****   * @retval VOS bit field (PWR_REGULATOR_VOLTAGE_RANGE1 or PWR_REGULATOR_VOLTAGE_RANGE2)
  86:Drivers/STM32WBxx_HAL_Driver/Src/stm32wbxx_hal_pwr_ex.c ****   */  
  87:Drivers/STM32WBxx_HAL_Driver/Src/stm32wbxx_hal_pwr_ex.c **** uint32_t HAL_PWREx_GetVoltageRange(void)
ARM GAS  /tmp/ccRrvtNP.s 			page 3


  88:Drivers/STM32WBxx_HAL_Driver/Src/stm32wbxx_hal_pwr_ex.c **** {
  29              		.loc 1 88 1 view -0
  30              		.cfi_startproc
  31              		@ args = 0, pretend = 0, frame = 0
  32              		@ frame_needed = 0, uses_anonymous_args = 0
  33              		@ link register save eliminated.
  89:Drivers/STM32WBxx_HAL_Driver/Src/stm32wbxx_hal_pwr_ex.c ****   return  (PWR->CR1 & PWR_CR1_VOS);
  34              		.loc 1 89 3 view .LVU1
  35              		.loc 1 89 15 is_stmt 0 view .LVU2
  36 0000 024B     		ldr	r3, .L2
  37 0002 1868     		ldr	r0, [r3]
  90:Drivers/STM32WBxx_HAL_Driver/Src/stm32wbxx_hal_pwr_ex.c **** }
  38              		.loc 1 90 1 view .LVU3
  39 0004 00F4C060 		and	r0, r0, #1536
  40 0008 7047     		bx	lr
  41              	.L3:
  42 000a 00BF     		.align	2
  43              	.L2:
  44 000c 00040058 		.word	1476396032
  45              		.cfi_endproc
  46              	.LFE941:
  48              		.section	.text.HAL_PWREx_ControlVoltageScaling,"ax",%progbits
  49              		.align	1
  50              		.global	HAL_PWREx_ControlVoltageScaling
  51              		.syntax unified
  52              		.thumb
  53              		.thumb_func
  54              		.fpu fpv4-sp-d16
  56              	HAL_PWREx_ControlVoltageScaling:
  57              	.LVL0:
  58              	.LFB942:
  91:Drivers/STM32WBxx_HAL_Driver/Src/stm32wbxx_hal_pwr_ex.c **** 
  92:Drivers/STM32WBxx_HAL_Driver/Src/stm32wbxx_hal_pwr_ex.c **** /**
  93:Drivers/STM32WBxx_HAL_Driver/Src/stm32wbxx_hal_pwr_ex.c ****   * @brief Configure the main internal regulator output voltage.
  94:Drivers/STM32WBxx_HAL_Driver/Src/stm32wbxx_hal_pwr_ex.c ****   * @param VoltageScaling specifies the regulator output voltage to achieve
  95:Drivers/STM32WBxx_HAL_Driver/Src/stm32wbxx_hal_pwr_ex.c ****   *         a tradeoff between performance and power consumption.
  96:Drivers/STM32WBxx_HAL_Driver/Src/stm32wbxx_hal_pwr_ex.c ****   *          This parameter can be one of the following values:
  97:Drivers/STM32WBxx_HAL_Driver/Src/stm32wbxx_hal_pwr_ex.c ****   *            @arg @ref PWR_REGULATOR_VOLTAGE_SCALE1 Regulator voltage output range 1 mode,
  98:Drivers/STM32WBxx_HAL_Driver/Src/stm32wbxx_hal_pwr_ex.c ****   *                                                typical output voltage at 1.2 V,
  99:Drivers/STM32WBxx_HAL_Driver/Src/stm32wbxx_hal_pwr_ex.c ****   *                                                system frequency up to 64 MHz.
 100:Drivers/STM32WBxx_HAL_Driver/Src/stm32wbxx_hal_pwr_ex.c ****   *            @arg @ref PWR_REGULATOR_VOLTAGE_SCALE2 Regulator voltage output range 2 mode,
 101:Drivers/STM32WBxx_HAL_Driver/Src/stm32wbxx_hal_pwr_ex.c ****   *                                                typical output voltage at 1.0 V,
 102:Drivers/STM32WBxx_HAL_Driver/Src/stm32wbxx_hal_pwr_ex.c ****   *                                                system frequency up to 16 MHz.
 103:Drivers/STM32WBxx_HAL_Driver/Src/stm32wbxx_hal_pwr_ex.c ****   * @note  When moving from Range 1 to Range 2, the system frequency must be decreased to
 104:Drivers/STM32WBxx_HAL_Driver/Src/stm32wbxx_hal_pwr_ex.c ****   *        a value below 16 MHz before calling HAL_PWREx_ControlVoltageScaling() API.
 105:Drivers/STM32WBxx_HAL_Driver/Src/stm32wbxx_hal_pwr_ex.c ****   *        When moving from Range 2 to Range 1, the system frequency can be increased to
 106:Drivers/STM32WBxx_HAL_Driver/Src/stm32wbxx_hal_pwr_ex.c ****   *        a value up to 64 MHz after calling HAL_PWREx_ControlVoltageScaling() API.
 107:Drivers/STM32WBxx_HAL_Driver/Src/stm32wbxx_hal_pwr_ex.c ****   * @note  When moving from Range 2 to Range 1, the API waits for VOSF flag to be
 108:Drivers/STM32WBxx_HAL_Driver/Src/stm32wbxx_hal_pwr_ex.c ****   *        cleared before returning the status. If the flag is not cleared within
 109:Drivers/STM32WBxx_HAL_Driver/Src/stm32wbxx_hal_pwr_ex.c ****   *        50 microseconds, HAL_TIMEOUT status is reported.
 110:Drivers/STM32WBxx_HAL_Driver/Src/stm32wbxx_hal_pwr_ex.c ****   * @retval HAL Status
 111:Drivers/STM32WBxx_HAL_Driver/Src/stm32wbxx_hal_pwr_ex.c ****   */
 112:Drivers/STM32WBxx_HAL_Driver/Src/stm32wbxx_hal_pwr_ex.c **** HAL_StatusTypeDef HAL_PWREx_ControlVoltageScaling(uint32_t VoltageScaling)
 113:Drivers/STM32WBxx_HAL_Driver/Src/stm32wbxx_hal_pwr_ex.c **** {
  59              		.loc 1 113 1 is_stmt 1 view -0
  60              		.cfi_startproc
  61              		@ args = 0, pretend = 0, frame = 0
ARM GAS  /tmp/ccRrvtNP.s 			page 4


  62              		@ frame_needed = 0, uses_anonymous_args = 0
  63              		@ link register save eliminated.
 114:Drivers/STM32WBxx_HAL_Driver/Src/stm32wbxx_hal_pwr_ex.c ****   uint32_t wait_loop_index;
  64              		.loc 1 114 3 view .LVU5
 115:Drivers/STM32WBxx_HAL_Driver/Src/stm32wbxx_hal_pwr_ex.c **** 
 116:Drivers/STM32WBxx_HAL_Driver/Src/stm32wbxx_hal_pwr_ex.c ****   assert_param(IS_PWR_VOLTAGE_SCALING_RANGE(VoltageScaling));
  65              		.loc 1 116 3 view .LVU6
 117:Drivers/STM32WBxx_HAL_Driver/Src/stm32wbxx_hal_pwr_ex.c ****   
 118:Drivers/STM32WBxx_HAL_Driver/Src/stm32wbxx_hal_pwr_ex.c ****   /* If Set Range 1 */
 119:Drivers/STM32WBxx_HAL_Driver/Src/stm32wbxx_hal_pwr_ex.c ****   if (VoltageScaling == PWR_REGULATOR_VOLTAGE_SCALE1)
  66              		.loc 1 119 3 view .LVU7
  67              		.loc 1 119 6 is_stmt 0 view .LVU8
  68 0000 B0F5007F 		cmp	r0, #512
  69 0004 0FD0     		beq	.L13
 120:Drivers/STM32WBxx_HAL_Driver/Src/stm32wbxx_hal_pwr_ex.c ****   {
 121:Drivers/STM32WBxx_HAL_Driver/Src/stm32wbxx_hal_pwr_ex.c ****     if (READ_BIT(PWR->CR1, PWR_CR1_VOS) != PWR_REGULATOR_VOLTAGE_SCALE1)
 122:Drivers/STM32WBxx_HAL_Driver/Src/stm32wbxx_hal_pwr_ex.c ****     {
 123:Drivers/STM32WBxx_HAL_Driver/Src/stm32wbxx_hal_pwr_ex.c ****       /* Set Range 1 */
 124:Drivers/STM32WBxx_HAL_Driver/Src/stm32wbxx_hal_pwr_ex.c ****       MODIFY_REG(PWR->CR1, PWR_CR1_VOS, PWR_REGULATOR_VOLTAGE_SCALE1);
 125:Drivers/STM32WBxx_HAL_Driver/Src/stm32wbxx_hal_pwr_ex.c ****       
 126:Drivers/STM32WBxx_HAL_Driver/Src/stm32wbxx_hal_pwr_ex.c ****       /* Wait until VOSF is cleared */
 127:Drivers/STM32WBxx_HAL_Driver/Src/stm32wbxx_hal_pwr_ex.c ****       wait_loop_index = (PWR_FLAG_SETTING_DELAY_US * (SystemCoreClock / 1000000U));
 128:Drivers/STM32WBxx_HAL_Driver/Src/stm32wbxx_hal_pwr_ex.c ****       while ((HAL_IS_BIT_SET(PWR->SR2, PWR_SR2_VOSF)) && (wait_loop_index != 0U))
 129:Drivers/STM32WBxx_HAL_Driver/Src/stm32wbxx_hal_pwr_ex.c ****       {
 130:Drivers/STM32WBxx_HAL_Driver/Src/stm32wbxx_hal_pwr_ex.c ****         wait_loop_index--;
 131:Drivers/STM32WBxx_HAL_Driver/Src/stm32wbxx_hal_pwr_ex.c ****       }
 132:Drivers/STM32WBxx_HAL_Driver/Src/stm32wbxx_hal_pwr_ex.c ****       if (HAL_IS_BIT_SET(PWR->SR2, PWR_SR2_VOSF))
 133:Drivers/STM32WBxx_HAL_Driver/Src/stm32wbxx_hal_pwr_ex.c ****       {
 134:Drivers/STM32WBxx_HAL_Driver/Src/stm32wbxx_hal_pwr_ex.c ****         return HAL_TIMEOUT;
 135:Drivers/STM32WBxx_HAL_Driver/Src/stm32wbxx_hal_pwr_ex.c ****       }
 136:Drivers/STM32WBxx_HAL_Driver/Src/stm32wbxx_hal_pwr_ex.c ****     }
 137:Drivers/STM32WBxx_HAL_Driver/Src/stm32wbxx_hal_pwr_ex.c ****   }
 138:Drivers/STM32WBxx_HAL_Driver/Src/stm32wbxx_hal_pwr_ex.c ****   else
 139:Drivers/STM32WBxx_HAL_Driver/Src/stm32wbxx_hal_pwr_ex.c ****   {
 140:Drivers/STM32WBxx_HAL_Driver/Src/stm32wbxx_hal_pwr_ex.c ****     if (READ_BIT(PWR->CR1, PWR_CR1_VOS) != PWR_REGULATOR_VOLTAGE_SCALE2)
  70              		.loc 1 140 5 is_stmt 1 view .LVU9
  71              		.loc 1 140 9 is_stmt 0 view .LVU10
  72 0006 214B     		ldr	r3, .L14
  73 0008 1B68     		ldr	r3, [r3]
  74 000a 03F4C063 		and	r3, r3, #1536
  75              		.loc 1 140 8 view .LVU11
  76 000e B3F5806F 		cmp	r3, #1024
  77 0012 38D0     		beq	.L12
 141:Drivers/STM32WBxx_HAL_Driver/Src/stm32wbxx_hal_pwr_ex.c ****     {
 142:Drivers/STM32WBxx_HAL_Driver/Src/stm32wbxx_hal_pwr_ex.c ****       /* Set Range 2 */
 143:Drivers/STM32WBxx_HAL_Driver/Src/stm32wbxx_hal_pwr_ex.c ****       MODIFY_REG(PWR->CR1, PWR_CR1_VOS, PWR_REGULATOR_VOLTAGE_SCALE2);
  78              		.loc 1 143 7 is_stmt 1 view .LVU12
  79 0014 1D4A     		ldr	r2, .L14
  80 0016 1368     		ldr	r3, [r2]
  81 0018 23F4C063 		bic	r3, r3, #1536
  82 001c 43F48063 		orr	r3, r3, #1024
  83 0020 1360     		str	r3, [r2]
 144:Drivers/STM32WBxx_HAL_Driver/Src/stm32wbxx_hal_pwr_ex.c ****       /* No need to wait for VOSF to be cleared for this transition */
 145:Drivers/STM32WBxx_HAL_Driver/Src/stm32wbxx_hal_pwr_ex.c ****     }
 146:Drivers/STM32WBxx_HAL_Driver/Src/stm32wbxx_hal_pwr_ex.c ****   }
 147:Drivers/STM32WBxx_HAL_Driver/Src/stm32wbxx_hal_pwr_ex.c ****   
 148:Drivers/STM32WBxx_HAL_Driver/Src/stm32wbxx_hal_pwr_ex.c ****   return HAL_OK;
ARM GAS  /tmp/ccRrvtNP.s 			page 5


  84              		.loc 1 148 10 is_stmt 0 view .LVU13
  85 0022 0020     		movs	r0, #0
  86              	.LVL1:
  87              		.loc 1 148 10 view .LVU14
  88 0024 7047     		bx	lr
  89              	.LVL2:
  90              	.L13:
 121:Drivers/STM32WBxx_HAL_Driver/Src/stm32wbxx_hal_pwr_ex.c ****     {
  91              		.loc 1 121 5 is_stmt 1 view .LVU15
 121:Drivers/STM32WBxx_HAL_Driver/Src/stm32wbxx_hal_pwr_ex.c ****     {
  92              		.loc 1 121 9 is_stmt 0 view .LVU16
  93 0026 194B     		ldr	r3, .L14
  94 0028 1B68     		ldr	r3, [r3]
  95 002a 03F4C063 		and	r3, r3, #1536
 121:Drivers/STM32WBxx_HAL_Driver/Src/stm32wbxx_hal_pwr_ex.c ****     {
  96              		.loc 1 121 8 view .LVU17
  97 002e B3F5007F 		cmp	r3, #512
  98 0032 24D0     		beq	.L10
 124:Drivers/STM32WBxx_HAL_Driver/Src/stm32wbxx_hal_pwr_ex.c ****       
  99              		.loc 1 124 7 is_stmt 1 view .LVU18
 100 0034 154A     		ldr	r2, .L14
 101 0036 1368     		ldr	r3, [r2]
 102 0038 23F4C063 		bic	r3, r3, #1536
 103 003c 43F40073 		orr	r3, r3, #512
 104 0040 1360     		str	r3, [r2]
 127:Drivers/STM32WBxx_HAL_Driver/Src/stm32wbxx_hal_pwr_ex.c ****       while ((HAL_IS_BIT_SET(PWR->SR2, PWR_SR2_VOSF)) && (wait_loop_index != 0U))
 105              		.loc 1 127 7 view .LVU19
 127:Drivers/STM32WBxx_HAL_Driver/Src/stm32wbxx_hal_pwr_ex.c ****       while ((HAL_IS_BIT_SET(PWR->SR2, PWR_SR2_VOSF)) && (wait_loop_index != 0U))
 106              		.loc 1 127 71 is_stmt 0 view .LVU20
 107 0042 134B     		ldr	r3, .L14+4
 108 0044 1B68     		ldr	r3, [r3]
 109 0046 A2F1A752 		sub	r2, r2, #350224384
 110 004a A2F58422 		sub	r2, r2, #270336
 111 004e A2F27D52 		subw	r2, r2, #1405
 112 0052 A2FB0323 		umull	r2, r3, r2, r3
 113 0056 9A0C     		lsrs	r2, r3, #18
 127:Drivers/STM32WBxx_HAL_Driver/Src/stm32wbxx_hal_pwr_ex.c ****       while ((HAL_IS_BIT_SET(PWR->SR2, PWR_SR2_VOSF)) && (wait_loop_index != 0U))
 114              		.loc 1 127 23 view .LVU21
 115 0058 3223     		movs	r3, #50
 116 005a 03FB02F3 		mul	r3, r3, r2
 117              	.LVL3:
 128:Drivers/STM32WBxx_HAL_Driver/Src/stm32wbxx_hal_pwr_ex.c ****       {
 118              		.loc 1 128 7 is_stmt 1 view .LVU22
 128:Drivers/STM32WBxx_HAL_Driver/Src/stm32wbxx_hal_pwr_ex.c ****       {
 119              		.loc 1 128 13 is_stmt 0 view .LVU23
 120 005e 00E0     		b	.L7
 121              	.L9:
 130:Drivers/STM32WBxx_HAL_Driver/Src/stm32wbxx_hal_pwr_ex.c ****       }
 122              		.loc 1 130 9 is_stmt 1 view .LVU24
 130:Drivers/STM32WBxx_HAL_Driver/Src/stm32wbxx_hal_pwr_ex.c ****       }
 123              		.loc 1 130 24 is_stmt 0 view .LVU25
 124 0060 013B     		subs	r3, r3, #1
 125              	.LVL4:
 126              	.L7:
 128:Drivers/STM32WBxx_HAL_Driver/Src/stm32wbxx_hal_pwr_ex.c ****       {
 127              		.loc 1 128 13 is_stmt 1 view .LVU26
 128:Drivers/STM32WBxx_HAL_Driver/Src/stm32wbxx_hal_pwr_ex.c ****       {
ARM GAS  /tmp/ccRrvtNP.s 			page 6


 128              		.loc 1 128 15 is_stmt 0 view .LVU27
 129 0062 0A4A     		ldr	r2, .L14
 130 0064 5269     		ldr	r2, [r2, #20]
 128:Drivers/STM32WBxx_HAL_Driver/Src/stm32wbxx_hal_pwr_ex.c ****       {
 131              		.loc 1 128 13 view .LVU28
 132 0066 12F4806F 		tst	r2, #1024
 133 006a 01D0     		beq	.L8
 128:Drivers/STM32WBxx_HAL_Driver/Src/stm32wbxx_hal_pwr_ex.c ****       {
 134              		.loc 1 128 55 discriminator 1 view .LVU29
 135 006c 002B     		cmp	r3, #0
 136 006e F7D1     		bne	.L9
 137              	.L8:
 132:Drivers/STM32WBxx_HAL_Driver/Src/stm32wbxx_hal_pwr_ex.c ****       {
 138              		.loc 1 132 7 is_stmt 1 view .LVU30
 132:Drivers/STM32WBxx_HAL_Driver/Src/stm32wbxx_hal_pwr_ex.c ****       {
 139              		.loc 1 132 11 is_stmt 0 view .LVU31
 140 0070 064B     		ldr	r3, .L14
 141              	.LVL5:
 132:Drivers/STM32WBxx_HAL_Driver/Src/stm32wbxx_hal_pwr_ex.c ****       {
 142              		.loc 1 132 11 view .LVU32
 143 0072 5B69     		ldr	r3, [r3, #20]
 132:Drivers/STM32WBxx_HAL_Driver/Src/stm32wbxx_hal_pwr_ex.c ****       {
 144              		.loc 1 132 10 view .LVU33
 145 0074 13F4806F 		tst	r3, #1024
 146 0078 03D1     		bne	.L11
 147              		.loc 1 148 10 view .LVU34
 148 007a 0020     		movs	r0, #0
 149              	.LVL6:
 150              		.loc 1 148 10 view .LVU35
 151 007c 7047     		bx	lr
 152              	.LVL7:
 153              	.L10:
 154              		.loc 1 148 10 view .LVU36
 155 007e 0020     		movs	r0, #0
 156              	.LVL8:
 157              		.loc 1 148 10 view .LVU37
 158 0080 7047     		bx	lr
 159              	.LVL9:
 160              	.L11:
 134:Drivers/STM32WBxx_HAL_Driver/Src/stm32wbxx_hal_pwr_ex.c ****       }
 161              		.loc 1 134 16 view .LVU38
 162 0082 0320     		movs	r0, #3
 163              	.LVL10:
 134:Drivers/STM32WBxx_HAL_Driver/Src/stm32wbxx_hal_pwr_ex.c ****       }
 164              		.loc 1 134 16 view .LVU39
 165 0084 7047     		bx	lr
 166              	.LVL11:
 167              	.L12:
 168              		.loc 1 148 10 view .LVU40
 169 0086 0020     		movs	r0, #0
 170              	.LVL12:
 149:Drivers/STM32WBxx_HAL_Driver/Src/stm32wbxx_hal_pwr_ex.c **** }
 171              		.loc 1 149 1 view .LVU41
 172 0088 7047     		bx	lr
 173              	.L15:
 174 008a 00BF     		.align	2
 175              	.L14:
ARM GAS  /tmp/ccRrvtNP.s 			page 7


 176 008c 00040058 		.word	1476396032
 177 0090 00000000 		.word	SystemCoreClock
 178              		.cfi_endproc
 179              	.LFE942:
 181              		.section	.text.HAL_PWREx_EnableBatteryCharging,"ax",%progbits
 182              		.align	1
 183              		.global	HAL_PWREx_EnableBatteryCharging
 184              		.syntax unified
 185              		.thumb
 186              		.thumb_func
 187              		.fpu fpv4-sp-d16
 189              	HAL_PWREx_EnableBatteryCharging:
 190              	.LVL13:
 191              	.LFB943:
 150:Drivers/STM32WBxx_HAL_Driver/Src/stm32wbxx_hal_pwr_ex.c **** #endif
 151:Drivers/STM32WBxx_HAL_Driver/Src/stm32wbxx_hal_pwr_ex.c **** 
 152:Drivers/STM32WBxx_HAL_Driver/Src/stm32wbxx_hal_pwr_ex.c **** /****************************************************************************/
 153:Drivers/STM32WBxx_HAL_Driver/Src/stm32wbxx_hal_pwr_ex.c **** 
 154:Drivers/STM32WBxx_HAL_Driver/Src/stm32wbxx_hal_pwr_ex.c **** /**
 155:Drivers/STM32WBxx_HAL_Driver/Src/stm32wbxx_hal_pwr_ex.c ****   * @brief Enable battery charging.
 156:Drivers/STM32WBxx_HAL_Driver/Src/stm32wbxx_hal_pwr_ex.c ****   *        When VDD is present, charge the external battery on VBAT thru an internal resistor.
 157:Drivers/STM32WBxx_HAL_Driver/Src/stm32wbxx_hal_pwr_ex.c ****   * @param ResistorSelection specifies the resistor impedance.
 158:Drivers/STM32WBxx_HAL_Driver/Src/stm32wbxx_hal_pwr_ex.c ****   *          This parameter can be one of the following values:
 159:Drivers/STM32WBxx_HAL_Driver/Src/stm32wbxx_hal_pwr_ex.c ****   *            @arg @ref PWR_BATTERY_CHARGING_RESISTOR_5     5 kOhms resistor
 160:Drivers/STM32WBxx_HAL_Driver/Src/stm32wbxx_hal_pwr_ex.c ****   *            @arg @ref PWR_BATTERY_CHARGING_RESISTOR_1_5 1.5 kOhms resistor
 161:Drivers/STM32WBxx_HAL_Driver/Src/stm32wbxx_hal_pwr_ex.c ****   * @retval None
 162:Drivers/STM32WBxx_HAL_Driver/Src/stm32wbxx_hal_pwr_ex.c ****   */
 163:Drivers/STM32WBxx_HAL_Driver/Src/stm32wbxx_hal_pwr_ex.c **** void HAL_PWREx_EnableBatteryCharging(uint32_t ResistorSelection)
 164:Drivers/STM32WBxx_HAL_Driver/Src/stm32wbxx_hal_pwr_ex.c **** {
 192              		.loc 1 164 1 is_stmt 1 view -0
 193              		.cfi_startproc
 194              		@ args = 0, pretend = 0, frame = 0
 195              		@ frame_needed = 0, uses_anonymous_args = 0
 196              		@ link register save eliminated.
 165:Drivers/STM32WBxx_HAL_Driver/Src/stm32wbxx_hal_pwr_ex.c ****   assert_param(IS_PWR_BATTERY_RESISTOR_SELECT(ResistorSelection));
 197              		.loc 1 165 3 view .LVU43
 166:Drivers/STM32WBxx_HAL_Driver/Src/stm32wbxx_hal_pwr_ex.c ****   
 167:Drivers/STM32WBxx_HAL_Driver/Src/stm32wbxx_hal_pwr_ex.c ****   /* Specify resistor selection */
 168:Drivers/STM32WBxx_HAL_Driver/Src/stm32wbxx_hal_pwr_ex.c ****   MODIFY_REG(PWR->CR4, PWR_CR4_VBRS, ResistorSelection);
 198              		.loc 1 168 3 view .LVU44
 199 0000 054A     		ldr	r2, .L17
 200 0002 D368     		ldr	r3, [r2, #12]
 201 0004 23F40073 		bic	r3, r3, #512
 202 0008 0343     		orrs	r3, r3, r0
 203 000a D360     		str	r3, [r2, #12]
 169:Drivers/STM32WBxx_HAL_Driver/Src/stm32wbxx_hal_pwr_ex.c ****   
 170:Drivers/STM32WBxx_HAL_Driver/Src/stm32wbxx_hal_pwr_ex.c ****   /* Enable battery charging */
 171:Drivers/STM32WBxx_HAL_Driver/Src/stm32wbxx_hal_pwr_ex.c ****   SET_BIT(PWR->CR4, PWR_CR4_VBE);
 204              		.loc 1 171 3 view .LVU45
 205 000c D368     		ldr	r3, [r2, #12]
 206 000e 43F48073 		orr	r3, r3, #256
 207 0012 D360     		str	r3, [r2, #12]
 172:Drivers/STM32WBxx_HAL_Driver/Src/stm32wbxx_hal_pwr_ex.c **** }
 208              		.loc 1 172 1 is_stmt 0 view .LVU46
 209 0014 7047     		bx	lr
 210              	.L18:
 211 0016 00BF     		.align	2
ARM GAS  /tmp/ccRrvtNP.s 			page 8


 212              	.L17:
 213 0018 00040058 		.word	1476396032
 214              		.cfi_endproc
 215              	.LFE943:
 217              		.section	.text.HAL_PWREx_DisableBatteryCharging,"ax",%progbits
 218              		.align	1
 219              		.global	HAL_PWREx_DisableBatteryCharging
 220              		.syntax unified
 221              		.thumb
 222              		.thumb_func
 223              		.fpu fpv4-sp-d16
 225              	HAL_PWREx_DisableBatteryCharging:
 226              	.LFB944:
 173:Drivers/STM32WBxx_HAL_Driver/Src/stm32wbxx_hal_pwr_ex.c **** 
 174:Drivers/STM32WBxx_HAL_Driver/Src/stm32wbxx_hal_pwr_ex.c **** /**
 175:Drivers/STM32WBxx_HAL_Driver/Src/stm32wbxx_hal_pwr_ex.c ****   * @brief Disable battery charging.  
 176:Drivers/STM32WBxx_HAL_Driver/Src/stm32wbxx_hal_pwr_ex.c ****   * @retval None
 177:Drivers/STM32WBxx_HAL_Driver/Src/stm32wbxx_hal_pwr_ex.c ****   */
 178:Drivers/STM32WBxx_HAL_Driver/Src/stm32wbxx_hal_pwr_ex.c **** void HAL_PWREx_DisableBatteryCharging(void)
 179:Drivers/STM32WBxx_HAL_Driver/Src/stm32wbxx_hal_pwr_ex.c **** {
 227              		.loc 1 179 1 is_stmt 1 view -0
 228              		.cfi_startproc
 229              		@ args = 0, pretend = 0, frame = 0
 230              		@ frame_needed = 0, uses_anonymous_args = 0
 231              		@ link register save eliminated.
 180:Drivers/STM32WBxx_HAL_Driver/Src/stm32wbxx_hal_pwr_ex.c ****   CLEAR_BIT(PWR->CR4, PWR_CR4_VBE); 
 232              		.loc 1 180 3 view .LVU48
 233 0000 024A     		ldr	r2, .L20
 234 0002 D368     		ldr	r3, [r2, #12]
 235 0004 23F48073 		bic	r3, r3, #256
 236 0008 D360     		str	r3, [r2, #12]
 181:Drivers/STM32WBxx_HAL_Driver/Src/stm32wbxx_hal_pwr_ex.c **** }  
 237              		.loc 1 181 1 is_stmt 0 view .LVU49
 238 000a 7047     		bx	lr
 239              	.L21:
 240              		.align	2
 241              	.L20:
 242 000c 00040058 		.word	1476396032
 243              		.cfi_endproc
 244              	.LFE944:
 246              		.section	.text.HAL_PWREx_EnableVddUSB,"ax",%progbits
 247              		.align	1
 248              		.global	HAL_PWREx_EnableVddUSB
 249              		.syntax unified
 250              		.thumb
 251              		.thumb_func
 252              		.fpu fpv4-sp-d16
 254              	HAL_PWREx_EnableVddUSB:
 255              	.LFB945:
 182:Drivers/STM32WBxx_HAL_Driver/Src/stm32wbxx_hal_pwr_ex.c **** 
 183:Drivers/STM32WBxx_HAL_Driver/Src/stm32wbxx_hal_pwr_ex.c **** /****************************************************************************/
 184:Drivers/STM32WBxx_HAL_Driver/Src/stm32wbxx_hal_pwr_ex.c **** #if defined(PWR_CR2_PVME1)
 185:Drivers/STM32WBxx_HAL_Driver/Src/stm32wbxx_hal_pwr_ex.c **** /**
 186:Drivers/STM32WBxx_HAL_Driver/Src/stm32wbxx_hal_pwr_ex.c ****   * @brief Enable VDDUSB supply.
 187:Drivers/STM32WBxx_HAL_Driver/Src/stm32wbxx_hal_pwr_ex.c ****   * @note  Remove VDDUSB electrical and logical isolation, once VDDUSB supply is present.
 188:Drivers/STM32WBxx_HAL_Driver/Src/stm32wbxx_hal_pwr_ex.c ****   * @retval None
 189:Drivers/STM32WBxx_HAL_Driver/Src/stm32wbxx_hal_pwr_ex.c ****   */
ARM GAS  /tmp/ccRrvtNP.s 			page 9


 190:Drivers/STM32WBxx_HAL_Driver/Src/stm32wbxx_hal_pwr_ex.c **** void HAL_PWREx_EnableVddUSB(void)
 191:Drivers/STM32WBxx_HAL_Driver/Src/stm32wbxx_hal_pwr_ex.c **** {
 256              		.loc 1 191 1 is_stmt 1 view -0
 257              		.cfi_startproc
 258              		@ args = 0, pretend = 0, frame = 0
 259              		@ frame_needed = 0, uses_anonymous_args = 0
 260              		@ link register save eliminated.
 192:Drivers/STM32WBxx_HAL_Driver/Src/stm32wbxx_hal_pwr_ex.c ****   SET_BIT(PWR->CR2, PWR_CR2_USV);
 261              		.loc 1 192 3 view .LVU51
 262 0000 024A     		ldr	r2, .L23
 263 0002 5368     		ldr	r3, [r2, #4]
 264 0004 43F48063 		orr	r3, r3, #1024
 265 0008 5360     		str	r3, [r2, #4]
 193:Drivers/STM32WBxx_HAL_Driver/Src/stm32wbxx_hal_pwr_ex.c **** }
 266              		.loc 1 193 1 is_stmt 0 view .LVU52
 267 000a 7047     		bx	lr
 268              	.L24:
 269              		.align	2
 270              	.L23:
 271 000c 00040058 		.word	1476396032
 272              		.cfi_endproc
 273              	.LFE945:
 275              		.section	.text.HAL_PWREx_DisableVddUSB,"ax",%progbits
 276              		.align	1
 277              		.global	HAL_PWREx_DisableVddUSB
 278              		.syntax unified
 279              		.thumb
 280              		.thumb_func
 281              		.fpu fpv4-sp-d16
 283              	HAL_PWREx_DisableVddUSB:
 284              	.LFB946:
 194:Drivers/STM32WBxx_HAL_Driver/Src/stm32wbxx_hal_pwr_ex.c **** 
 195:Drivers/STM32WBxx_HAL_Driver/Src/stm32wbxx_hal_pwr_ex.c **** /**
 196:Drivers/STM32WBxx_HAL_Driver/Src/stm32wbxx_hal_pwr_ex.c ****   * @brief Disable VDDUSB supply. 
 197:Drivers/STM32WBxx_HAL_Driver/Src/stm32wbxx_hal_pwr_ex.c ****   * @retval None
 198:Drivers/STM32WBxx_HAL_Driver/Src/stm32wbxx_hal_pwr_ex.c ****   */
 199:Drivers/STM32WBxx_HAL_Driver/Src/stm32wbxx_hal_pwr_ex.c **** void HAL_PWREx_DisableVddUSB(void)
 200:Drivers/STM32WBxx_HAL_Driver/Src/stm32wbxx_hal_pwr_ex.c **** {
 285              		.loc 1 200 1 is_stmt 1 view -0
 286              		.cfi_startproc
 287              		@ args = 0, pretend = 0, frame = 0
 288              		@ frame_needed = 0, uses_anonymous_args = 0
 289              		@ link register save eliminated.
 201:Drivers/STM32WBxx_HAL_Driver/Src/stm32wbxx_hal_pwr_ex.c ****   CLEAR_BIT(PWR->CR2, PWR_CR2_USV);
 290              		.loc 1 201 3 view .LVU54
 291 0000 024A     		ldr	r2, .L26
 292 0002 5368     		ldr	r3, [r2, #4]
 293 0004 23F48063 		bic	r3, r3, #1024
 294 0008 5360     		str	r3, [r2, #4]
 202:Drivers/STM32WBxx_HAL_Driver/Src/stm32wbxx_hal_pwr_ex.c **** }
 295              		.loc 1 202 1 is_stmt 0 view .LVU55
 296 000a 7047     		bx	lr
 297              	.L27:
 298              		.align	2
 299              	.L26:
 300 000c 00040058 		.word	1476396032
 301              		.cfi_endproc
ARM GAS  /tmp/ccRrvtNP.s 			page 10


 302              	.LFE946:
 304              		.section	.text.HAL_PWREx_EnableInternalWakeUpLine,"ax",%progbits
 305              		.align	1
 306              		.global	HAL_PWREx_EnableInternalWakeUpLine
 307              		.syntax unified
 308              		.thumb
 309              		.thumb_func
 310              		.fpu fpv4-sp-d16
 312              	HAL_PWREx_EnableInternalWakeUpLine:
 313              	.LFB947:
 203:Drivers/STM32WBxx_HAL_Driver/Src/stm32wbxx_hal_pwr_ex.c **** #endif
 204:Drivers/STM32WBxx_HAL_Driver/Src/stm32wbxx_hal_pwr_ex.c **** 
 205:Drivers/STM32WBxx_HAL_Driver/Src/stm32wbxx_hal_pwr_ex.c **** /****************************************************************************/
 206:Drivers/STM32WBxx_HAL_Driver/Src/stm32wbxx_hal_pwr_ex.c **** 
 207:Drivers/STM32WBxx_HAL_Driver/Src/stm32wbxx_hal_pwr_ex.c **** /**
 208:Drivers/STM32WBxx_HAL_Driver/Src/stm32wbxx_hal_pwr_ex.c ****   * @brief Enable Internal Wake-up Line.
 209:Drivers/STM32WBxx_HAL_Driver/Src/stm32wbxx_hal_pwr_ex.c ****   * @retval None
 210:Drivers/STM32WBxx_HAL_Driver/Src/stm32wbxx_hal_pwr_ex.c ****   */
 211:Drivers/STM32WBxx_HAL_Driver/Src/stm32wbxx_hal_pwr_ex.c **** void HAL_PWREx_EnableInternalWakeUpLine(void)
 212:Drivers/STM32WBxx_HAL_Driver/Src/stm32wbxx_hal_pwr_ex.c **** {
 314              		.loc 1 212 1 is_stmt 1 view -0
 315              		.cfi_startproc
 316              		@ args = 0, pretend = 0, frame = 0
 317              		@ frame_needed = 0, uses_anonymous_args = 0
 318              		@ link register save eliminated.
 213:Drivers/STM32WBxx_HAL_Driver/Src/stm32wbxx_hal_pwr_ex.c ****   SET_BIT(PWR->CR3, PWR_CR3_EIWUL);
 319              		.loc 1 213 3 view .LVU57
 320 0000 024A     		ldr	r2, .L29
 321 0002 9368     		ldr	r3, [r2, #8]
 322 0004 43F40043 		orr	r3, r3, #32768
 323 0008 9360     		str	r3, [r2, #8]
 214:Drivers/STM32WBxx_HAL_Driver/Src/stm32wbxx_hal_pwr_ex.c **** }
 324              		.loc 1 214 1 is_stmt 0 view .LVU58
 325 000a 7047     		bx	lr
 326              	.L30:
 327              		.align	2
 328              	.L29:
 329 000c 00040058 		.word	1476396032
 330              		.cfi_endproc
 331              	.LFE947:
 333              		.section	.text.HAL_PWREx_DisableInternalWakeUpLine,"ax",%progbits
 334              		.align	1
 335              		.global	HAL_PWREx_DisableInternalWakeUpLine
 336              		.syntax unified
 337              		.thumb
 338              		.thumb_func
 339              		.fpu fpv4-sp-d16
 341              	HAL_PWREx_DisableInternalWakeUpLine:
 342              	.LFB948:
 215:Drivers/STM32WBxx_HAL_Driver/Src/stm32wbxx_hal_pwr_ex.c **** 
 216:Drivers/STM32WBxx_HAL_Driver/Src/stm32wbxx_hal_pwr_ex.c **** /**
 217:Drivers/STM32WBxx_HAL_Driver/Src/stm32wbxx_hal_pwr_ex.c ****   * @brief Disable Internal Wake-up Line.
 218:Drivers/STM32WBxx_HAL_Driver/Src/stm32wbxx_hal_pwr_ex.c ****   * @retval None
 219:Drivers/STM32WBxx_HAL_Driver/Src/stm32wbxx_hal_pwr_ex.c ****   */
 220:Drivers/STM32WBxx_HAL_Driver/Src/stm32wbxx_hal_pwr_ex.c **** void HAL_PWREx_DisableInternalWakeUpLine(void)
 221:Drivers/STM32WBxx_HAL_Driver/Src/stm32wbxx_hal_pwr_ex.c **** {
 343              		.loc 1 221 1 is_stmt 1 view -0
ARM GAS  /tmp/ccRrvtNP.s 			page 11


 344              		.cfi_startproc
 345              		@ args = 0, pretend = 0, frame = 0
 346              		@ frame_needed = 0, uses_anonymous_args = 0
 347              		@ link register save eliminated.
 222:Drivers/STM32WBxx_HAL_Driver/Src/stm32wbxx_hal_pwr_ex.c ****   CLEAR_BIT(PWR->CR3, PWR_CR3_EIWUL);
 348              		.loc 1 222 3 view .LVU60
 349 0000 024A     		ldr	r2, .L32
 350 0002 9368     		ldr	r3, [r2, #8]
 351 0004 23F40043 		bic	r3, r3, #32768
 352 0008 9360     		str	r3, [r2, #8]
 223:Drivers/STM32WBxx_HAL_Driver/Src/stm32wbxx_hal_pwr_ex.c **** }
 353              		.loc 1 223 1 is_stmt 0 view .LVU61
 354 000a 7047     		bx	lr
 355              	.L33:
 356              		.align	2
 357              	.L32:
 358 000c 00040058 		.word	1476396032
 359              		.cfi_endproc
 360              	.LFE948:
 362              		.section	.text.HAL_PWREx_EnableBORH_SMPSBypassIT,"ax",%progbits
 363              		.align	1
 364              		.global	HAL_PWREx_EnableBORH_SMPSBypassIT
 365              		.syntax unified
 366              		.thumb
 367              		.thumb_func
 368              		.fpu fpv4-sp-d16
 370              	HAL_PWREx_EnableBORH_SMPSBypassIT:
 371              	.LFB949:
 224:Drivers/STM32WBxx_HAL_Driver/Src/stm32wbxx_hal_pwr_ex.c **** 
 225:Drivers/STM32WBxx_HAL_Driver/Src/stm32wbxx_hal_pwr_ex.c **** #if defined(PWR_CR5_SMPSEN)
 226:Drivers/STM32WBxx_HAL_Driver/Src/stm32wbxx_hal_pwr_ex.c **** /**
 227:Drivers/STM32WBxx_HAL_Driver/Src/stm32wbxx_hal_pwr_ex.c ****   * @brief Enable BORH and SMPS step down converter forced in bypass mode
 228:Drivers/STM32WBxx_HAL_Driver/Src/stm32wbxx_hal_pwr_ex.c ****   *        interrupt for CPU1
 229:Drivers/STM32WBxx_HAL_Driver/Src/stm32wbxx_hal_pwr_ex.c ****   * @retval None
 230:Drivers/STM32WBxx_HAL_Driver/Src/stm32wbxx_hal_pwr_ex.c ****   */
 231:Drivers/STM32WBxx_HAL_Driver/Src/stm32wbxx_hal_pwr_ex.c **** void HAL_PWREx_EnableBORH_SMPSBypassIT(void)
 232:Drivers/STM32WBxx_HAL_Driver/Src/stm32wbxx_hal_pwr_ex.c **** {
 372              		.loc 1 232 1 is_stmt 1 view -0
 373              		.cfi_startproc
 374              		@ args = 0, pretend = 0, frame = 0
 375              		@ frame_needed = 0, uses_anonymous_args = 0
 376              		@ link register save eliminated.
 233:Drivers/STM32WBxx_HAL_Driver/Src/stm32wbxx_hal_pwr_ex.c ****   SET_BIT(PWR->CR3, PWR_CR3_EBORHSMPSFB);
 377              		.loc 1 233 3 view .LVU63
 378 0000 024A     		ldr	r2, .L35
 379 0002 9368     		ldr	r3, [r2, #8]
 380 0004 43F48073 		orr	r3, r3, #256
 381 0008 9360     		str	r3, [r2, #8]
 234:Drivers/STM32WBxx_HAL_Driver/Src/stm32wbxx_hal_pwr_ex.c **** }
 382              		.loc 1 234 1 is_stmt 0 view .LVU64
 383 000a 7047     		bx	lr
 384              	.L36:
 385              		.align	2
 386              	.L35:
 387 000c 00040058 		.word	1476396032
 388              		.cfi_endproc
 389              	.LFE949:
ARM GAS  /tmp/ccRrvtNP.s 			page 12


 391              		.section	.text.HAL_PWREx_DisableBORH_SMPSBypassIT,"ax",%progbits
 392              		.align	1
 393              		.global	HAL_PWREx_DisableBORH_SMPSBypassIT
 394              		.syntax unified
 395              		.thumb
 396              		.thumb_func
 397              		.fpu fpv4-sp-d16
 399              	HAL_PWREx_DisableBORH_SMPSBypassIT:
 400              	.LFB950:
 235:Drivers/STM32WBxx_HAL_Driver/Src/stm32wbxx_hal_pwr_ex.c **** 
 236:Drivers/STM32WBxx_HAL_Driver/Src/stm32wbxx_hal_pwr_ex.c **** /**
 237:Drivers/STM32WBxx_HAL_Driver/Src/stm32wbxx_hal_pwr_ex.c ****   * @brief Disable BORH and SMPS step down converter forced in bypass mode
 238:Drivers/STM32WBxx_HAL_Driver/Src/stm32wbxx_hal_pwr_ex.c ****   *        interrupt for CPU1
 239:Drivers/STM32WBxx_HAL_Driver/Src/stm32wbxx_hal_pwr_ex.c ****   * @retval None
 240:Drivers/STM32WBxx_HAL_Driver/Src/stm32wbxx_hal_pwr_ex.c ****   */
 241:Drivers/STM32WBxx_HAL_Driver/Src/stm32wbxx_hal_pwr_ex.c **** void HAL_PWREx_DisableBORH_SMPSBypassIT(void)
 242:Drivers/STM32WBxx_HAL_Driver/Src/stm32wbxx_hal_pwr_ex.c **** {
 401              		.loc 1 242 1 is_stmt 1 view -0
 402              		.cfi_startproc
 403              		@ args = 0, pretend = 0, frame = 0
 404              		@ frame_needed = 0, uses_anonymous_args = 0
 405              		@ link register save eliminated.
 243:Drivers/STM32WBxx_HAL_Driver/Src/stm32wbxx_hal_pwr_ex.c ****   CLEAR_BIT(PWR->CR3, PWR_CR3_EBORHSMPSFB);
 406              		.loc 1 243 3 view .LVU66
 407 0000 024A     		ldr	r2, .L38
 408 0002 9368     		ldr	r3, [r2, #8]
 409 0004 23F48073 		bic	r3, r3, #256
 410 0008 9360     		str	r3, [r2, #8]
 244:Drivers/STM32WBxx_HAL_Driver/Src/stm32wbxx_hal_pwr_ex.c **** }
 411              		.loc 1 244 1 is_stmt 0 view .LVU67
 412 000a 7047     		bx	lr
 413              	.L39:
 414              		.align	2
 415              	.L38:
 416 000c 00040058 		.word	1476396032
 417              		.cfi_endproc
 418              	.LFE950:
 420              		.section	.text.HAL_PWREx_EnableRFPhaseIT,"ax",%progbits
 421              		.align	1
 422              		.global	HAL_PWREx_EnableRFPhaseIT
 423              		.syntax unified
 424              		.thumb
 425              		.thumb_func
 426              		.fpu fpv4-sp-d16
 428              	HAL_PWREx_EnableRFPhaseIT:
 429              	.LFB951:
 245:Drivers/STM32WBxx_HAL_Driver/Src/stm32wbxx_hal_pwr_ex.c **** #endif
 246:Drivers/STM32WBxx_HAL_Driver/Src/stm32wbxx_hal_pwr_ex.c **** 
 247:Drivers/STM32WBxx_HAL_Driver/Src/stm32wbxx_hal_pwr_ex.c **** /**
 248:Drivers/STM32WBxx_HAL_Driver/Src/stm32wbxx_hal_pwr_ex.c ****   * @brief Enable RF Phase interrupt.
 249:Drivers/STM32WBxx_HAL_Driver/Src/stm32wbxx_hal_pwr_ex.c ****   * @retval None
 250:Drivers/STM32WBxx_HAL_Driver/Src/stm32wbxx_hal_pwr_ex.c ****   */
 251:Drivers/STM32WBxx_HAL_Driver/Src/stm32wbxx_hal_pwr_ex.c **** void HAL_PWREx_EnableRFPhaseIT(void)
 252:Drivers/STM32WBxx_HAL_Driver/Src/stm32wbxx_hal_pwr_ex.c **** {
 430              		.loc 1 252 1 is_stmt 1 view -0
 431              		.cfi_startproc
 432              		@ args = 0, pretend = 0, frame = 0
ARM GAS  /tmp/ccRrvtNP.s 			page 13


 433              		@ frame_needed = 0, uses_anonymous_args = 0
 434              		@ link register save eliminated.
 253:Drivers/STM32WBxx_HAL_Driver/Src/stm32wbxx_hal_pwr_ex.c ****   SET_BIT(PWR->CR3, PWR_CR3_ECRPE_Msk);
 435              		.loc 1 253 3 view .LVU69
 436 0000 024A     		ldr	r2, .L41
 437 0002 9368     		ldr	r3, [r2, #8]
 438 0004 43F40063 		orr	r3, r3, #2048
 439 0008 9360     		str	r3, [r2, #8]
 254:Drivers/STM32WBxx_HAL_Driver/Src/stm32wbxx_hal_pwr_ex.c **** }
 440              		.loc 1 254 1 is_stmt 0 view .LVU70
 441 000a 7047     		bx	lr
 442              	.L42:
 443              		.align	2
 444              	.L41:
 445 000c 00040058 		.word	1476396032
 446              		.cfi_endproc
 447              	.LFE951:
 449              		.section	.text.HAL_PWREx_DisableRFPhaseIT,"ax",%progbits
 450              		.align	1
 451              		.global	HAL_PWREx_DisableRFPhaseIT
 452              		.syntax unified
 453              		.thumb
 454              		.thumb_func
 455              		.fpu fpv4-sp-d16
 457              	HAL_PWREx_DisableRFPhaseIT:
 458              	.LFB952:
 255:Drivers/STM32WBxx_HAL_Driver/Src/stm32wbxx_hal_pwr_ex.c **** 
 256:Drivers/STM32WBxx_HAL_Driver/Src/stm32wbxx_hal_pwr_ex.c **** /**
 257:Drivers/STM32WBxx_HAL_Driver/Src/stm32wbxx_hal_pwr_ex.c ****   * @brief Disable RF Phase interrupt.
 258:Drivers/STM32WBxx_HAL_Driver/Src/stm32wbxx_hal_pwr_ex.c ****   * @retval None
 259:Drivers/STM32WBxx_HAL_Driver/Src/stm32wbxx_hal_pwr_ex.c ****   */
 260:Drivers/STM32WBxx_HAL_Driver/Src/stm32wbxx_hal_pwr_ex.c **** void HAL_PWREx_DisableRFPhaseIT(void)
 261:Drivers/STM32WBxx_HAL_Driver/Src/stm32wbxx_hal_pwr_ex.c **** {
 459              		.loc 1 261 1 is_stmt 1 view -0
 460              		.cfi_startproc
 461              		@ args = 0, pretend = 0, frame = 0
 462              		@ frame_needed = 0, uses_anonymous_args = 0
 463              		@ link register save eliminated.
 262:Drivers/STM32WBxx_HAL_Driver/Src/stm32wbxx_hal_pwr_ex.c ****   CLEAR_BIT(PWR->CR3, PWR_CR3_ECRPE_Msk);
 464              		.loc 1 262 3 view .LVU72
 465 0000 024A     		ldr	r2, .L44
 466 0002 9368     		ldr	r3, [r2, #8]
 467 0004 23F40063 		bic	r3, r3, #2048
 468 0008 9360     		str	r3, [r2, #8]
 263:Drivers/STM32WBxx_HAL_Driver/Src/stm32wbxx_hal_pwr_ex.c **** }
 469              		.loc 1 263 1 is_stmt 0 view .LVU73
 470 000a 7047     		bx	lr
 471              	.L45:
 472              		.align	2
 473              	.L44:
 474 000c 00040058 		.word	1476396032
 475              		.cfi_endproc
 476              	.LFE952:
 478              		.section	.text.HAL_PWREx_EnableBLEActivityIT,"ax",%progbits
 479              		.align	1
 480              		.global	HAL_PWREx_EnableBLEActivityIT
 481              		.syntax unified
ARM GAS  /tmp/ccRrvtNP.s 			page 14


 482              		.thumb
 483              		.thumb_func
 484              		.fpu fpv4-sp-d16
 486              	HAL_PWREx_EnableBLEActivityIT:
 487              	.LFB953:
 264:Drivers/STM32WBxx_HAL_Driver/Src/stm32wbxx_hal_pwr_ex.c **** 
 265:Drivers/STM32WBxx_HAL_Driver/Src/stm32wbxx_hal_pwr_ex.c **** 
 266:Drivers/STM32WBxx_HAL_Driver/Src/stm32wbxx_hal_pwr_ex.c **** /**
 267:Drivers/STM32WBxx_HAL_Driver/Src/stm32wbxx_hal_pwr_ex.c ****   * @brief Enable BLE Activity interrupt.
 268:Drivers/STM32WBxx_HAL_Driver/Src/stm32wbxx_hal_pwr_ex.c ****   * @retval None
 269:Drivers/STM32WBxx_HAL_Driver/Src/stm32wbxx_hal_pwr_ex.c ****   */
 270:Drivers/STM32WBxx_HAL_Driver/Src/stm32wbxx_hal_pwr_ex.c **** void HAL_PWREx_EnableBLEActivityIT(void)
 271:Drivers/STM32WBxx_HAL_Driver/Src/stm32wbxx_hal_pwr_ex.c **** {
 488              		.loc 1 271 1 is_stmt 1 view -0
 489              		.cfi_startproc
 490              		@ args = 0, pretend = 0, frame = 0
 491              		@ frame_needed = 0, uses_anonymous_args = 0
 492              		@ link register save eliminated.
 272:Drivers/STM32WBxx_HAL_Driver/Src/stm32wbxx_hal_pwr_ex.c ****   SET_BIT(PWR->CR3, PWR_CR3_EBLEA);
 493              		.loc 1 272 3 view .LVU75
 494 0000 024A     		ldr	r2, .L47
 495 0002 9368     		ldr	r3, [r2, #8]
 496 0004 43F48053 		orr	r3, r3, #4096
 497 0008 9360     		str	r3, [r2, #8]
 273:Drivers/STM32WBxx_HAL_Driver/Src/stm32wbxx_hal_pwr_ex.c **** }
 498              		.loc 1 273 1 is_stmt 0 view .LVU76
 499 000a 7047     		bx	lr
 500              	.L48:
 501              		.align	2
 502              	.L47:
 503 000c 00040058 		.word	1476396032
 504              		.cfi_endproc
 505              	.LFE953:
 507              		.section	.text.HAL_PWREx_DisableBLEActivityIT,"ax",%progbits
 508              		.align	1
 509              		.global	HAL_PWREx_DisableBLEActivityIT
 510              		.syntax unified
 511              		.thumb
 512              		.thumb_func
 513              		.fpu fpv4-sp-d16
 515              	HAL_PWREx_DisableBLEActivityIT:
 516              	.LFB954:
 274:Drivers/STM32WBxx_HAL_Driver/Src/stm32wbxx_hal_pwr_ex.c **** 
 275:Drivers/STM32WBxx_HAL_Driver/Src/stm32wbxx_hal_pwr_ex.c **** /**
 276:Drivers/STM32WBxx_HAL_Driver/Src/stm32wbxx_hal_pwr_ex.c ****   * @brief Disable BLE Activity interrupt.
 277:Drivers/STM32WBxx_HAL_Driver/Src/stm32wbxx_hal_pwr_ex.c ****   * @retval None
 278:Drivers/STM32WBxx_HAL_Driver/Src/stm32wbxx_hal_pwr_ex.c ****   */
 279:Drivers/STM32WBxx_HAL_Driver/Src/stm32wbxx_hal_pwr_ex.c **** void HAL_PWREx_DisableBLEActivityIT(void)
 280:Drivers/STM32WBxx_HAL_Driver/Src/stm32wbxx_hal_pwr_ex.c **** {
 517              		.loc 1 280 1 is_stmt 1 view -0
 518              		.cfi_startproc
 519              		@ args = 0, pretend = 0, frame = 0
 520              		@ frame_needed = 0, uses_anonymous_args = 0
 521              		@ link register save eliminated.
 281:Drivers/STM32WBxx_HAL_Driver/Src/stm32wbxx_hal_pwr_ex.c ****   CLEAR_BIT(PWR->CR3, PWR_CR3_EBLEA);
 522              		.loc 1 281 3 view .LVU78
 523 0000 024A     		ldr	r2, .L50
ARM GAS  /tmp/ccRrvtNP.s 			page 15


 524 0002 9368     		ldr	r3, [r2, #8]
 525 0004 23F48053 		bic	r3, r3, #4096
 526 0008 9360     		str	r3, [r2, #8]
 282:Drivers/STM32WBxx_HAL_Driver/Src/stm32wbxx_hal_pwr_ex.c **** }
 527              		.loc 1 282 1 is_stmt 0 view .LVU79
 528 000a 7047     		bx	lr
 529              	.L51:
 530              		.align	2
 531              	.L50:
 532 000c 00040058 		.word	1476396032
 533              		.cfi_endproc
 534              	.LFE954:
 536              		.section	.text.HAL_PWREx_Enable802ActivityIT,"ax",%progbits
 537              		.align	1
 538              		.global	HAL_PWREx_Enable802ActivityIT
 539              		.syntax unified
 540              		.thumb
 541              		.thumb_func
 542              		.fpu fpv4-sp-d16
 544              	HAL_PWREx_Enable802ActivityIT:
 545              	.LFB955:
 283:Drivers/STM32WBxx_HAL_Driver/Src/stm32wbxx_hal_pwr_ex.c **** 
 284:Drivers/STM32WBxx_HAL_Driver/Src/stm32wbxx_hal_pwr_ex.c **** 
 285:Drivers/STM32WBxx_HAL_Driver/Src/stm32wbxx_hal_pwr_ex.c **** /**
 286:Drivers/STM32WBxx_HAL_Driver/Src/stm32wbxx_hal_pwr_ex.c ****   * @brief Enable 802.15.4 Activity interrupt.
 287:Drivers/STM32WBxx_HAL_Driver/Src/stm32wbxx_hal_pwr_ex.c ****   * @retval None
 288:Drivers/STM32WBxx_HAL_Driver/Src/stm32wbxx_hal_pwr_ex.c ****   */
 289:Drivers/STM32WBxx_HAL_Driver/Src/stm32wbxx_hal_pwr_ex.c **** void HAL_PWREx_Enable802ActivityIT(void)
 290:Drivers/STM32WBxx_HAL_Driver/Src/stm32wbxx_hal_pwr_ex.c **** {
 546              		.loc 1 290 1 is_stmt 1 view -0
 547              		.cfi_startproc
 548              		@ args = 0, pretend = 0, frame = 0
 549              		@ frame_needed = 0, uses_anonymous_args = 0
 550              		@ link register save eliminated.
 291:Drivers/STM32WBxx_HAL_Driver/Src/stm32wbxx_hal_pwr_ex.c ****   SET_BIT(PWR->CR3, PWR_CR3_E802A);
 551              		.loc 1 291 3 view .LVU81
 552 0000 024A     		ldr	r2, .L53
 553 0002 9368     		ldr	r3, [r2, #8]
 554 0004 43F40053 		orr	r3, r3, #8192
 555 0008 9360     		str	r3, [r2, #8]
 292:Drivers/STM32WBxx_HAL_Driver/Src/stm32wbxx_hal_pwr_ex.c **** }
 556              		.loc 1 292 1 is_stmt 0 view .LVU82
 557 000a 7047     		bx	lr
 558              	.L54:
 559              		.align	2
 560              	.L53:
 561 000c 00040058 		.word	1476396032
 562              		.cfi_endproc
 563              	.LFE955:
 565              		.section	.text.HAL_PWREx_Disable802ActivityIT,"ax",%progbits
 566              		.align	1
 567              		.global	HAL_PWREx_Disable802ActivityIT
 568              		.syntax unified
 569              		.thumb
 570              		.thumb_func
 571              		.fpu fpv4-sp-d16
 573              	HAL_PWREx_Disable802ActivityIT:
ARM GAS  /tmp/ccRrvtNP.s 			page 16


 574              	.LFB956:
 293:Drivers/STM32WBxx_HAL_Driver/Src/stm32wbxx_hal_pwr_ex.c **** 
 294:Drivers/STM32WBxx_HAL_Driver/Src/stm32wbxx_hal_pwr_ex.c **** /**
 295:Drivers/STM32WBxx_HAL_Driver/Src/stm32wbxx_hal_pwr_ex.c ****   * @brief Disable 802.15.4 Activity interrupt.
 296:Drivers/STM32WBxx_HAL_Driver/Src/stm32wbxx_hal_pwr_ex.c ****   * @retval None
 297:Drivers/STM32WBxx_HAL_Driver/Src/stm32wbxx_hal_pwr_ex.c ****   */
 298:Drivers/STM32WBxx_HAL_Driver/Src/stm32wbxx_hal_pwr_ex.c **** void HAL_PWREx_Disable802ActivityIT(void)
 299:Drivers/STM32WBxx_HAL_Driver/Src/stm32wbxx_hal_pwr_ex.c **** {
 575              		.loc 1 299 1 is_stmt 1 view -0
 576              		.cfi_startproc
 577              		@ args = 0, pretend = 0, frame = 0
 578              		@ frame_needed = 0, uses_anonymous_args = 0
 579              		@ link register save eliminated.
 300:Drivers/STM32WBxx_HAL_Driver/Src/stm32wbxx_hal_pwr_ex.c ****   CLEAR_BIT(PWR->CR3, PWR_CR3_E802A);
 580              		.loc 1 300 3 view .LVU84
 581 0000 024A     		ldr	r2, .L56
 582 0002 9368     		ldr	r3, [r2, #8]
 583 0004 23F40053 		bic	r3, r3, #8192
 584 0008 9360     		str	r3, [r2, #8]
 301:Drivers/STM32WBxx_HAL_Driver/Src/stm32wbxx_hal_pwr_ex.c **** }
 585              		.loc 1 301 1 is_stmt 0 view .LVU85
 586 000a 7047     		bx	lr
 587              	.L57:
 588              		.align	2
 589              	.L56:
 590 000c 00040058 		.word	1476396032
 591              		.cfi_endproc
 592              	.LFE956:
 594              		.section	.text.HAL_PWREx_EnableHOLDC2IT,"ax",%progbits
 595              		.align	1
 596              		.global	HAL_PWREx_EnableHOLDC2IT
 597              		.syntax unified
 598              		.thumb
 599              		.thumb_func
 600              		.fpu fpv4-sp-d16
 602              	HAL_PWREx_EnableHOLDC2IT:
 603              	.LFB957:
 302:Drivers/STM32WBxx_HAL_Driver/Src/stm32wbxx_hal_pwr_ex.c **** 
 303:Drivers/STM32WBxx_HAL_Driver/Src/stm32wbxx_hal_pwr_ex.c **** /**
 304:Drivers/STM32WBxx_HAL_Driver/Src/stm32wbxx_hal_pwr_ex.c ****   * @brief Enable CPU2 on-Hold interrupt.
 305:Drivers/STM32WBxx_HAL_Driver/Src/stm32wbxx_hal_pwr_ex.c ****   * @retval None
 306:Drivers/STM32WBxx_HAL_Driver/Src/stm32wbxx_hal_pwr_ex.c ****   */
 307:Drivers/STM32WBxx_HAL_Driver/Src/stm32wbxx_hal_pwr_ex.c **** void HAL_PWREx_EnableHOLDC2IT(void)
 308:Drivers/STM32WBxx_HAL_Driver/Src/stm32wbxx_hal_pwr_ex.c **** {
 604              		.loc 1 308 1 is_stmt 1 view -0
 605              		.cfi_startproc
 606              		@ args = 0, pretend = 0, frame = 0
 607              		@ frame_needed = 0, uses_anonymous_args = 0
 608              		@ link register save eliminated.
 309:Drivers/STM32WBxx_HAL_Driver/Src/stm32wbxx_hal_pwr_ex.c ****   SET_BIT(PWR->CR3, PWR_CR3_EC2H);
 609              		.loc 1 309 3 view .LVU87
 610 0000 024A     		ldr	r2, .L59
 611 0002 9368     		ldr	r3, [r2, #8]
 612 0004 43F48043 		orr	r3, r3, #16384
 613 0008 9360     		str	r3, [r2, #8]
 310:Drivers/STM32WBxx_HAL_Driver/Src/stm32wbxx_hal_pwr_ex.c **** }
 614              		.loc 1 310 1 is_stmt 0 view .LVU88
ARM GAS  /tmp/ccRrvtNP.s 			page 17


 615 000a 7047     		bx	lr
 616              	.L60:
 617              		.align	2
 618              	.L59:
 619 000c 00040058 		.word	1476396032
 620              		.cfi_endproc
 621              	.LFE957:
 623              		.section	.text.HAL_PWREx_DisableHOLDC2IT,"ax",%progbits
 624              		.align	1
 625              		.global	HAL_PWREx_DisableHOLDC2IT
 626              		.syntax unified
 627              		.thumb
 628              		.thumb_func
 629              		.fpu fpv4-sp-d16
 631              	HAL_PWREx_DisableHOLDC2IT:
 632              	.LFB958:
 311:Drivers/STM32WBxx_HAL_Driver/Src/stm32wbxx_hal_pwr_ex.c **** 
 312:Drivers/STM32WBxx_HAL_Driver/Src/stm32wbxx_hal_pwr_ex.c **** /**
 313:Drivers/STM32WBxx_HAL_Driver/Src/stm32wbxx_hal_pwr_ex.c ****   * @brief Disable CPU2 on-Hold interrupt.
 314:Drivers/STM32WBxx_HAL_Driver/Src/stm32wbxx_hal_pwr_ex.c ****   * @retval None
 315:Drivers/STM32WBxx_HAL_Driver/Src/stm32wbxx_hal_pwr_ex.c ****   */
 316:Drivers/STM32WBxx_HAL_Driver/Src/stm32wbxx_hal_pwr_ex.c **** void HAL_PWREx_DisableHOLDC2IT(void)
 317:Drivers/STM32WBxx_HAL_Driver/Src/stm32wbxx_hal_pwr_ex.c **** {
 633              		.loc 1 317 1 is_stmt 1 view -0
 634              		.cfi_startproc
 635              		@ args = 0, pretend = 0, frame = 0
 636              		@ frame_needed = 0, uses_anonymous_args = 0
 637              		@ link register save eliminated.
 318:Drivers/STM32WBxx_HAL_Driver/Src/stm32wbxx_hal_pwr_ex.c ****   CLEAR_BIT(PWR->CR3, PWR_CR3_EC2H);
 638              		.loc 1 318 3 view .LVU90
 639 0000 024A     		ldr	r2, .L62
 640 0002 9368     		ldr	r3, [r2, #8]
 641 0004 23F48043 		bic	r3, r3, #16384
 642 0008 9360     		str	r3, [r2, #8]
 319:Drivers/STM32WBxx_HAL_Driver/Src/stm32wbxx_hal_pwr_ex.c **** }
 643              		.loc 1 319 1 is_stmt 0 view .LVU91
 644 000a 7047     		bx	lr
 645              	.L63:
 646              		.align	2
 647              	.L62:
 648 000c 00040058 		.word	1476396032
 649              		.cfi_endproc
 650              	.LFE958:
 652              		.section	.text.HAL_PWREx_EnableGPIOPullUp,"ax",%progbits
 653              		.align	1
 654              		.global	HAL_PWREx_EnableGPIOPullUp
 655              		.syntax unified
 656              		.thumb
 657              		.thumb_func
 658              		.fpu fpv4-sp-d16
 660              	HAL_PWREx_EnableGPIOPullUp:
 661              	.LVL14:
 662              	.LFB959:
 320:Drivers/STM32WBxx_HAL_Driver/Src/stm32wbxx_hal_pwr_ex.c **** 
 321:Drivers/STM32WBxx_HAL_Driver/Src/stm32wbxx_hal_pwr_ex.c **** /****************************************************************************/
 322:Drivers/STM32WBxx_HAL_Driver/Src/stm32wbxx_hal_pwr_ex.c **** 
 323:Drivers/STM32WBxx_HAL_Driver/Src/stm32wbxx_hal_pwr_ex.c **** /**
ARM GAS  /tmp/ccRrvtNP.s 			page 18


 324:Drivers/STM32WBxx_HAL_Driver/Src/stm32wbxx_hal_pwr_ex.c ****   * @brief Enable GPIO pull-up state in Standby and Shutdown modes.
 325:Drivers/STM32WBxx_HAL_Driver/Src/stm32wbxx_hal_pwr_ex.c ****   * @note  Set the relevant PUy bits of PWR_PUCRx register to configure the I/O in 
 326:Drivers/STM32WBxx_HAL_Driver/Src/stm32wbxx_hal_pwr_ex.c ****   *        pull-up state in Standby and Shutdown modes. 
 327:Drivers/STM32WBxx_HAL_Driver/Src/stm32wbxx_hal_pwr_ex.c ****   * @note  This state is effective in Standby and Shutdown modes only if APC bit 
 328:Drivers/STM32WBxx_HAL_Driver/Src/stm32wbxx_hal_pwr_ex.c ****   *        is set through HAL_PWREx_EnablePullUpPullDownConfig() API.
 329:Drivers/STM32WBxx_HAL_Driver/Src/stm32wbxx_hal_pwr_ex.c ****   * @note  The configuration is lost when exiting the Shutdown mode due to the 
 330:Drivers/STM32WBxx_HAL_Driver/Src/stm32wbxx_hal_pwr_ex.c ****   *        power-on reset, maintained when exiting the Standby mode. 
 331:Drivers/STM32WBxx_HAL_Driver/Src/stm32wbxx_hal_pwr_ex.c ****   * @note  To avoid any conflict at Standby and Shutdown modes exits, the corresponding
 332:Drivers/STM32WBxx_HAL_Driver/Src/stm32wbxx_hal_pwr_ex.c ****   *        PDy bit of PWR_PDCRx register is cleared unless it is reserved. 
 333:Drivers/STM32WBxx_HAL_Driver/Src/stm32wbxx_hal_pwr_ex.c ****   * @note  Even if a PUy bit to set is reserved, the other PUy bits entered as input 
 334:Drivers/STM32WBxx_HAL_Driver/Src/stm32wbxx_hal_pwr_ex.c ****   *        parameter at the same time are set.     
 335:Drivers/STM32WBxx_HAL_Driver/Src/stm32wbxx_hal_pwr_ex.c ****   * @param GPIO Specify the IO port. This parameter can be PWR_GPIO_A, ..., PWR_GPIO_H 
 336:Drivers/STM32WBxx_HAL_Driver/Src/stm32wbxx_hal_pwr_ex.c ****   *         to select the GPIO peripheral.
 337:Drivers/STM32WBxx_HAL_Driver/Src/stm32wbxx_hal_pwr_ex.c ****   * @param GPIONumber Specify the I/O pins numbers.
 338:Drivers/STM32WBxx_HAL_Driver/Src/stm32wbxx_hal_pwr_ex.c ****   *         This parameter can be one of the following values:
 339:Drivers/STM32WBxx_HAL_Driver/Src/stm32wbxx_hal_pwr_ex.c ****   *         PWR_GPIO_BIT_0, ..., PWR_GPIO_BIT_15 (except for PORTH where less  
 340:Drivers/STM32WBxx_HAL_Driver/Src/stm32wbxx_hal_pwr_ex.c ****   *         I/O pins are available) or the logical OR of several of them to set 
 341:Drivers/STM32WBxx_HAL_Driver/Src/stm32wbxx_hal_pwr_ex.c ****   *         several bits for a given port in a single API call.
 342:Drivers/STM32WBxx_HAL_Driver/Src/stm32wbxx_hal_pwr_ex.c ****   * @retval HAL Status
 343:Drivers/STM32WBxx_HAL_Driver/Src/stm32wbxx_hal_pwr_ex.c ****   */
 344:Drivers/STM32WBxx_HAL_Driver/Src/stm32wbxx_hal_pwr_ex.c **** HAL_StatusTypeDef HAL_PWREx_EnableGPIOPullUp(uint32_t GPIO, uint32_t GPIONumber)
 345:Drivers/STM32WBxx_HAL_Driver/Src/stm32wbxx_hal_pwr_ex.c **** {  
 663              		.loc 1 345 1 is_stmt 1 view -0
 664              		.cfi_startproc
 665              		@ args = 0, pretend = 0, frame = 0
 666              		@ frame_needed = 0, uses_anonymous_args = 0
 667              		@ link register save eliminated.
 346:Drivers/STM32WBxx_HAL_Driver/Src/stm32wbxx_hal_pwr_ex.c ****   HAL_StatusTypeDef status = HAL_OK;
 668              		.loc 1 346 3 view .LVU93
 347:Drivers/STM32WBxx_HAL_Driver/Src/stm32wbxx_hal_pwr_ex.c **** 
 348:Drivers/STM32WBxx_HAL_Driver/Src/stm32wbxx_hal_pwr_ex.c ****   assert_param(IS_PWR_GPIO(GPIO));
 669              		.loc 1 348 3 view .LVU94
 349:Drivers/STM32WBxx_HAL_Driver/Src/stm32wbxx_hal_pwr_ex.c ****   assert_param(IS_PWR_GPIO_BIT_NUMBER(GPIONumber));
 670              		.loc 1 349 3 view .LVU95
 350:Drivers/STM32WBxx_HAL_Driver/Src/stm32wbxx_hal_pwr_ex.c **** 
 351:Drivers/STM32WBxx_HAL_Driver/Src/stm32wbxx_hal_pwr_ex.c ****   switch (GPIO)
 671              		.loc 1 351 3 view .LVU96
 672 0000 0728     		cmp	r0, #7
 673 0002 45D8     		bhi	.L73
 674 0004 DFE800F0 		tbb	[pc, r0]
 675              	.L67:
 676 0008 04       		.byte	(.L72-.L67)/2
 677 0009 0E       		.byte	(.L71-.L67)/2
 678 000a 18       		.byte	(.L70-.L67)/2
 679 000b 22       		.byte	(.L69-.L67)/2
 680 000c 2C       		.byte	(.L68-.L67)/2
 681 000d 44       		.byte	(.L73-.L67)/2
 682 000e 44       		.byte	(.L73-.L67)/2
 683 000f 38       		.byte	(.L66-.L67)/2
 684              		.p2align 1
 685              	.L72:
 352:Drivers/STM32WBxx_HAL_Driver/Src/stm32wbxx_hal_pwr_ex.c ****   {
 353:Drivers/STM32WBxx_HAL_Driver/Src/stm32wbxx_hal_pwr_ex.c ****     case PWR_GPIO_A:
 354:Drivers/STM32WBxx_HAL_Driver/Src/stm32wbxx_hal_pwr_ex.c ****        SET_BIT(PWR->PUCRA, GPIONumber);
 686              		.loc 1 354 8 view .LVU97
 687 0010 204B     		ldr	r3, .L74
 688 0012 1A6A     		ldr	r2, [r3, #32]
ARM GAS  /tmp/ccRrvtNP.s 			page 19


 689 0014 0A43     		orrs	r2, r2, r1
 690 0016 1A62     		str	r2, [r3, #32]
 355:Drivers/STM32WBxx_HAL_Driver/Src/stm32wbxx_hal_pwr_ex.c ****        CLEAR_BIT(PWR->PDCRA, GPIONumber);
 691              		.loc 1 355 8 view .LVU98
 692 0018 5A6A     		ldr	r2, [r3, #36]
 693 001a 22EA0101 		bic	r1, r2, r1
 694              	.LVL15:
 695              		.loc 1 355 8 is_stmt 0 view .LVU99
 696 001e 5962     		str	r1, [r3, #36]
 356:Drivers/STM32WBxx_HAL_Driver/Src/stm32wbxx_hal_pwr_ex.c ****        break;
 697              		.loc 1 356 8 is_stmt 1 view .LVU100
 346:Drivers/STM32WBxx_HAL_Driver/Src/stm32wbxx_hal_pwr_ex.c **** 
 698              		.loc 1 346 21 is_stmt 0 view .LVU101
 699 0020 0020     		movs	r0, #0
 700              	.LVL16:
 701              		.loc 1 356 8 view .LVU102
 702 0022 7047     		bx	lr
 703              	.LVL17:
 704              	.L71:
 357:Drivers/STM32WBxx_HAL_Driver/Src/stm32wbxx_hal_pwr_ex.c ****     case PWR_GPIO_B:
 358:Drivers/STM32WBxx_HAL_Driver/Src/stm32wbxx_hal_pwr_ex.c ****        SET_BIT(PWR->PUCRB, GPIONumber);
 705              		.loc 1 358 8 is_stmt 1 view .LVU103
 706 0024 1B4B     		ldr	r3, .L74
 707 0026 9A6A     		ldr	r2, [r3, #40]
 708 0028 0A43     		orrs	r2, r2, r1
 709 002a 9A62     		str	r2, [r3, #40]
 359:Drivers/STM32WBxx_HAL_Driver/Src/stm32wbxx_hal_pwr_ex.c ****        CLEAR_BIT(PWR->PDCRB, GPIONumber);
 710              		.loc 1 359 8 view .LVU104
 711 002c DA6A     		ldr	r2, [r3, #44]
 712 002e 22EA0101 		bic	r1, r2, r1
 713              	.LVL18:
 714              		.loc 1 359 8 is_stmt 0 view .LVU105
 715 0032 D962     		str	r1, [r3, #44]
 360:Drivers/STM32WBxx_HAL_Driver/Src/stm32wbxx_hal_pwr_ex.c ****        break; 
 716              		.loc 1 360 8 is_stmt 1 view .LVU106
 346:Drivers/STM32WBxx_HAL_Driver/Src/stm32wbxx_hal_pwr_ex.c **** 
 717              		.loc 1 346 21 is_stmt 0 view .LVU107
 718 0034 0020     		movs	r0, #0
 719              	.LVL19:
 720              		.loc 1 360 8 view .LVU108
 721 0036 7047     		bx	lr
 722              	.LVL20:
 723              	.L70:
 361:Drivers/STM32WBxx_HAL_Driver/Src/stm32wbxx_hal_pwr_ex.c ****     case PWR_GPIO_C:
 362:Drivers/STM32WBxx_HAL_Driver/Src/stm32wbxx_hal_pwr_ex.c ****        SET_BIT(PWR->PUCRC, GPIONumber);
 724              		.loc 1 362 8 is_stmt 1 view .LVU109
 725 0038 164B     		ldr	r3, .L74
 726 003a 1A6B     		ldr	r2, [r3, #48]
 727 003c 0A43     		orrs	r2, r2, r1
 728 003e 1A63     		str	r2, [r3, #48]
 363:Drivers/STM32WBxx_HAL_Driver/Src/stm32wbxx_hal_pwr_ex.c ****        CLEAR_BIT(PWR->PDCRC, GPIONumber);
 729              		.loc 1 363 8 view .LVU110
 730 0040 5A6B     		ldr	r2, [r3, #52]
 731 0042 22EA0101 		bic	r1, r2, r1
 732              	.LVL21:
 733              		.loc 1 363 8 is_stmt 0 view .LVU111
 734 0046 5963     		str	r1, [r3, #52]
ARM GAS  /tmp/ccRrvtNP.s 			page 20


 364:Drivers/STM32WBxx_HAL_Driver/Src/stm32wbxx_hal_pwr_ex.c ****        break;
 735              		.loc 1 364 8 is_stmt 1 view .LVU112
 346:Drivers/STM32WBxx_HAL_Driver/Src/stm32wbxx_hal_pwr_ex.c **** 
 736              		.loc 1 346 21 is_stmt 0 view .LVU113
 737 0048 0020     		movs	r0, #0
 738              	.LVL22:
 739              		.loc 1 364 8 view .LVU114
 740 004a 7047     		bx	lr
 741              	.LVL23:
 742              	.L69:
 365:Drivers/STM32WBxx_HAL_Driver/Src/stm32wbxx_hal_pwr_ex.c **** #if defined(GPIOD)
 366:Drivers/STM32WBxx_HAL_Driver/Src/stm32wbxx_hal_pwr_ex.c ****     case PWR_GPIO_D:
 367:Drivers/STM32WBxx_HAL_Driver/Src/stm32wbxx_hal_pwr_ex.c ****        SET_BIT(PWR->PUCRD, GPIONumber);
 743              		.loc 1 367 8 is_stmt 1 view .LVU115
 744 004c 114B     		ldr	r3, .L74
 745 004e 9A6B     		ldr	r2, [r3, #56]
 746 0050 0A43     		orrs	r2, r2, r1
 747 0052 9A63     		str	r2, [r3, #56]
 368:Drivers/STM32WBxx_HAL_Driver/Src/stm32wbxx_hal_pwr_ex.c ****        CLEAR_BIT(PWR->PDCRD, GPIONumber);
 748              		.loc 1 368 8 view .LVU116
 749 0054 DA6B     		ldr	r2, [r3, #60]
 750 0056 22EA0101 		bic	r1, r2, r1
 751              	.LVL24:
 752              		.loc 1 368 8 is_stmt 0 view .LVU117
 753 005a D963     		str	r1, [r3, #60]
 369:Drivers/STM32WBxx_HAL_Driver/Src/stm32wbxx_hal_pwr_ex.c ****        break;
 754              		.loc 1 369 8 is_stmt 1 view .LVU118
 346:Drivers/STM32WBxx_HAL_Driver/Src/stm32wbxx_hal_pwr_ex.c **** 
 755              		.loc 1 346 21 is_stmt 0 view .LVU119
 756 005c 0020     		movs	r0, #0
 757              	.LVL25:
 758              		.loc 1 369 8 view .LVU120
 759 005e 7047     		bx	lr
 760              	.LVL26:
 761              	.L68:
 370:Drivers/STM32WBxx_HAL_Driver/Src/stm32wbxx_hal_pwr_ex.c **** #endif
 371:Drivers/STM32WBxx_HAL_Driver/Src/stm32wbxx_hal_pwr_ex.c ****     case PWR_GPIO_E:
 372:Drivers/STM32WBxx_HAL_Driver/Src/stm32wbxx_hal_pwr_ex.c ****        SET_BIT(PWR->PUCRE, (GPIONumber & PWR_PORTE_AVAILABLE_PINS));
 762              		.loc 1 372 8 is_stmt 1 view .LVU121
 763 0060 0C4B     		ldr	r3, .L74
 764 0062 1A6C     		ldr	r2, [r3, #64]
 765 0064 01F01F01 		and	r1, r1, #31
 766              	.LVL27:
 767              		.loc 1 372 8 is_stmt 0 view .LVU122
 768 0068 0A43     		orrs	r2, r2, r1
 769 006a 1A64     		str	r2, [r3, #64]
 373:Drivers/STM32WBxx_HAL_Driver/Src/stm32wbxx_hal_pwr_ex.c ****        CLEAR_BIT(PWR->PDCRE, (GPIONumber & PWR_PORTE_AVAILABLE_PINS));
 770              		.loc 1 373 8 is_stmt 1 view .LVU123
 771 006c 5A6C     		ldr	r2, [r3, #68]
 772 006e 22EA0101 		bic	r1, r2, r1
 773 0072 5964     		str	r1, [r3, #68]
 374:Drivers/STM32WBxx_HAL_Driver/Src/stm32wbxx_hal_pwr_ex.c ****        break;
 774              		.loc 1 374 8 view .LVU124
 346:Drivers/STM32WBxx_HAL_Driver/Src/stm32wbxx_hal_pwr_ex.c **** 
 775              		.loc 1 346 21 is_stmt 0 view .LVU125
 776 0074 0020     		movs	r0, #0
 777              	.LVL28:
ARM GAS  /tmp/ccRrvtNP.s 			page 21


 778              		.loc 1 374 8 view .LVU126
 779 0076 7047     		bx	lr
 780              	.LVL29:
 781              	.L66:
 375:Drivers/STM32WBxx_HAL_Driver/Src/stm32wbxx_hal_pwr_ex.c ****     case PWR_GPIO_H:
 376:Drivers/STM32WBxx_HAL_Driver/Src/stm32wbxx_hal_pwr_ex.c ****        SET_BIT(PWR->PUCRH, (GPIONumber & PWR_PORTH_AVAILABLE_PINS));
 782              		.loc 1 376 8 is_stmt 1 view .LVU127
 783 0078 064B     		ldr	r3, .L74
 784 007a 9A6D     		ldr	r2, [r3, #88]
 785 007c 01F00B01 		and	r1, r1, #11
 786              	.LVL30:
 787              		.loc 1 376 8 is_stmt 0 view .LVU128
 788 0080 0A43     		orrs	r2, r2, r1
 789 0082 9A65     		str	r2, [r3, #88]
 377:Drivers/STM32WBxx_HAL_Driver/Src/stm32wbxx_hal_pwr_ex.c ****        CLEAR_BIT(PWR->PDCRH, (GPIONumber & PWR_PORTH_AVAILABLE_PINS));
 790              		.loc 1 377 8 is_stmt 1 view .LVU129
 791 0084 DA6D     		ldr	r2, [r3, #92]
 792 0086 22EA0101 		bic	r1, r2, r1
 793 008a D965     		str	r1, [r3, #92]
 378:Drivers/STM32WBxx_HAL_Driver/Src/stm32wbxx_hal_pwr_ex.c ****        break;
 794              		.loc 1 378 8 view .LVU130
 346:Drivers/STM32WBxx_HAL_Driver/Src/stm32wbxx_hal_pwr_ex.c **** 
 795              		.loc 1 346 21 is_stmt 0 view .LVU131
 796 008c 0020     		movs	r0, #0
 797              	.LVL31:
 798              		.loc 1 378 8 view .LVU132
 799 008e 7047     		bx	lr
 800              	.LVL32:
 801              	.L73:
 346:Drivers/STM32WBxx_HAL_Driver/Src/stm32wbxx_hal_pwr_ex.c **** 
 802              		.loc 1 346 21 view .LVU133
 803 0090 0120     		movs	r0, #1
 804              	.LVL33:
 379:Drivers/STM32WBxx_HAL_Driver/Src/stm32wbxx_hal_pwr_ex.c ****     default:
 380:Drivers/STM32WBxx_HAL_Driver/Src/stm32wbxx_hal_pwr_ex.c ****       status = HAL_ERROR;
 381:Drivers/STM32WBxx_HAL_Driver/Src/stm32wbxx_hal_pwr_ex.c ****       break;
 382:Drivers/STM32WBxx_HAL_Driver/Src/stm32wbxx_hal_pwr_ex.c ****   }
 383:Drivers/STM32WBxx_HAL_Driver/Src/stm32wbxx_hal_pwr_ex.c ****        
 384:Drivers/STM32WBxx_HAL_Driver/Src/stm32wbxx_hal_pwr_ex.c ****   return status;
 805              		.loc 1 384 3 is_stmt 1 view .LVU134
 385:Drivers/STM32WBxx_HAL_Driver/Src/stm32wbxx_hal_pwr_ex.c **** }
 806              		.loc 1 385 1 is_stmt 0 view .LVU135
 807 0092 7047     		bx	lr
 808              	.L75:
 809              		.align	2
 810              	.L74:
 811 0094 00040058 		.word	1476396032
 812              		.cfi_endproc
 813              	.LFE959:
 815              		.section	.text.HAL_PWREx_DisableGPIOPullUp,"ax",%progbits
 816              		.align	1
 817              		.global	HAL_PWREx_DisableGPIOPullUp
 818              		.syntax unified
 819              		.thumb
 820              		.thumb_func
 821              		.fpu fpv4-sp-d16
 823              	HAL_PWREx_DisableGPIOPullUp:
ARM GAS  /tmp/ccRrvtNP.s 			page 22


 824              	.LVL34:
 825              	.LFB960:
 386:Drivers/STM32WBxx_HAL_Driver/Src/stm32wbxx_hal_pwr_ex.c **** 
 387:Drivers/STM32WBxx_HAL_Driver/Src/stm32wbxx_hal_pwr_ex.c **** /**
 388:Drivers/STM32WBxx_HAL_Driver/Src/stm32wbxx_hal_pwr_ex.c ****   * @brief Disable GPIO pull-up state in Standby mode and Shutdown modes.
 389:Drivers/STM32WBxx_HAL_Driver/Src/stm32wbxx_hal_pwr_ex.c ****   * @note  Reset the relevant PUy bits of PWR_PUCRx register used to configure the I/O
 390:Drivers/STM32WBxx_HAL_Driver/Src/stm32wbxx_hal_pwr_ex.c ****   *        in pull-up state in Standby and Shutdown modes.
 391:Drivers/STM32WBxx_HAL_Driver/Src/stm32wbxx_hal_pwr_ex.c ****   * @note  Even if a PUy bit to reset is reserved, the other PUy bits entered as input 
 392:Drivers/STM32WBxx_HAL_Driver/Src/stm32wbxx_hal_pwr_ex.c ****   *        parameter at the same time are reset.
 393:Drivers/STM32WBxx_HAL_Driver/Src/stm32wbxx_hal_pwr_ex.c ****   * @param GPIO Specifies the IO port. This parameter can be PWR_GPIO_A, ..., PWR_GPIO_H 
 394:Drivers/STM32WBxx_HAL_Driver/Src/stm32wbxx_hal_pwr_ex.c ****   *         to select the GPIO peripheral.
 395:Drivers/STM32WBxx_HAL_Driver/Src/stm32wbxx_hal_pwr_ex.c ****   * @param GPIONumber Specify the I/O pins numbers.
 396:Drivers/STM32WBxx_HAL_Driver/Src/stm32wbxx_hal_pwr_ex.c ****   *         This parameter can be one of the following values:
 397:Drivers/STM32WBxx_HAL_Driver/Src/stm32wbxx_hal_pwr_ex.c ****   *         PWR_GPIO_BIT_0, ..., PWR_GPIO_BIT_15 (except for PORTH where less
 398:Drivers/STM32WBxx_HAL_Driver/Src/stm32wbxx_hal_pwr_ex.c ****   *         I/O pins are available) or the logical OR of several of them to reset 
 399:Drivers/STM32WBxx_HAL_Driver/Src/stm32wbxx_hal_pwr_ex.c ****   *         several bits for a given port in a single API call.
 400:Drivers/STM32WBxx_HAL_Driver/Src/stm32wbxx_hal_pwr_ex.c ****   * @retval HAL Status
 401:Drivers/STM32WBxx_HAL_Driver/Src/stm32wbxx_hal_pwr_ex.c ****   */   
 402:Drivers/STM32WBxx_HAL_Driver/Src/stm32wbxx_hal_pwr_ex.c **** HAL_StatusTypeDef HAL_PWREx_DisableGPIOPullUp(uint32_t GPIO, uint32_t GPIONumber)
 403:Drivers/STM32WBxx_HAL_Driver/Src/stm32wbxx_hal_pwr_ex.c **** {  
 826              		.loc 1 403 1 is_stmt 1 view -0
 827              		.cfi_startproc
 828              		@ args = 0, pretend = 0, frame = 0
 829              		@ frame_needed = 0, uses_anonymous_args = 0
 830              		@ link register save eliminated.
 404:Drivers/STM32WBxx_HAL_Driver/Src/stm32wbxx_hal_pwr_ex.c ****   HAL_StatusTypeDef status = HAL_OK;
 831              		.loc 1 404 3 view .LVU137
 405:Drivers/STM32WBxx_HAL_Driver/Src/stm32wbxx_hal_pwr_ex.c ****   
 406:Drivers/STM32WBxx_HAL_Driver/Src/stm32wbxx_hal_pwr_ex.c ****   assert_param(IS_PWR_GPIO(GPIO));
 832              		.loc 1 406 3 view .LVU138
 407:Drivers/STM32WBxx_HAL_Driver/Src/stm32wbxx_hal_pwr_ex.c ****   assert_param(IS_PWR_GPIO_BIT_NUMBER(GPIONumber));
 833              		.loc 1 407 3 view .LVU139
 408:Drivers/STM32WBxx_HAL_Driver/Src/stm32wbxx_hal_pwr_ex.c ****   
 409:Drivers/STM32WBxx_HAL_Driver/Src/stm32wbxx_hal_pwr_ex.c ****   switch (GPIO)
 834              		.loc 1 409 3 view .LVU140
 835 0000 0728     		cmp	r0, #7
 836 0002 33D8     		bhi	.L85
 837 0004 DFE800F0 		tbb	[pc, r0]
 838              	.L79:
 839 0008 04       		.byte	(.L84-.L79)/2
 840 0009 0B       		.byte	(.L83-.L79)/2
 841 000a 12       		.byte	(.L82-.L79)/2
 842 000b 19       		.byte	(.L81-.L79)/2
 843 000c 20       		.byte	(.L80-.L79)/2
 844 000d 32       		.byte	(.L85-.L79)/2
 845 000e 32       		.byte	(.L85-.L79)/2
 846 000f 29       		.byte	(.L78-.L79)/2
 847              		.p2align 1
 848              	.L84:
 410:Drivers/STM32WBxx_HAL_Driver/Src/stm32wbxx_hal_pwr_ex.c ****   {
 411:Drivers/STM32WBxx_HAL_Driver/Src/stm32wbxx_hal_pwr_ex.c ****     case PWR_GPIO_A:
 412:Drivers/STM32WBxx_HAL_Driver/Src/stm32wbxx_hal_pwr_ex.c ****        CLEAR_BIT(PWR->PUCRA, GPIONumber);
 849              		.loc 1 412 8 view .LVU141
 850 0010 174A     		ldr	r2, .L86
 851 0012 136A     		ldr	r3, [r2, #32]
 852 0014 23EA0101 		bic	r1, r3, r1
 853              	.LVL35:
ARM GAS  /tmp/ccRrvtNP.s 			page 23


 854              		.loc 1 412 8 is_stmt 0 view .LVU142
 855 0018 1162     		str	r1, [r2, #32]
 413:Drivers/STM32WBxx_HAL_Driver/Src/stm32wbxx_hal_pwr_ex.c ****        break;
 856              		.loc 1 413 8 is_stmt 1 view .LVU143
 404:Drivers/STM32WBxx_HAL_Driver/Src/stm32wbxx_hal_pwr_ex.c ****   
 857              		.loc 1 404 21 is_stmt 0 view .LVU144
 858 001a 0020     		movs	r0, #0
 859              	.LVL36:
 860              		.loc 1 413 8 view .LVU145
 861 001c 7047     		bx	lr
 862              	.LVL37:
 863              	.L83:
 414:Drivers/STM32WBxx_HAL_Driver/Src/stm32wbxx_hal_pwr_ex.c ****     case PWR_GPIO_B:
 415:Drivers/STM32WBxx_HAL_Driver/Src/stm32wbxx_hal_pwr_ex.c ****        CLEAR_BIT(PWR->PUCRB, GPIONumber);
 864              		.loc 1 415 8 is_stmt 1 view .LVU146
 865 001e 144A     		ldr	r2, .L86
 866 0020 936A     		ldr	r3, [r2, #40]
 867 0022 23EA0101 		bic	r1, r3, r1
 868              	.LVL38:
 869              		.loc 1 415 8 is_stmt 0 view .LVU147
 870 0026 9162     		str	r1, [r2, #40]
 416:Drivers/STM32WBxx_HAL_Driver/Src/stm32wbxx_hal_pwr_ex.c ****        break; 
 871              		.loc 1 416 8 is_stmt 1 view .LVU148
 404:Drivers/STM32WBxx_HAL_Driver/Src/stm32wbxx_hal_pwr_ex.c ****   
 872              		.loc 1 404 21 is_stmt 0 view .LVU149
 873 0028 0020     		movs	r0, #0
 874              	.LVL39:
 875              		.loc 1 416 8 view .LVU150
 876 002a 7047     		bx	lr
 877              	.LVL40:
 878              	.L82:
 417:Drivers/STM32WBxx_HAL_Driver/Src/stm32wbxx_hal_pwr_ex.c ****     case PWR_GPIO_C:
 418:Drivers/STM32WBxx_HAL_Driver/Src/stm32wbxx_hal_pwr_ex.c ****        CLEAR_BIT(PWR->PUCRC, GPIONumber);
 879              		.loc 1 418 8 is_stmt 1 view .LVU151
 880 002c 104A     		ldr	r2, .L86
 881 002e 136B     		ldr	r3, [r2, #48]
 882 0030 23EA0101 		bic	r1, r3, r1
 883              	.LVL41:
 884              		.loc 1 418 8 is_stmt 0 view .LVU152
 885 0034 1163     		str	r1, [r2, #48]
 419:Drivers/STM32WBxx_HAL_Driver/Src/stm32wbxx_hal_pwr_ex.c ****        break;
 886              		.loc 1 419 8 is_stmt 1 view .LVU153
 404:Drivers/STM32WBxx_HAL_Driver/Src/stm32wbxx_hal_pwr_ex.c ****   
 887              		.loc 1 404 21 is_stmt 0 view .LVU154
 888 0036 0020     		movs	r0, #0
 889              	.LVL42:
 890              		.loc 1 419 8 view .LVU155
 891 0038 7047     		bx	lr
 892              	.LVL43:
 893              	.L81:
 420:Drivers/STM32WBxx_HAL_Driver/Src/stm32wbxx_hal_pwr_ex.c **** #if defined(GPIOD)
 421:Drivers/STM32WBxx_HAL_Driver/Src/stm32wbxx_hal_pwr_ex.c ****     case PWR_GPIO_D:
 422:Drivers/STM32WBxx_HAL_Driver/Src/stm32wbxx_hal_pwr_ex.c ****        CLEAR_BIT(PWR->PUCRD, GPIONumber);
 894              		.loc 1 422 8 is_stmt 1 view .LVU156
 895 003a 0D4A     		ldr	r2, .L86
 896 003c 936B     		ldr	r3, [r2, #56]
 897 003e 23EA0101 		bic	r1, r3, r1
ARM GAS  /tmp/ccRrvtNP.s 			page 24


 898              	.LVL44:
 899              		.loc 1 422 8 is_stmt 0 view .LVU157
 900 0042 9163     		str	r1, [r2, #56]
 423:Drivers/STM32WBxx_HAL_Driver/Src/stm32wbxx_hal_pwr_ex.c ****        break;
 901              		.loc 1 423 8 is_stmt 1 view .LVU158
 404:Drivers/STM32WBxx_HAL_Driver/Src/stm32wbxx_hal_pwr_ex.c ****   
 902              		.loc 1 404 21 is_stmt 0 view .LVU159
 903 0044 0020     		movs	r0, #0
 904              	.LVL45:
 905              		.loc 1 423 8 view .LVU160
 906 0046 7047     		bx	lr
 907              	.LVL46:
 908              	.L80:
 424:Drivers/STM32WBxx_HAL_Driver/Src/stm32wbxx_hal_pwr_ex.c **** #endif
 425:Drivers/STM32WBxx_HAL_Driver/Src/stm32wbxx_hal_pwr_ex.c ****     case PWR_GPIO_E:
 426:Drivers/STM32WBxx_HAL_Driver/Src/stm32wbxx_hal_pwr_ex.c ****        CLEAR_BIT(PWR->PUCRE, (GPIONumber & PWR_PORTE_AVAILABLE_PINS));
 909              		.loc 1 426 8 is_stmt 1 view .LVU161
 910 0048 094A     		ldr	r2, .L86
 911 004a 136C     		ldr	r3, [r2, #64]
 912 004c 01F01F01 		and	r1, r1, #31
 913              	.LVL47:
 914              		.loc 1 426 8 is_stmt 0 view .LVU162
 915 0050 23EA0101 		bic	r1, r3, r1
 916 0054 1164     		str	r1, [r2, #64]
 427:Drivers/STM32WBxx_HAL_Driver/Src/stm32wbxx_hal_pwr_ex.c ****        break;
 917              		.loc 1 427 8 is_stmt 1 view .LVU163
 404:Drivers/STM32WBxx_HAL_Driver/Src/stm32wbxx_hal_pwr_ex.c ****   
 918              		.loc 1 404 21 is_stmt 0 view .LVU164
 919 0056 0020     		movs	r0, #0
 920              	.LVL48:
 921              		.loc 1 427 8 view .LVU165
 922 0058 7047     		bx	lr
 923              	.LVL49:
 924              	.L78:
 428:Drivers/STM32WBxx_HAL_Driver/Src/stm32wbxx_hal_pwr_ex.c ****     case PWR_GPIO_H:
 429:Drivers/STM32WBxx_HAL_Driver/Src/stm32wbxx_hal_pwr_ex.c ****        CLEAR_BIT(PWR->PUCRH, (GPIONumber & PWR_PORTH_AVAILABLE_PINS));
 925              		.loc 1 429 8 is_stmt 1 view .LVU166
 926 005a 054A     		ldr	r2, .L86
 927 005c 936D     		ldr	r3, [r2, #88]
 928 005e 01F00B01 		and	r1, r1, #11
 929              	.LVL50:
 930              		.loc 1 429 8 is_stmt 0 view .LVU167
 931 0062 23EA0101 		bic	r1, r3, r1
 932 0066 9165     		str	r1, [r2, #88]
 430:Drivers/STM32WBxx_HAL_Driver/Src/stm32wbxx_hal_pwr_ex.c ****        break;
 933              		.loc 1 430 8 is_stmt 1 view .LVU168
 404:Drivers/STM32WBxx_HAL_Driver/Src/stm32wbxx_hal_pwr_ex.c ****   
 934              		.loc 1 404 21 is_stmt 0 view .LVU169
 935 0068 0020     		movs	r0, #0
 936              	.LVL51:
 937              		.loc 1 430 8 view .LVU170
 938 006a 7047     		bx	lr
 939              	.LVL52:
 940              	.L85:
 404:Drivers/STM32WBxx_HAL_Driver/Src/stm32wbxx_hal_pwr_ex.c ****   
 941              		.loc 1 404 21 view .LVU171
 942 006c 0120     		movs	r0, #1
ARM GAS  /tmp/ccRrvtNP.s 			page 25


 943              	.LVL53:
 431:Drivers/STM32WBxx_HAL_Driver/Src/stm32wbxx_hal_pwr_ex.c ****     default:
 432:Drivers/STM32WBxx_HAL_Driver/Src/stm32wbxx_hal_pwr_ex.c ****        status = HAL_ERROR;
 433:Drivers/STM32WBxx_HAL_Driver/Src/stm32wbxx_hal_pwr_ex.c ****        break;
 434:Drivers/STM32WBxx_HAL_Driver/Src/stm32wbxx_hal_pwr_ex.c ****   }
 435:Drivers/STM32WBxx_HAL_Driver/Src/stm32wbxx_hal_pwr_ex.c ****   
 436:Drivers/STM32WBxx_HAL_Driver/Src/stm32wbxx_hal_pwr_ex.c ****   return status;
 944              		.loc 1 436 3 is_stmt 1 view .LVU172
 437:Drivers/STM32WBxx_HAL_Driver/Src/stm32wbxx_hal_pwr_ex.c **** }
 945              		.loc 1 437 1 is_stmt 0 view .LVU173
 946 006e 7047     		bx	lr
 947              	.L87:
 948              		.align	2
 949              	.L86:
 950 0070 00040058 		.word	1476396032
 951              		.cfi_endproc
 952              	.LFE960:
 954              		.section	.text.HAL_PWREx_EnableGPIOPullDown,"ax",%progbits
 955              		.align	1
 956              		.global	HAL_PWREx_EnableGPIOPullDown
 957              		.syntax unified
 958              		.thumb
 959              		.thumb_func
 960              		.fpu fpv4-sp-d16
 962              	HAL_PWREx_EnableGPIOPullDown:
 963              	.LVL54:
 964              	.LFB961:
 438:Drivers/STM32WBxx_HAL_Driver/Src/stm32wbxx_hal_pwr_ex.c **** 
 439:Drivers/STM32WBxx_HAL_Driver/Src/stm32wbxx_hal_pwr_ex.c **** 
 440:Drivers/STM32WBxx_HAL_Driver/Src/stm32wbxx_hal_pwr_ex.c **** 
 441:Drivers/STM32WBxx_HAL_Driver/Src/stm32wbxx_hal_pwr_ex.c **** /**
 442:Drivers/STM32WBxx_HAL_Driver/Src/stm32wbxx_hal_pwr_ex.c ****   * @brief Enable GPIO pull-down state in Standby and Shutdown modes.
 443:Drivers/STM32WBxx_HAL_Driver/Src/stm32wbxx_hal_pwr_ex.c ****   * @note  Set the relevant PDy bits of PWR_PDCRx register to configure the I/O in 
 444:Drivers/STM32WBxx_HAL_Driver/Src/stm32wbxx_hal_pwr_ex.c ****   *        pull-down state in Standby and Shutdown modes. 
 445:Drivers/STM32WBxx_HAL_Driver/Src/stm32wbxx_hal_pwr_ex.c ****   * @note  This state is effective in Standby and Shutdown modes only if APC bit
 446:Drivers/STM32WBxx_HAL_Driver/Src/stm32wbxx_hal_pwr_ex.c ****   *        is set through HAL_PWREx_EnablePullUpPullDownConfig() API. 
 447:Drivers/STM32WBxx_HAL_Driver/Src/stm32wbxx_hal_pwr_ex.c ****   * @note  The configuration is lost when exiting the Shutdown mode due to the 
 448:Drivers/STM32WBxx_HAL_Driver/Src/stm32wbxx_hal_pwr_ex.c ****   *        power-on reset, maintained when exiting the Standby mode. 
 449:Drivers/STM32WBxx_HAL_Driver/Src/stm32wbxx_hal_pwr_ex.c ****   * @note  To avoid any conflict at Standby and Shutdown modes exits, the corresponding
 450:Drivers/STM32WBxx_HAL_Driver/Src/stm32wbxx_hal_pwr_ex.c ****   *        PUy bit of PWR_PUCRx register is cleared unless it is reserved. 
 451:Drivers/STM32WBxx_HAL_Driver/Src/stm32wbxx_hal_pwr_ex.c ****   * @note  Even if a PDy bit to set is reserved, the other PDy bits entered as input 
 452:Drivers/STM32WBxx_HAL_Driver/Src/stm32wbxx_hal_pwr_ex.c ****   *        parameter at the same time are set.         
 453:Drivers/STM32WBxx_HAL_Driver/Src/stm32wbxx_hal_pwr_ex.c ****   * @param GPIO Specify the IO port. This parameter can be PWR_GPIO_A..PWR_GPIO_H 
 454:Drivers/STM32WBxx_HAL_Driver/Src/stm32wbxx_hal_pwr_ex.c ****   *         to select the GPIO peripheral.
 455:Drivers/STM32WBxx_HAL_Driver/Src/stm32wbxx_hal_pwr_ex.c ****   * @param GPIONumber Specify the I/O pins numbers.
 456:Drivers/STM32WBxx_HAL_Driver/Src/stm32wbxx_hal_pwr_ex.c ****   *         This parameter can be one of the following values:
 457:Drivers/STM32WBxx_HAL_Driver/Src/stm32wbxx_hal_pwr_ex.c ****   *         PWR_GPIO_BIT_0, ..., PWR_GPIO_BIT_15 (except for PORTH where less  
 458:Drivers/STM32WBxx_HAL_Driver/Src/stm32wbxx_hal_pwr_ex.c ****   *         I/O pins are available) or the logical OR of several of them to set 
 459:Drivers/STM32WBxx_HAL_Driver/Src/stm32wbxx_hal_pwr_ex.c ****   *         several bits for a given port in a single API call. 
 460:Drivers/STM32WBxx_HAL_Driver/Src/stm32wbxx_hal_pwr_ex.c ****   * @retval HAL Status
 461:Drivers/STM32WBxx_HAL_Driver/Src/stm32wbxx_hal_pwr_ex.c ****   */   
 462:Drivers/STM32WBxx_HAL_Driver/Src/stm32wbxx_hal_pwr_ex.c **** HAL_StatusTypeDef HAL_PWREx_EnableGPIOPullDown(uint32_t GPIO, uint32_t GPIONumber)
 463:Drivers/STM32WBxx_HAL_Driver/Src/stm32wbxx_hal_pwr_ex.c **** {
 965              		.loc 1 463 1 is_stmt 1 view -0
 966              		.cfi_startproc
 967              		@ args = 0, pretend = 0, frame = 0
 968              		@ frame_needed = 0, uses_anonymous_args = 0
ARM GAS  /tmp/ccRrvtNP.s 			page 26


 969              		@ link register save eliminated.
 464:Drivers/STM32WBxx_HAL_Driver/Src/stm32wbxx_hal_pwr_ex.c ****   HAL_StatusTypeDef status = HAL_OK;
 970              		.loc 1 464 3 view .LVU175
 465:Drivers/STM32WBxx_HAL_Driver/Src/stm32wbxx_hal_pwr_ex.c ****   
 466:Drivers/STM32WBxx_HAL_Driver/Src/stm32wbxx_hal_pwr_ex.c ****   assert_param(IS_PWR_GPIO(GPIO));
 971              		.loc 1 466 3 view .LVU176
 467:Drivers/STM32WBxx_HAL_Driver/Src/stm32wbxx_hal_pwr_ex.c ****   assert_param(IS_PWR_GPIO_BIT_NUMBER(GPIONumber));
 972              		.loc 1 467 3 view .LVU177
 468:Drivers/STM32WBxx_HAL_Driver/Src/stm32wbxx_hal_pwr_ex.c ****   
 469:Drivers/STM32WBxx_HAL_Driver/Src/stm32wbxx_hal_pwr_ex.c ****   switch (GPIO)
 973              		.loc 1 469 3 view .LVU178
 974 0000 0728     		cmp	r0, #7
 975 0002 45D8     		bhi	.L97
 976 0004 DFE800F0 		tbb	[pc, r0]
 977              	.L91:
 978 0008 04       		.byte	(.L96-.L91)/2
 979 0009 0E       		.byte	(.L95-.L91)/2
 980 000a 18       		.byte	(.L94-.L91)/2
 981 000b 22       		.byte	(.L93-.L91)/2
 982 000c 2C       		.byte	(.L92-.L91)/2
 983 000d 44       		.byte	(.L97-.L91)/2
 984 000e 44       		.byte	(.L97-.L91)/2
 985 000f 38       		.byte	(.L90-.L91)/2
 986              		.p2align 1
 987              	.L96:
 470:Drivers/STM32WBxx_HAL_Driver/Src/stm32wbxx_hal_pwr_ex.c ****   { 
 471:Drivers/STM32WBxx_HAL_Driver/Src/stm32wbxx_hal_pwr_ex.c ****     case PWR_GPIO_A:
 472:Drivers/STM32WBxx_HAL_Driver/Src/stm32wbxx_hal_pwr_ex.c ****        SET_BIT(PWR->PDCRA, GPIONumber);
 988              		.loc 1 472 8 view .LVU179
 989 0010 204B     		ldr	r3, .L98
 990 0012 5A6A     		ldr	r2, [r3, #36]
 991 0014 0A43     		orrs	r2, r2, r1
 992 0016 5A62     		str	r2, [r3, #36]
 473:Drivers/STM32WBxx_HAL_Driver/Src/stm32wbxx_hal_pwr_ex.c ****        CLEAR_BIT(PWR->PUCRA, GPIONumber);
 993              		.loc 1 473 8 view .LVU180
 994 0018 1A6A     		ldr	r2, [r3, #32]
 995 001a 22EA0101 		bic	r1, r2, r1
 996              	.LVL55:
 997              		.loc 1 473 8 is_stmt 0 view .LVU181
 998 001e 1962     		str	r1, [r3, #32]
 474:Drivers/STM32WBxx_HAL_Driver/Src/stm32wbxx_hal_pwr_ex.c ****        break;
 999              		.loc 1 474 8 is_stmt 1 view .LVU182
 464:Drivers/STM32WBxx_HAL_Driver/Src/stm32wbxx_hal_pwr_ex.c ****   
 1000              		.loc 1 464 21 is_stmt 0 view .LVU183
 1001 0020 0020     		movs	r0, #0
 1002              	.LVL56:
 1003              		.loc 1 474 8 view .LVU184
 1004 0022 7047     		bx	lr
 1005              	.LVL57:
 1006              	.L95:
 475:Drivers/STM32WBxx_HAL_Driver/Src/stm32wbxx_hal_pwr_ex.c ****     case PWR_GPIO_B:
 476:Drivers/STM32WBxx_HAL_Driver/Src/stm32wbxx_hal_pwr_ex.c ****        SET_BIT(PWR->PDCRB, GPIONumber);
 1007              		.loc 1 476 8 is_stmt 1 view .LVU185
 1008 0024 1B4B     		ldr	r3, .L98
 1009 0026 DA6A     		ldr	r2, [r3, #44]
 1010 0028 0A43     		orrs	r2, r2, r1
 1011 002a DA62     		str	r2, [r3, #44]
ARM GAS  /tmp/ccRrvtNP.s 			page 27


 477:Drivers/STM32WBxx_HAL_Driver/Src/stm32wbxx_hal_pwr_ex.c ****        CLEAR_BIT(PWR->PUCRB, GPIONumber);
 1012              		.loc 1 477 8 view .LVU186
 1013 002c 9A6A     		ldr	r2, [r3, #40]
 1014 002e 22EA0101 		bic	r1, r2, r1
 1015              	.LVL58:
 1016              		.loc 1 477 8 is_stmt 0 view .LVU187
 1017 0032 9962     		str	r1, [r3, #40]
 478:Drivers/STM32WBxx_HAL_Driver/Src/stm32wbxx_hal_pwr_ex.c ****        break; 
 1018              		.loc 1 478 8 is_stmt 1 view .LVU188
 464:Drivers/STM32WBxx_HAL_Driver/Src/stm32wbxx_hal_pwr_ex.c ****   
 1019              		.loc 1 464 21 is_stmt 0 view .LVU189
 1020 0034 0020     		movs	r0, #0
 1021              	.LVL59:
 1022              		.loc 1 478 8 view .LVU190
 1023 0036 7047     		bx	lr
 1024              	.LVL60:
 1025              	.L94:
 479:Drivers/STM32WBxx_HAL_Driver/Src/stm32wbxx_hal_pwr_ex.c ****     case PWR_GPIO_C:
 480:Drivers/STM32WBxx_HAL_Driver/Src/stm32wbxx_hal_pwr_ex.c ****        SET_BIT(PWR->PDCRC, GPIONumber);
 1026              		.loc 1 480 8 is_stmt 1 view .LVU191
 1027 0038 164B     		ldr	r3, .L98
 1028 003a 5A6B     		ldr	r2, [r3, #52]
 1029 003c 0A43     		orrs	r2, r2, r1
 1030 003e 5A63     		str	r2, [r3, #52]
 481:Drivers/STM32WBxx_HAL_Driver/Src/stm32wbxx_hal_pwr_ex.c ****        CLEAR_BIT(PWR->PUCRC, GPIONumber);
 1031              		.loc 1 481 8 view .LVU192
 1032 0040 1A6B     		ldr	r2, [r3, #48]
 1033 0042 22EA0101 		bic	r1, r2, r1
 1034              	.LVL61:
 1035              		.loc 1 481 8 is_stmt 0 view .LVU193
 1036 0046 1963     		str	r1, [r3, #48]
 482:Drivers/STM32WBxx_HAL_Driver/Src/stm32wbxx_hal_pwr_ex.c ****        break;
 1037              		.loc 1 482 8 is_stmt 1 view .LVU194
 464:Drivers/STM32WBxx_HAL_Driver/Src/stm32wbxx_hal_pwr_ex.c ****   
 1038              		.loc 1 464 21 is_stmt 0 view .LVU195
 1039 0048 0020     		movs	r0, #0
 1040              	.LVL62:
 1041              		.loc 1 482 8 view .LVU196
 1042 004a 7047     		bx	lr
 1043              	.LVL63:
 1044              	.L93:
 483:Drivers/STM32WBxx_HAL_Driver/Src/stm32wbxx_hal_pwr_ex.c **** #if defined(GPIOD)
 484:Drivers/STM32WBxx_HAL_Driver/Src/stm32wbxx_hal_pwr_ex.c ****   case PWR_GPIO_D:
 485:Drivers/STM32WBxx_HAL_Driver/Src/stm32wbxx_hal_pwr_ex.c ****        SET_BIT(PWR->PDCRD, GPIONumber);
 1045              		.loc 1 485 8 is_stmt 1 view .LVU197
 1046 004c 114B     		ldr	r3, .L98
 1047 004e DA6B     		ldr	r2, [r3, #60]
 1048 0050 0A43     		orrs	r2, r2, r1
 1049 0052 DA63     		str	r2, [r3, #60]
 486:Drivers/STM32WBxx_HAL_Driver/Src/stm32wbxx_hal_pwr_ex.c ****        CLEAR_BIT(PWR->PUCRD, GPIONumber);
 1050              		.loc 1 486 8 view .LVU198
 1051 0054 9A6B     		ldr	r2, [r3, #56]
 1052 0056 22EA0101 		bic	r1, r2, r1
 1053              	.LVL64:
 1054              		.loc 1 486 8 is_stmt 0 view .LVU199
 1055 005a 9963     		str	r1, [r3, #56]
 487:Drivers/STM32WBxx_HAL_Driver/Src/stm32wbxx_hal_pwr_ex.c ****        break;
ARM GAS  /tmp/ccRrvtNP.s 			page 28


 1056              		.loc 1 487 8 is_stmt 1 view .LVU200
 464:Drivers/STM32WBxx_HAL_Driver/Src/stm32wbxx_hal_pwr_ex.c ****   
 1057              		.loc 1 464 21 is_stmt 0 view .LVU201
 1058 005c 0020     		movs	r0, #0
 1059              	.LVL65:
 1060              		.loc 1 487 8 view .LVU202
 1061 005e 7047     		bx	lr
 1062              	.LVL66:
 1063              	.L92:
 488:Drivers/STM32WBxx_HAL_Driver/Src/stm32wbxx_hal_pwr_ex.c **** #endif
 489:Drivers/STM32WBxx_HAL_Driver/Src/stm32wbxx_hal_pwr_ex.c ****     case PWR_GPIO_E:
 490:Drivers/STM32WBxx_HAL_Driver/Src/stm32wbxx_hal_pwr_ex.c ****        SET_BIT(PWR->PDCRE, (GPIONumber & PWR_PORTE_AVAILABLE_PINS));
 1064              		.loc 1 490 8 is_stmt 1 view .LVU203
 1065 0060 0C4B     		ldr	r3, .L98
 1066 0062 5A6C     		ldr	r2, [r3, #68]
 1067 0064 01F01F01 		and	r1, r1, #31
 1068              	.LVL67:
 1069              		.loc 1 490 8 is_stmt 0 view .LVU204
 1070 0068 0A43     		orrs	r2, r2, r1
 1071 006a 5A64     		str	r2, [r3, #68]
 491:Drivers/STM32WBxx_HAL_Driver/Src/stm32wbxx_hal_pwr_ex.c ****        CLEAR_BIT(PWR->PUCRE, (GPIONumber & PWR_PORTE_AVAILABLE_PINS));
 1072              		.loc 1 491 8 is_stmt 1 view .LVU205
 1073 006c 1A6C     		ldr	r2, [r3, #64]
 1074 006e 22EA0101 		bic	r1, r2, r1
 1075 0072 1964     		str	r1, [r3, #64]
 492:Drivers/STM32WBxx_HAL_Driver/Src/stm32wbxx_hal_pwr_ex.c ****        break;
 1076              		.loc 1 492 8 view .LVU206
 464:Drivers/STM32WBxx_HAL_Driver/Src/stm32wbxx_hal_pwr_ex.c ****   
 1077              		.loc 1 464 21 is_stmt 0 view .LVU207
 1078 0074 0020     		movs	r0, #0
 1079              	.LVL68:
 1080              		.loc 1 492 8 view .LVU208
 1081 0076 7047     		bx	lr
 1082              	.LVL69:
 1083              	.L90:
 493:Drivers/STM32WBxx_HAL_Driver/Src/stm32wbxx_hal_pwr_ex.c ****     case PWR_GPIO_H:
 494:Drivers/STM32WBxx_HAL_Driver/Src/stm32wbxx_hal_pwr_ex.c ****        SET_BIT(PWR->PDCRH, (GPIONumber & PWR_PORTH_AVAILABLE_PINS));
 1084              		.loc 1 494 8 is_stmt 1 view .LVU209
 1085 0078 064B     		ldr	r3, .L98
 1086 007a DA6D     		ldr	r2, [r3, #92]
 1087 007c 01F00B01 		and	r1, r1, #11
 1088              	.LVL70:
 1089              		.loc 1 494 8 is_stmt 0 view .LVU210
 1090 0080 0A43     		orrs	r2, r2, r1
 1091 0082 DA65     		str	r2, [r3, #92]
 495:Drivers/STM32WBxx_HAL_Driver/Src/stm32wbxx_hal_pwr_ex.c ****        CLEAR_BIT(PWR->PUCRH, (GPIONumber & PWR_PORTH_AVAILABLE_PINS));
 1092              		.loc 1 495 8 is_stmt 1 view .LVU211
 1093 0084 9A6D     		ldr	r2, [r3, #88]
 1094 0086 22EA0101 		bic	r1, r2, r1
 1095 008a 9965     		str	r1, [r3, #88]
 496:Drivers/STM32WBxx_HAL_Driver/Src/stm32wbxx_hal_pwr_ex.c ****        break;
 1096              		.loc 1 496 8 view .LVU212
 464:Drivers/STM32WBxx_HAL_Driver/Src/stm32wbxx_hal_pwr_ex.c ****   
 1097              		.loc 1 464 21 is_stmt 0 view .LVU213
 1098 008c 0020     		movs	r0, #0
 1099              	.LVL71:
 1100              		.loc 1 496 8 view .LVU214
ARM GAS  /tmp/ccRrvtNP.s 			page 29


 1101 008e 7047     		bx	lr
 1102              	.LVL72:
 1103              	.L97:
 464:Drivers/STM32WBxx_HAL_Driver/Src/stm32wbxx_hal_pwr_ex.c ****   
 1104              		.loc 1 464 21 view .LVU215
 1105 0090 0120     		movs	r0, #1
 1106              	.LVL73:
 497:Drivers/STM32WBxx_HAL_Driver/Src/stm32wbxx_hal_pwr_ex.c ****     default:
 498:Drivers/STM32WBxx_HAL_Driver/Src/stm32wbxx_hal_pwr_ex.c ****       status = HAL_ERROR;
 499:Drivers/STM32WBxx_HAL_Driver/Src/stm32wbxx_hal_pwr_ex.c ****       break;
 500:Drivers/STM32WBxx_HAL_Driver/Src/stm32wbxx_hal_pwr_ex.c ****   }
 501:Drivers/STM32WBxx_HAL_Driver/Src/stm32wbxx_hal_pwr_ex.c ****        
 502:Drivers/STM32WBxx_HAL_Driver/Src/stm32wbxx_hal_pwr_ex.c ****   return status;
 1107              		.loc 1 502 3 is_stmt 1 view .LVU216
 503:Drivers/STM32WBxx_HAL_Driver/Src/stm32wbxx_hal_pwr_ex.c **** }
 1108              		.loc 1 503 1 is_stmt 0 view .LVU217
 1109 0092 7047     		bx	lr
 1110              	.L99:
 1111              		.align	2
 1112              	.L98:
 1113 0094 00040058 		.word	1476396032
 1114              		.cfi_endproc
 1115              	.LFE961:
 1117              		.section	.text.HAL_PWREx_DisableGPIOPullDown,"ax",%progbits
 1118              		.align	1
 1119              		.global	HAL_PWREx_DisableGPIOPullDown
 1120              		.syntax unified
 1121              		.thumb
 1122              		.thumb_func
 1123              		.fpu fpv4-sp-d16
 1125              	HAL_PWREx_DisableGPIOPullDown:
 1126              	.LVL74:
 1127              	.LFB962:
 504:Drivers/STM32WBxx_HAL_Driver/Src/stm32wbxx_hal_pwr_ex.c **** 
 505:Drivers/STM32WBxx_HAL_Driver/Src/stm32wbxx_hal_pwr_ex.c **** /**
 506:Drivers/STM32WBxx_HAL_Driver/Src/stm32wbxx_hal_pwr_ex.c ****   * @brief Disable GPIO pull-down state in Standby and Shutdown modes.
 507:Drivers/STM32WBxx_HAL_Driver/Src/stm32wbxx_hal_pwr_ex.c ****   * @note  Reset the relevant PDy bits of PWR_PDCRx register used to configure the I/O
 508:Drivers/STM32WBxx_HAL_Driver/Src/stm32wbxx_hal_pwr_ex.c ****   *        in pull-down state in Standby and Shutdown modes. 
 509:Drivers/STM32WBxx_HAL_Driver/Src/stm32wbxx_hal_pwr_ex.c ****   * @note  Even if a PDy bit to reset is reserved, the other PDy bits entered as input 
 510:Drivers/STM32WBxx_HAL_Driver/Src/stm32wbxx_hal_pwr_ex.c ****   *        parameter at the same time are reset.
 511:Drivers/STM32WBxx_HAL_Driver/Src/stm32wbxx_hal_pwr_ex.c ****   * @param GPIO Specifies the IO port. This parameter can be PWR_GPIO_A..PWR_GPIO_H 
 512:Drivers/STM32WBxx_HAL_Driver/Src/stm32wbxx_hal_pwr_ex.c ****   *         to select the GPIO peripheral.
 513:Drivers/STM32WBxx_HAL_Driver/Src/stm32wbxx_hal_pwr_ex.c ****   * @param GPIONumber Specify the I/O pins numbers.
 514:Drivers/STM32WBxx_HAL_Driver/Src/stm32wbxx_hal_pwr_ex.c ****   *         This parameter can be one of the following values:
 515:Drivers/STM32WBxx_HAL_Driver/Src/stm32wbxx_hal_pwr_ex.c ****   *         PWR_GPIO_BIT_0, ..., PWR_GPIO_BIT_15 (except for PORTH where less
 516:Drivers/STM32WBxx_HAL_Driver/Src/stm32wbxx_hal_pwr_ex.c ****   *         I/O pins are available) or the logical OR of several of them to reset
 517:Drivers/STM32WBxx_HAL_Driver/Src/stm32wbxx_hal_pwr_ex.c ****   *         several bits for a given port in a single API call.
 518:Drivers/STM32WBxx_HAL_Driver/Src/stm32wbxx_hal_pwr_ex.c ****   * @retval HAL Status
 519:Drivers/STM32WBxx_HAL_Driver/Src/stm32wbxx_hal_pwr_ex.c ****   */   
 520:Drivers/STM32WBxx_HAL_Driver/Src/stm32wbxx_hal_pwr_ex.c **** HAL_StatusTypeDef HAL_PWREx_DisableGPIOPullDown(uint32_t GPIO, uint32_t GPIONumber)
 521:Drivers/STM32WBxx_HAL_Driver/Src/stm32wbxx_hal_pwr_ex.c **** {
 1128              		.loc 1 521 1 is_stmt 1 view -0
 1129              		.cfi_startproc
 1130              		@ args = 0, pretend = 0, frame = 0
 1131              		@ frame_needed = 0, uses_anonymous_args = 0
 1132              		@ link register save eliminated.
 522:Drivers/STM32WBxx_HAL_Driver/Src/stm32wbxx_hal_pwr_ex.c ****   HAL_StatusTypeDef status = HAL_OK;
ARM GAS  /tmp/ccRrvtNP.s 			page 30


 1133              		.loc 1 522 3 view .LVU219
 523:Drivers/STM32WBxx_HAL_Driver/Src/stm32wbxx_hal_pwr_ex.c ****   
 524:Drivers/STM32WBxx_HAL_Driver/Src/stm32wbxx_hal_pwr_ex.c ****   assert_param(IS_PWR_GPIO(GPIO));
 1134              		.loc 1 524 3 view .LVU220
 525:Drivers/STM32WBxx_HAL_Driver/Src/stm32wbxx_hal_pwr_ex.c ****   assert_param(IS_PWR_GPIO_BIT_NUMBER(GPIONumber));
 1135              		.loc 1 525 3 view .LVU221
 526:Drivers/STM32WBxx_HAL_Driver/Src/stm32wbxx_hal_pwr_ex.c ****    
 527:Drivers/STM32WBxx_HAL_Driver/Src/stm32wbxx_hal_pwr_ex.c ****   switch (GPIO)
 1136              		.loc 1 527 3 view .LVU222
 1137 0000 0728     		cmp	r0, #7
 1138 0002 33D8     		bhi	.L109
 1139 0004 DFE800F0 		tbb	[pc, r0]
 1140              	.L103:
 1141 0008 04       		.byte	(.L108-.L103)/2
 1142 0009 0B       		.byte	(.L107-.L103)/2
 1143 000a 12       		.byte	(.L106-.L103)/2
 1144 000b 19       		.byte	(.L105-.L103)/2
 1145 000c 20       		.byte	(.L104-.L103)/2
 1146 000d 32       		.byte	(.L109-.L103)/2
 1147 000e 32       		.byte	(.L109-.L103)/2
 1148 000f 29       		.byte	(.L102-.L103)/2
 1149              		.p2align 1
 1150              	.L108:
 528:Drivers/STM32WBxx_HAL_Driver/Src/stm32wbxx_hal_pwr_ex.c ****   {
 529:Drivers/STM32WBxx_HAL_Driver/Src/stm32wbxx_hal_pwr_ex.c ****     case PWR_GPIO_A:
 530:Drivers/STM32WBxx_HAL_Driver/Src/stm32wbxx_hal_pwr_ex.c ****        CLEAR_BIT(PWR->PDCRA, GPIONumber);
 1151              		.loc 1 530 8 view .LVU223
 1152 0010 174A     		ldr	r2, .L110
 1153 0012 536A     		ldr	r3, [r2, #36]
 1154 0014 23EA0101 		bic	r1, r3, r1
 1155              	.LVL75:
 1156              		.loc 1 530 8 is_stmt 0 view .LVU224
 1157 0018 5162     		str	r1, [r2, #36]
 531:Drivers/STM32WBxx_HAL_Driver/Src/stm32wbxx_hal_pwr_ex.c ****        break;
 1158              		.loc 1 531 8 is_stmt 1 view .LVU225
 522:Drivers/STM32WBxx_HAL_Driver/Src/stm32wbxx_hal_pwr_ex.c ****   
 1159              		.loc 1 522 21 is_stmt 0 view .LVU226
 1160 001a 0020     		movs	r0, #0
 1161              	.LVL76:
 1162              		.loc 1 531 8 view .LVU227
 1163 001c 7047     		bx	lr
 1164              	.LVL77:
 1165              	.L107:
 532:Drivers/STM32WBxx_HAL_Driver/Src/stm32wbxx_hal_pwr_ex.c ****     case PWR_GPIO_B:
 533:Drivers/STM32WBxx_HAL_Driver/Src/stm32wbxx_hal_pwr_ex.c ****        CLEAR_BIT(PWR->PDCRB, GPIONumber);
 1166              		.loc 1 533 8 is_stmt 1 view .LVU228
 1167 001e 144A     		ldr	r2, .L110
 1168 0020 D36A     		ldr	r3, [r2, #44]
 1169 0022 23EA0101 		bic	r1, r3, r1
 1170              	.LVL78:
 1171              		.loc 1 533 8 is_stmt 0 view .LVU229
 1172 0026 D162     		str	r1, [r2, #44]
 534:Drivers/STM32WBxx_HAL_Driver/Src/stm32wbxx_hal_pwr_ex.c ****        break; 
 1173              		.loc 1 534 8 is_stmt 1 view .LVU230
 522:Drivers/STM32WBxx_HAL_Driver/Src/stm32wbxx_hal_pwr_ex.c ****   
 1174              		.loc 1 522 21 is_stmt 0 view .LVU231
 1175 0028 0020     		movs	r0, #0
ARM GAS  /tmp/ccRrvtNP.s 			page 31


 1176              	.LVL79:
 1177              		.loc 1 534 8 view .LVU232
 1178 002a 7047     		bx	lr
 1179              	.LVL80:
 1180              	.L106:
 535:Drivers/STM32WBxx_HAL_Driver/Src/stm32wbxx_hal_pwr_ex.c ****     case PWR_GPIO_C:
 536:Drivers/STM32WBxx_HAL_Driver/Src/stm32wbxx_hal_pwr_ex.c ****        CLEAR_BIT(PWR->PDCRC, GPIONumber);
 1181              		.loc 1 536 8 is_stmt 1 view .LVU233
 1182 002c 104A     		ldr	r2, .L110
 1183 002e 536B     		ldr	r3, [r2, #52]
 1184 0030 23EA0101 		bic	r1, r3, r1
 1185              	.LVL81:
 1186              		.loc 1 536 8 is_stmt 0 view .LVU234
 1187 0034 5163     		str	r1, [r2, #52]
 537:Drivers/STM32WBxx_HAL_Driver/Src/stm32wbxx_hal_pwr_ex.c ****        break; 
 1188              		.loc 1 537 8 is_stmt 1 view .LVU235
 522:Drivers/STM32WBxx_HAL_Driver/Src/stm32wbxx_hal_pwr_ex.c ****   
 1189              		.loc 1 522 21 is_stmt 0 view .LVU236
 1190 0036 0020     		movs	r0, #0
 1191              	.LVL82:
 1192              		.loc 1 537 8 view .LVU237
 1193 0038 7047     		bx	lr
 1194              	.LVL83:
 1195              	.L105:
 538:Drivers/STM32WBxx_HAL_Driver/Src/stm32wbxx_hal_pwr_ex.c **** #if defined(GPIOD)
 539:Drivers/STM32WBxx_HAL_Driver/Src/stm32wbxx_hal_pwr_ex.c ****     case PWR_GPIO_D:
 540:Drivers/STM32WBxx_HAL_Driver/Src/stm32wbxx_hal_pwr_ex.c ****        CLEAR_BIT(PWR->PDCRD, GPIONumber);
 1196              		.loc 1 540 8 is_stmt 1 view .LVU238
 1197 003a 0D4A     		ldr	r2, .L110
 1198 003c D36B     		ldr	r3, [r2, #60]
 1199 003e 23EA0101 		bic	r1, r3, r1
 1200              	.LVL84:
 1201              		.loc 1 540 8 is_stmt 0 view .LVU239
 1202 0042 D163     		str	r1, [r2, #60]
 541:Drivers/STM32WBxx_HAL_Driver/Src/stm32wbxx_hal_pwr_ex.c ****        break;
 1203              		.loc 1 541 8 is_stmt 1 view .LVU240
 522:Drivers/STM32WBxx_HAL_Driver/Src/stm32wbxx_hal_pwr_ex.c ****   
 1204              		.loc 1 522 21 is_stmt 0 view .LVU241
 1205 0044 0020     		movs	r0, #0
 1206              	.LVL85:
 1207              		.loc 1 541 8 view .LVU242
 1208 0046 7047     		bx	lr
 1209              	.LVL86:
 1210              	.L104:
 542:Drivers/STM32WBxx_HAL_Driver/Src/stm32wbxx_hal_pwr_ex.c **** #endif
 543:Drivers/STM32WBxx_HAL_Driver/Src/stm32wbxx_hal_pwr_ex.c ****     case PWR_GPIO_E:
 544:Drivers/STM32WBxx_HAL_Driver/Src/stm32wbxx_hal_pwr_ex.c ****        CLEAR_BIT(PWR->PDCRE, (GPIONumber & PWR_PORTE_AVAILABLE_PINS));
 1211              		.loc 1 544 8 is_stmt 1 view .LVU243
 1212 0048 094A     		ldr	r2, .L110
 1213 004a 536C     		ldr	r3, [r2, #68]
 1214 004c 01F01F01 		and	r1, r1, #31
 1215              	.LVL87:
 1216              		.loc 1 544 8 is_stmt 0 view .LVU244
 1217 0050 23EA0101 		bic	r1, r3, r1
 1218 0054 5164     		str	r1, [r2, #68]
 545:Drivers/STM32WBxx_HAL_Driver/Src/stm32wbxx_hal_pwr_ex.c ****        break;
 1219              		.loc 1 545 8 is_stmt 1 view .LVU245
ARM GAS  /tmp/ccRrvtNP.s 			page 32


 522:Drivers/STM32WBxx_HAL_Driver/Src/stm32wbxx_hal_pwr_ex.c ****   
 1220              		.loc 1 522 21 is_stmt 0 view .LVU246
 1221 0056 0020     		movs	r0, #0
 1222              	.LVL88:
 1223              		.loc 1 545 8 view .LVU247
 1224 0058 7047     		bx	lr
 1225              	.LVL89:
 1226              	.L102:
 546:Drivers/STM32WBxx_HAL_Driver/Src/stm32wbxx_hal_pwr_ex.c ****     case PWR_GPIO_H:
 547:Drivers/STM32WBxx_HAL_Driver/Src/stm32wbxx_hal_pwr_ex.c ****       CLEAR_BIT(PWR->PDCRH, (GPIONumber & PWR_PORTH_AVAILABLE_PINS));
 1227              		.loc 1 547 7 is_stmt 1 view .LVU248
 1228 005a 054A     		ldr	r2, .L110
 1229 005c D36D     		ldr	r3, [r2, #92]
 1230 005e 01F00B01 		and	r1, r1, #11
 1231              	.LVL90:
 1232              		.loc 1 547 7 is_stmt 0 view .LVU249
 1233 0062 23EA0101 		bic	r1, r3, r1
 1234 0066 D165     		str	r1, [r2, #92]
 548:Drivers/STM32WBxx_HAL_Driver/Src/stm32wbxx_hal_pwr_ex.c ****        break;
 1235              		.loc 1 548 8 is_stmt 1 view .LVU250
 522:Drivers/STM32WBxx_HAL_Driver/Src/stm32wbxx_hal_pwr_ex.c ****   
 1236              		.loc 1 522 21 is_stmt 0 view .LVU251
 1237 0068 0020     		movs	r0, #0
 1238              	.LVL91:
 1239              		.loc 1 548 8 view .LVU252
 1240 006a 7047     		bx	lr
 1241              	.LVL92:
 1242              	.L109:
 522:Drivers/STM32WBxx_HAL_Driver/Src/stm32wbxx_hal_pwr_ex.c ****   
 1243              		.loc 1 522 21 view .LVU253
 1244 006c 0120     		movs	r0, #1
 1245              	.LVL93:
 549:Drivers/STM32WBxx_HAL_Driver/Src/stm32wbxx_hal_pwr_ex.c ****     default:
 550:Drivers/STM32WBxx_HAL_Driver/Src/stm32wbxx_hal_pwr_ex.c ****       status = HAL_ERROR;
 551:Drivers/STM32WBxx_HAL_Driver/Src/stm32wbxx_hal_pwr_ex.c ****       break;
 552:Drivers/STM32WBxx_HAL_Driver/Src/stm32wbxx_hal_pwr_ex.c ****   }
 553:Drivers/STM32WBxx_HAL_Driver/Src/stm32wbxx_hal_pwr_ex.c ****   
 554:Drivers/STM32WBxx_HAL_Driver/Src/stm32wbxx_hal_pwr_ex.c ****   return status;
 1246              		.loc 1 554 3 is_stmt 1 view .LVU254
 555:Drivers/STM32WBxx_HAL_Driver/Src/stm32wbxx_hal_pwr_ex.c **** }
 1247              		.loc 1 555 1 is_stmt 0 view .LVU255
 1248 006e 7047     		bx	lr
 1249              	.L111:
 1250              		.align	2
 1251              	.L110:
 1252 0070 00040058 		.word	1476396032
 1253              		.cfi_endproc
 1254              	.LFE962:
 1256              		.section	.text.HAL_PWREx_EnablePullUpPullDownConfig,"ax",%progbits
 1257              		.align	1
 1258              		.global	HAL_PWREx_EnablePullUpPullDownConfig
 1259              		.syntax unified
 1260              		.thumb
 1261              		.thumb_func
 1262              		.fpu fpv4-sp-d16
 1264              	HAL_PWREx_EnablePullUpPullDownConfig:
 1265              	.LFB963:
ARM GAS  /tmp/ccRrvtNP.s 			page 33


 556:Drivers/STM32WBxx_HAL_Driver/Src/stm32wbxx_hal_pwr_ex.c **** 
 557:Drivers/STM32WBxx_HAL_Driver/Src/stm32wbxx_hal_pwr_ex.c **** /**
 558:Drivers/STM32WBxx_HAL_Driver/Src/stm32wbxx_hal_pwr_ex.c ****   * @brief Enable pull-up and pull-down configuration.
 559:Drivers/STM32WBxx_HAL_Driver/Src/stm32wbxx_hal_pwr_ex.c ****   * @note  When APC bit is set, the I/O pull-up and pull-down configurations defined in 
 560:Drivers/STM32WBxx_HAL_Driver/Src/stm32wbxx_hal_pwr_ex.c ****   *        PWR_PUCRx and PWR_PDCRx registers are applied in Standby and Shutdown modes.    
 561:Drivers/STM32WBxx_HAL_Driver/Src/stm32wbxx_hal_pwr_ex.c ****   * @note  Pull-up set by PUy bit of PWR_PUCRx register is not activated if the corresponding
 562:Drivers/STM32WBxx_HAL_Driver/Src/stm32wbxx_hal_pwr_ex.c ****   *        PDy bit of PWR_PDCRx register is also set (pull-down configuration priority is higher). 
 563:Drivers/STM32WBxx_HAL_Driver/Src/stm32wbxx_hal_pwr_ex.c ****   *        HAL_PWREx_EnableGPIOPullUp() and HAL_PWREx_EnableGPIOPullDown() API's ensure there 
 564:Drivers/STM32WBxx_HAL_Driver/Src/stm32wbxx_hal_pwr_ex.c ****   *        is no conflict when setting PUy or PDy bit.
 565:Drivers/STM32WBxx_HAL_Driver/Src/stm32wbxx_hal_pwr_ex.c ****   * @retval None
 566:Drivers/STM32WBxx_HAL_Driver/Src/stm32wbxx_hal_pwr_ex.c ****   */
 567:Drivers/STM32WBxx_HAL_Driver/Src/stm32wbxx_hal_pwr_ex.c **** void HAL_PWREx_EnablePullUpPullDownConfig(void)
 568:Drivers/STM32WBxx_HAL_Driver/Src/stm32wbxx_hal_pwr_ex.c **** {
 1266              		.loc 1 568 1 is_stmt 1 view -0
 1267              		.cfi_startproc
 1268              		@ args = 0, pretend = 0, frame = 0
 1269              		@ frame_needed = 0, uses_anonymous_args = 0
 1270              		@ link register save eliminated.
 569:Drivers/STM32WBxx_HAL_Driver/Src/stm32wbxx_hal_pwr_ex.c ****   SET_BIT(PWR->CR3, PWR_CR3_APC);
 1271              		.loc 1 569 3 view .LVU257
 1272 0000 024A     		ldr	r2, .L113
 1273 0002 9368     		ldr	r3, [r2, #8]
 1274 0004 43F48063 		orr	r3, r3, #1024
 1275 0008 9360     		str	r3, [r2, #8]
 570:Drivers/STM32WBxx_HAL_Driver/Src/stm32wbxx_hal_pwr_ex.c **** }
 1276              		.loc 1 570 1 is_stmt 0 view .LVU258
 1277 000a 7047     		bx	lr
 1278              	.L114:
 1279              		.align	2
 1280              	.L113:
 1281 000c 00040058 		.word	1476396032
 1282              		.cfi_endproc
 1283              	.LFE963:
 1285              		.section	.text.HAL_PWREx_DisablePullUpPullDownConfig,"ax",%progbits
 1286              		.align	1
 1287              		.global	HAL_PWREx_DisablePullUpPullDownConfig
 1288              		.syntax unified
 1289              		.thumb
 1290              		.thumb_func
 1291              		.fpu fpv4-sp-d16
 1293              	HAL_PWREx_DisablePullUpPullDownConfig:
 1294              	.LFB964:
 571:Drivers/STM32WBxx_HAL_Driver/Src/stm32wbxx_hal_pwr_ex.c **** 
 572:Drivers/STM32WBxx_HAL_Driver/Src/stm32wbxx_hal_pwr_ex.c **** /**
 573:Drivers/STM32WBxx_HAL_Driver/Src/stm32wbxx_hal_pwr_ex.c ****   * @brief Disable pull-up and pull-down configuration.
 574:Drivers/STM32WBxx_HAL_Driver/Src/stm32wbxx_hal_pwr_ex.c ****   * @note  When APC bit is cleared, the I/O pull-up and pull-down configurations defined in 
 575:Drivers/STM32WBxx_HAL_Driver/Src/stm32wbxx_hal_pwr_ex.c ****   *        PWR_PUCRx and PWR_PDCRx registers are not applied in Standby and Shutdown modes.     
 576:Drivers/STM32WBxx_HAL_Driver/Src/stm32wbxx_hal_pwr_ex.c ****   * @retval None
 577:Drivers/STM32WBxx_HAL_Driver/Src/stm32wbxx_hal_pwr_ex.c ****   */
 578:Drivers/STM32WBxx_HAL_Driver/Src/stm32wbxx_hal_pwr_ex.c **** void HAL_PWREx_DisablePullUpPullDownConfig(void)
 579:Drivers/STM32WBxx_HAL_Driver/Src/stm32wbxx_hal_pwr_ex.c **** {
 1295              		.loc 1 579 1 is_stmt 1 view -0
 1296              		.cfi_startproc
 1297              		@ args = 0, pretend = 0, frame = 0
 1298              		@ frame_needed = 0, uses_anonymous_args = 0
 1299              		@ link register save eliminated.
 580:Drivers/STM32WBxx_HAL_Driver/Src/stm32wbxx_hal_pwr_ex.c ****   CLEAR_BIT(PWR->CR3, PWR_CR3_APC);
ARM GAS  /tmp/ccRrvtNP.s 			page 34


 1300              		.loc 1 580 3 view .LVU260
 1301 0000 024A     		ldr	r2, .L116
 1302 0002 9368     		ldr	r3, [r2, #8]
 1303 0004 23F48063 		bic	r3, r3, #1024
 1304 0008 9360     		str	r3, [r2, #8]
 581:Drivers/STM32WBxx_HAL_Driver/Src/stm32wbxx_hal_pwr_ex.c **** }
 1305              		.loc 1 581 1 is_stmt 0 view .LVU261
 1306 000a 7047     		bx	lr
 1307              	.L117:
 1308              		.align	2
 1309              	.L116:
 1310 000c 00040058 		.word	1476396032
 1311              		.cfi_endproc
 1312              	.LFE964:
 1314              		.section	.text.HAL_PWREx_SetBORConfig,"ax",%progbits
 1315              		.align	1
 1316              		.global	HAL_PWREx_SetBORConfig
 1317              		.syntax unified
 1318              		.thumb
 1319              		.thumb_func
 1320              		.fpu fpv4-sp-d16
 1322              	HAL_PWREx_SetBORConfig:
 1323              	.LVL94:
 1324              	.LFB965:
 582:Drivers/STM32WBxx_HAL_Driver/Src/stm32wbxx_hal_pwr_ex.c **** 
 583:Drivers/STM32WBxx_HAL_Driver/Src/stm32wbxx_hal_pwr_ex.c **** /****************************************************************************/
 584:Drivers/STM32WBxx_HAL_Driver/Src/stm32wbxx_hal_pwr_ex.c **** 
 585:Drivers/STM32WBxx_HAL_Driver/Src/stm32wbxx_hal_pwr_ex.c **** #if defined(PWR_CR5_SMPSEN)
 586:Drivers/STM32WBxx_HAL_Driver/Src/stm32wbxx_hal_pwr_ex.c **** /**
 587:Drivers/STM32WBxx_HAL_Driver/Src/stm32wbxx_hal_pwr_ex.c ****   * @brief  Set BOR configuration
 588:Drivers/STM32WBxx_HAL_Driver/Src/stm32wbxx_hal_pwr_ex.c ****   * @param  BORConfiguration This parameter can be one of the following values:
 589:Drivers/STM32WBxx_HAL_Driver/Src/stm32wbxx_hal_pwr_ex.c ****   *         @arg @ref PWR_BOR_SYSTEM_RESET
 590:Drivers/STM32WBxx_HAL_Driver/Src/stm32wbxx_hal_pwr_ex.c ****   *         @arg @ref PWR_BOR_SMPS_FORCE_BYPASS
 591:Drivers/STM32WBxx_HAL_Driver/Src/stm32wbxx_hal_pwr_ex.c ****   */
 592:Drivers/STM32WBxx_HAL_Driver/Src/stm32wbxx_hal_pwr_ex.c **** void HAL_PWREx_SetBORConfig(uint32_t BORConfiguration)
 593:Drivers/STM32WBxx_HAL_Driver/Src/stm32wbxx_hal_pwr_ex.c **** {
 1325              		.loc 1 593 1 is_stmt 1 view -0
 1326              		.cfi_startproc
 1327              		@ args = 0, pretend = 0, frame = 0
 1328              		@ frame_needed = 0, uses_anonymous_args = 0
 1329              		@ link register save eliminated.
 594:Drivers/STM32WBxx_HAL_Driver/Src/stm32wbxx_hal_pwr_ex.c ****   LL_PWR_SetBORConfig(BORConfiguration);
 1330              		.loc 1 594 3 view .LVU263
 1331              	.LBB58:
 1332              	.LBI58:
 1333              		.file 2 "Drivers/STM32WBxx_HAL_Driver/Inc/stm32wbxx_ll_pwr.h"
   1:Drivers/STM32WBxx_HAL_Driver/Inc/stm32wbxx_ll_pwr.h **** /**
   2:Drivers/STM32WBxx_HAL_Driver/Inc/stm32wbxx_ll_pwr.h ****   ******************************************************************************
   3:Drivers/STM32WBxx_HAL_Driver/Inc/stm32wbxx_ll_pwr.h ****   * @file    stm32wbxx_ll_pwr.h
   4:Drivers/STM32WBxx_HAL_Driver/Inc/stm32wbxx_ll_pwr.h ****   * @author  MCD Application Team
   5:Drivers/STM32WBxx_HAL_Driver/Inc/stm32wbxx_ll_pwr.h ****   * @brief   Header file of PWR LL module.
   6:Drivers/STM32WBxx_HAL_Driver/Inc/stm32wbxx_ll_pwr.h ****   ******************************************************************************
   7:Drivers/STM32WBxx_HAL_Driver/Inc/stm32wbxx_ll_pwr.h ****   * @attention
   8:Drivers/STM32WBxx_HAL_Driver/Inc/stm32wbxx_ll_pwr.h ****   *
   9:Drivers/STM32WBxx_HAL_Driver/Inc/stm32wbxx_ll_pwr.h ****   * <h2><center>&copy; Copyright (c) 2019 STMicroelectronics. 
  10:Drivers/STM32WBxx_HAL_Driver/Inc/stm32wbxx_ll_pwr.h ****   * All rights reserved.</center></h2>
  11:Drivers/STM32WBxx_HAL_Driver/Inc/stm32wbxx_ll_pwr.h ****   *
ARM GAS  /tmp/ccRrvtNP.s 			page 35


  12:Drivers/STM32WBxx_HAL_Driver/Inc/stm32wbxx_ll_pwr.h ****   * This software component is licensed by ST under BSD 3-Clause license,
  13:Drivers/STM32WBxx_HAL_Driver/Inc/stm32wbxx_ll_pwr.h ****   * the "License"; You may not use this file except in compliance with the 
  14:Drivers/STM32WBxx_HAL_Driver/Inc/stm32wbxx_ll_pwr.h ****   * License. You may obtain a copy of the License at:
  15:Drivers/STM32WBxx_HAL_Driver/Inc/stm32wbxx_ll_pwr.h ****   *                        opensource.org/licenses/BSD-3-Clause
  16:Drivers/STM32WBxx_HAL_Driver/Inc/stm32wbxx_ll_pwr.h ****   *
  17:Drivers/STM32WBxx_HAL_Driver/Inc/stm32wbxx_ll_pwr.h ****   ******************************************************************************
  18:Drivers/STM32WBxx_HAL_Driver/Inc/stm32wbxx_ll_pwr.h ****   */
  19:Drivers/STM32WBxx_HAL_Driver/Inc/stm32wbxx_ll_pwr.h **** 
  20:Drivers/STM32WBxx_HAL_Driver/Inc/stm32wbxx_ll_pwr.h **** /* Define to prevent recursive inclusion -------------------------------------*/
  21:Drivers/STM32WBxx_HAL_Driver/Inc/stm32wbxx_ll_pwr.h **** #ifndef STM32WBxx_LL_PWR_H
  22:Drivers/STM32WBxx_HAL_Driver/Inc/stm32wbxx_ll_pwr.h **** #define STM32WBxx_LL_PWR_H
  23:Drivers/STM32WBxx_HAL_Driver/Inc/stm32wbxx_ll_pwr.h **** 
  24:Drivers/STM32WBxx_HAL_Driver/Inc/stm32wbxx_ll_pwr.h **** #ifdef __cplusplus
  25:Drivers/STM32WBxx_HAL_Driver/Inc/stm32wbxx_ll_pwr.h **** extern "C" {
  26:Drivers/STM32WBxx_HAL_Driver/Inc/stm32wbxx_ll_pwr.h **** #endif
  27:Drivers/STM32WBxx_HAL_Driver/Inc/stm32wbxx_ll_pwr.h **** 
  28:Drivers/STM32WBxx_HAL_Driver/Inc/stm32wbxx_ll_pwr.h **** /* Includes ------------------------------------------------------------------*/
  29:Drivers/STM32WBxx_HAL_Driver/Inc/stm32wbxx_ll_pwr.h **** #include "stm32wbxx.h"
  30:Drivers/STM32WBxx_HAL_Driver/Inc/stm32wbxx_ll_pwr.h **** 
  31:Drivers/STM32WBxx_HAL_Driver/Inc/stm32wbxx_ll_pwr.h **** /** @addtogroup STM32WBxx_LL_Driver
  32:Drivers/STM32WBxx_HAL_Driver/Inc/stm32wbxx_ll_pwr.h ****   * @{
  33:Drivers/STM32WBxx_HAL_Driver/Inc/stm32wbxx_ll_pwr.h ****   */
  34:Drivers/STM32WBxx_HAL_Driver/Inc/stm32wbxx_ll_pwr.h **** 
  35:Drivers/STM32WBxx_HAL_Driver/Inc/stm32wbxx_ll_pwr.h **** #if defined(PWR)
  36:Drivers/STM32WBxx_HAL_Driver/Inc/stm32wbxx_ll_pwr.h **** 
  37:Drivers/STM32WBxx_HAL_Driver/Inc/stm32wbxx_ll_pwr.h **** /** @defgroup PWR_LL PWR
  38:Drivers/STM32WBxx_HAL_Driver/Inc/stm32wbxx_ll_pwr.h ****   * @{
  39:Drivers/STM32WBxx_HAL_Driver/Inc/stm32wbxx_ll_pwr.h ****   */
  40:Drivers/STM32WBxx_HAL_Driver/Inc/stm32wbxx_ll_pwr.h **** 
  41:Drivers/STM32WBxx_HAL_Driver/Inc/stm32wbxx_ll_pwr.h **** /* Private types -------------------------------------------------------------*/
  42:Drivers/STM32WBxx_HAL_Driver/Inc/stm32wbxx_ll_pwr.h **** /* Private variables ---------------------------------------------------------*/
  43:Drivers/STM32WBxx_HAL_Driver/Inc/stm32wbxx_ll_pwr.h **** 
  44:Drivers/STM32WBxx_HAL_Driver/Inc/stm32wbxx_ll_pwr.h **** /* Private constants ---------------------------------------------------------*/
  45:Drivers/STM32WBxx_HAL_Driver/Inc/stm32wbxx_ll_pwr.h **** /** @defgroup PWR_LL_Private_Constants PWR Private Constants
  46:Drivers/STM32WBxx_HAL_Driver/Inc/stm32wbxx_ll_pwr.h ****   * @{
  47:Drivers/STM32WBxx_HAL_Driver/Inc/stm32wbxx_ll_pwr.h ****   */
  48:Drivers/STM32WBxx_HAL_Driver/Inc/stm32wbxx_ll_pwr.h **** 
  49:Drivers/STM32WBxx_HAL_Driver/Inc/stm32wbxx_ll_pwr.h **** #if defined(PWR_CR5_SMPSEN)
  50:Drivers/STM32WBxx_HAL_Driver/Inc/stm32wbxx_ll_pwr.h **** /** @defgroup PWR_SMPS_Calibration PWR SMPS calibration
  51:Drivers/STM32WBxx_HAL_Driver/Inc/stm32wbxx_ll_pwr.h ****   * @{
  52:Drivers/STM32WBxx_HAL_Driver/Inc/stm32wbxx_ll_pwr.h ****   */ 
  53:Drivers/STM32WBxx_HAL_Driver/Inc/stm32wbxx_ll_pwr.h **** #define SMPS_VOLTAGE_CAL_ADDR              ((uint32_t*) (0x1FFF7558UL))         /* SMPS output volt
  54:Drivers/STM32WBxx_HAL_Driver/Inc/stm32wbxx_ll_pwr.h **** #define SMPS_VOLTAGE_CAL_POS               (8UL)                                /* SMPS output volt
  55:Drivers/STM32WBxx_HAL_Driver/Inc/stm32wbxx_ll_pwr.h **** #define SMPS_VOLTAGE_CAL                   (0xFUL << SMPS_VOLTAGE_CAL_POS)      /* SMPS output volt
  56:Drivers/STM32WBxx_HAL_Driver/Inc/stm32wbxx_ll_pwr.h **** #define SMPS_VOLTAGE_CAL_VOLTAGE_MV        (1500UL)                             /* SMPS output volt
  57:Drivers/STM32WBxx_HAL_Driver/Inc/stm32wbxx_ll_pwr.h **** #define SMPS_VOLTAGE_BASE_MV               (1200UL)                             /* SMPS output volt
  58:Drivers/STM32WBxx_HAL_Driver/Inc/stm32wbxx_ll_pwr.h **** #define SMPS_VOLTAGE_STEP_MV               (  50UL)                             /* SMPS output volt
  59:Drivers/STM32WBxx_HAL_Driver/Inc/stm32wbxx_ll_pwr.h **** /**
  60:Drivers/STM32WBxx_HAL_Driver/Inc/stm32wbxx_ll_pwr.h ****   * @}
  61:Drivers/STM32WBxx_HAL_Driver/Inc/stm32wbxx_ll_pwr.h ****   */
  62:Drivers/STM32WBxx_HAL_Driver/Inc/stm32wbxx_ll_pwr.h **** #endif
  63:Drivers/STM32WBxx_HAL_Driver/Inc/stm32wbxx_ll_pwr.h **** 
  64:Drivers/STM32WBxx_HAL_Driver/Inc/stm32wbxx_ll_pwr.h **** /**
  65:Drivers/STM32WBxx_HAL_Driver/Inc/stm32wbxx_ll_pwr.h ****   * @}
  66:Drivers/STM32WBxx_HAL_Driver/Inc/stm32wbxx_ll_pwr.h ****   */
  67:Drivers/STM32WBxx_HAL_Driver/Inc/stm32wbxx_ll_pwr.h **** 
  68:Drivers/STM32WBxx_HAL_Driver/Inc/stm32wbxx_ll_pwr.h **** /* Private macros ------------------------------------------------------------*/
ARM GAS  /tmp/ccRrvtNP.s 			page 36


  69:Drivers/STM32WBxx_HAL_Driver/Inc/stm32wbxx_ll_pwr.h **** 
  70:Drivers/STM32WBxx_HAL_Driver/Inc/stm32wbxx_ll_pwr.h **** /* Exported types ------------------------------------------------------------*/
  71:Drivers/STM32WBxx_HAL_Driver/Inc/stm32wbxx_ll_pwr.h **** /* Exported constants --------------------------------------------------------*/
  72:Drivers/STM32WBxx_HAL_Driver/Inc/stm32wbxx_ll_pwr.h **** /** @defgroup PWR_LL_Exported_Constants PWR Exported Constants
  73:Drivers/STM32WBxx_HAL_Driver/Inc/stm32wbxx_ll_pwr.h ****   * @{
  74:Drivers/STM32WBxx_HAL_Driver/Inc/stm32wbxx_ll_pwr.h ****   */
  75:Drivers/STM32WBxx_HAL_Driver/Inc/stm32wbxx_ll_pwr.h **** 
  76:Drivers/STM32WBxx_HAL_Driver/Inc/stm32wbxx_ll_pwr.h **** /** @defgroup PWR_LL_EC_CLEAR_FLAG Clear Flags Defines
  77:Drivers/STM32WBxx_HAL_Driver/Inc/stm32wbxx_ll_pwr.h ****   * @brief    Flags defines which can be used with LL_PWR_WriteReg function
  78:Drivers/STM32WBxx_HAL_Driver/Inc/stm32wbxx_ll_pwr.h ****   * @{
  79:Drivers/STM32WBxx_HAL_Driver/Inc/stm32wbxx_ll_pwr.h ****   */
  80:Drivers/STM32WBxx_HAL_Driver/Inc/stm32wbxx_ll_pwr.h **** #define LL_PWR_SCR_CWUF                    PWR_SCR_CWUF
  81:Drivers/STM32WBxx_HAL_Driver/Inc/stm32wbxx_ll_pwr.h **** #if defined(PWR_CR3_EWUP2)
  82:Drivers/STM32WBxx_HAL_Driver/Inc/stm32wbxx_ll_pwr.h **** #define LL_PWR_SCR_CWUF5                   PWR_SCR_CWUF5
  83:Drivers/STM32WBxx_HAL_Driver/Inc/stm32wbxx_ll_pwr.h **** #endif
  84:Drivers/STM32WBxx_HAL_Driver/Inc/stm32wbxx_ll_pwr.h **** #define LL_PWR_SCR_CWUF4                   PWR_SCR_CWUF4
  85:Drivers/STM32WBxx_HAL_Driver/Inc/stm32wbxx_ll_pwr.h **** #if defined(PWR_CR3_EWUP3)
  86:Drivers/STM32WBxx_HAL_Driver/Inc/stm32wbxx_ll_pwr.h **** #define LL_PWR_SCR_CWUF3                   PWR_SCR_CWUF3
  87:Drivers/STM32WBxx_HAL_Driver/Inc/stm32wbxx_ll_pwr.h **** #endif
  88:Drivers/STM32WBxx_HAL_Driver/Inc/stm32wbxx_ll_pwr.h **** #if defined(PWR_CR3_EWUP2)
  89:Drivers/STM32WBxx_HAL_Driver/Inc/stm32wbxx_ll_pwr.h **** #define LL_PWR_SCR_CWUF2                   PWR_SCR_CWUF2
  90:Drivers/STM32WBxx_HAL_Driver/Inc/stm32wbxx_ll_pwr.h **** #endif
  91:Drivers/STM32WBxx_HAL_Driver/Inc/stm32wbxx_ll_pwr.h **** #define LL_PWR_SCR_CWUF1                   PWR_SCR_CWUF1
  92:Drivers/STM32WBxx_HAL_Driver/Inc/stm32wbxx_ll_pwr.h **** #define LL_PWR_SCR_CC2HF                   PWR_SCR_CC2HF
  93:Drivers/STM32WBxx_HAL_Driver/Inc/stm32wbxx_ll_pwr.h **** #define LL_PWR_SCR_C802AF                  PWR_SCR_C802AF
  94:Drivers/STM32WBxx_HAL_Driver/Inc/stm32wbxx_ll_pwr.h **** #define LL_PWR_SCR_CBLEAF                  PWR_SCR_CBLEAF
  95:Drivers/STM32WBxx_HAL_Driver/Inc/stm32wbxx_ll_pwr.h **** #define LL_PWR_SCR_CCRPEF                  PWR_SCR_CCRPEF
  96:Drivers/STM32WBxx_HAL_Driver/Inc/stm32wbxx_ll_pwr.h **** #define LL_PWR_SCR_C802WUF                 PWR_SCR_C802WUF
  97:Drivers/STM32WBxx_HAL_Driver/Inc/stm32wbxx_ll_pwr.h **** #define LL_PWR_SCR_CBLEWUF                 PWR_SCR_CBLEWUF
  98:Drivers/STM32WBxx_HAL_Driver/Inc/stm32wbxx_ll_pwr.h **** #if defined(PWR_CR5_SMPSEN)
  99:Drivers/STM32WBxx_HAL_Driver/Inc/stm32wbxx_ll_pwr.h **** #define LL_PWR_SCR_CBORHF                  PWR_SCR_CBORHF
 100:Drivers/STM32WBxx_HAL_Driver/Inc/stm32wbxx_ll_pwr.h **** #define LL_PWR_SCR_CSMPSFBF                PWR_SCR_CSMPSFBF
 101:Drivers/STM32WBxx_HAL_Driver/Inc/stm32wbxx_ll_pwr.h **** #endif
 102:Drivers/STM32WBxx_HAL_Driver/Inc/stm32wbxx_ll_pwr.h **** #define LL_PWR_EXTSCR_CCRPF                PWR_EXTSCR_CCRPF
 103:Drivers/STM32WBxx_HAL_Driver/Inc/stm32wbxx_ll_pwr.h **** #define LL_PWR_EXTSCR_C2CSSF               PWR_EXTSCR_C2CSSF
 104:Drivers/STM32WBxx_HAL_Driver/Inc/stm32wbxx_ll_pwr.h **** #define LL_PWR_EXTSCR_C1CSSF               PWR_EXTSCR_C1CSSF
 105:Drivers/STM32WBxx_HAL_Driver/Inc/stm32wbxx_ll_pwr.h **** /**
 106:Drivers/STM32WBxx_HAL_Driver/Inc/stm32wbxx_ll_pwr.h ****   * @}
 107:Drivers/STM32WBxx_HAL_Driver/Inc/stm32wbxx_ll_pwr.h ****   */
 108:Drivers/STM32WBxx_HAL_Driver/Inc/stm32wbxx_ll_pwr.h **** 
 109:Drivers/STM32WBxx_HAL_Driver/Inc/stm32wbxx_ll_pwr.h **** /** @defgroup PWR_LL_EC_GET_FLAG Get Flags Defines
 110:Drivers/STM32WBxx_HAL_Driver/Inc/stm32wbxx_ll_pwr.h ****   * @brief    Flags defines which can be used with LL_PWR_ReadReg function
 111:Drivers/STM32WBxx_HAL_Driver/Inc/stm32wbxx_ll_pwr.h ****   * @{
 112:Drivers/STM32WBxx_HAL_Driver/Inc/stm32wbxx_ll_pwr.h ****   */
 113:Drivers/STM32WBxx_HAL_Driver/Inc/stm32wbxx_ll_pwr.h **** #define LL_PWR_SR1_WUFI                    PWR_SR1_WUFI
 114:Drivers/STM32WBxx_HAL_Driver/Inc/stm32wbxx_ll_pwr.h **** #if defined(PWR_CR3_EWUP5)
 115:Drivers/STM32WBxx_HAL_Driver/Inc/stm32wbxx_ll_pwr.h **** #define LL_PWR_SR1_WUF5                    PWR_SR1_WUF5
 116:Drivers/STM32WBxx_HAL_Driver/Inc/stm32wbxx_ll_pwr.h **** #endif
 117:Drivers/STM32WBxx_HAL_Driver/Inc/stm32wbxx_ll_pwr.h **** #define LL_PWR_SR1_WUF4                    PWR_SR1_WUF4
 118:Drivers/STM32WBxx_HAL_Driver/Inc/stm32wbxx_ll_pwr.h **** #if defined(PWR_CR3_EWUP3)
 119:Drivers/STM32WBxx_HAL_Driver/Inc/stm32wbxx_ll_pwr.h **** #define LL_PWR_SR1_WUF3                    PWR_SR1_WUF3
 120:Drivers/STM32WBxx_HAL_Driver/Inc/stm32wbxx_ll_pwr.h **** #endif
 121:Drivers/STM32WBxx_HAL_Driver/Inc/stm32wbxx_ll_pwr.h **** #if defined(PWR_CR3_EWUP2)
 122:Drivers/STM32WBxx_HAL_Driver/Inc/stm32wbxx_ll_pwr.h **** #define LL_PWR_SR1_WUF2                    PWR_SR1_WUF2
 123:Drivers/STM32WBxx_HAL_Driver/Inc/stm32wbxx_ll_pwr.h **** #endif
 124:Drivers/STM32WBxx_HAL_Driver/Inc/stm32wbxx_ll_pwr.h **** #define LL_PWR_SR1_WUF1                    PWR_SR1_WUF1
 125:Drivers/STM32WBxx_HAL_Driver/Inc/stm32wbxx_ll_pwr.h **** #define LL_PWR_SR2_PVMO3                   PWR_SR2_PVMO3
ARM GAS  /tmp/ccRrvtNP.s 			page 37


 126:Drivers/STM32WBxx_HAL_Driver/Inc/stm32wbxx_ll_pwr.h **** #if defined(PWR_CR2_PVME1)
 127:Drivers/STM32WBxx_HAL_Driver/Inc/stm32wbxx_ll_pwr.h **** #define LL_PWR_SR2_PVMO1                   PWR_SR2_PVMO1
 128:Drivers/STM32WBxx_HAL_Driver/Inc/stm32wbxx_ll_pwr.h **** #endif
 129:Drivers/STM32WBxx_HAL_Driver/Inc/stm32wbxx_ll_pwr.h **** #define LL_PWR_SR2_PVDO                    PWR_SR2_PVDO
 130:Drivers/STM32WBxx_HAL_Driver/Inc/stm32wbxx_ll_pwr.h **** #if defined(PWR_CR1_VOS)
 131:Drivers/STM32WBxx_HAL_Driver/Inc/stm32wbxx_ll_pwr.h **** #define LL_PWR_SR2_VOSF                    PWR_SR2_VOSF
 132:Drivers/STM32WBxx_HAL_Driver/Inc/stm32wbxx_ll_pwr.h **** #endif
 133:Drivers/STM32WBxx_HAL_Driver/Inc/stm32wbxx_ll_pwr.h **** #define LL_PWR_SR2_REGLPF                  PWR_SR2_REGLPF
 134:Drivers/STM32WBxx_HAL_Driver/Inc/stm32wbxx_ll_pwr.h **** #define LL_PWR_SR2_REGLPS                  PWR_SR2_REGLPS
 135:Drivers/STM32WBxx_HAL_Driver/Inc/stm32wbxx_ll_pwr.h **** 
 136:Drivers/STM32WBxx_HAL_Driver/Inc/stm32wbxx_ll_pwr.h **** /* BOR flags */
 137:Drivers/STM32WBxx_HAL_Driver/Inc/stm32wbxx_ll_pwr.h **** #define LL_PWR_FLAG_BORH                   PWR_SR1_BORHF  /* BORH interrupt flag */
 138:Drivers/STM32WBxx_HAL_Driver/Inc/stm32wbxx_ll_pwr.h **** 
 139:Drivers/STM32WBxx_HAL_Driver/Inc/stm32wbxx_ll_pwr.h **** #if defined(PWR_CR5_SMPSEN)
 140:Drivers/STM32WBxx_HAL_Driver/Inc/stm32wbxx_ll_pwr.h **** /* SMPS flags */
 141:Drivers/STM32WBxx_HAL_Driver/Inc/stm32wbxx_ll_pwr.h **** #define LL_PWR_FLAG_SMPS                   PWR_SR2_SMPSF  /* SMPS step down converter ready flag */
 142:Drivers/STM32WBxx_HAL_Driver/Inc/stm32wbxx_ll_pwr.h **** #define LL_PWR_FLAG_SMPSB                  PWR_SR2_SMPSBF /* SMPS step down converter in bypass mod
 143:Drivers/STM32WBxx_HAL_Driver/Inc/stm32wbxx_ll_pwr.h **** #define LL_PWR_FLAG_SMPSFB                 PWR_SR1_SMPSFB /* SMPS step down converter forced in byp
 144:Drivers/STM32WBxx_HAL_Driver/Inc/stm32wbxx_ll_pwr.h **** #endif
 145:Drivers/STM32WBxx_HAL_Driver/Inc/stm32wbxx_ll_pwr.h **** 
 146:Drivers/STM32WBxx_HAL_Driver/Inc/stm32wbxx_ll_pwr.h **** /* Radio (BLE or 802.15.4) flags */
 147:Drivers/STM32WBxx_HAL_Driver/Inc/stm32wbxx_ll_pwr.h **** #define LL_PWR_FLAG_BLEWU                  PWR_SR1_BLEWUF  /* BLE wakeup interrupt flag */
 148:Drivers/STM32WBxx_HAL_Driver/Inc/stm32wbxx_ll_pwr.h **** #define LL_PWR_FLAG_802WU                  PWR_SR1_802WUF  /* 802.15.4 wakeup interrupt flag */
 149:Drivers/STM32WBxx_HAL_Driver/Inc/stm32wbxx_ll_pwr.h **** #define LL_PWR_FLAG_BLEA                   PWR_SR1_BLEAF   /* BLE end of activity interrupt flag */
 150:Drivers/STM32WBxx_HAL_Driver/Inc/stm32wbxx_ll_pwr.h **** #define LL_PWR_FLAG_802A                   PWR_SR1_802AF   /* 802.15.4 end of activity interrupt fl
 151:Drivers/STM32WBxx_HAL_Driver/Inc/stm32wbxx_ll_pwr.h **** #define LL_PWR_FLAG_CRPE                   PWR_SR1_CRPEF   /* Critical radio phase end of activity 
 152:Drivers/STM32WBxx_HAL_Driver/Inc/stm32wbxx_ll_pwr.h **** #define LL_PWR_FLAG_CRP                    PWR_EXTSCR_CRPF /* Critical radio system phase */
 153:Drivers/STM32WBxx_HAL_Driver/Inc/stm32wbxx_ll_pwr.h **** 
 154:Drivers/STM32WBxx_HAL_Driver/Inc/stm32wbxx_ll_pwr.h **** /* Multicore flags */
 155:Drivers/STM32WBxx_HAL_Driver/Inc/stm32wbxx_ll_pwr.h **** #define LL_PWR_EXTSCR_C1SBF                PWR_EXTSCR_C1SBF   /* System standby flag for CPU1 */
 156:Drivers/STM32WBxx_HAL_Driver/Inc/stm32wbxx_ll_pwr.h **** #define LL_PWR_EXTSCR_C1STOPF              PWR_EXTSCR_C1STOPF /* System stop flag for CPU1 */
 157:Drivers/STM32WBxx_HAL_Driver/Inc/stm32wbxx_ll_pwr.h **** #define LL_PWR_EXTSCR_C1DS                 PWR_EXTSCR_C1DS    /* CPU1 deepsleep mode */
 158:Drivers/STM32WBxx_HAL_Driver/Inc/stm32wbxx_ll_pwr.h **** #define LL_PWR_EXTSCR_C2SBF                PWR_EXTSCR_C2SBF   /* System standby flag for CPU2 */
 159:Drivers/STM32WBxx_HAL_Driver/Inc/stm32wbxx_ll_pwr.h **** #define LL_PWR_EXTSCR_C2STOPF              PWR_EXTSCR_C2STOPF /* System stop flag for CPU2 */
 160:Drivers/STM32WBxx_HAL_Driver/Inc/stm32wbxx_ll_pwr.h **** #define LL_PWR_EXTSCR_C2DS                 PWR_EXTSCR_C2DS    /* CPU2 deepsleep mode */
 161:Drivers/STM32WBxx_HAL_Driver/Inc/stm32wbxx_ll_pwr.h **** #define LL_PWR_SR1_C2HF                    PWR_SR1_C2HF       /* CPU2 hold interrupt flag */
 162:Drivers/STM32WBxx_HAL_Driver/Inc/stm32wbxx_ll_pwr.h **** /**
 163:Drivers/STM32WBxx_HAL_Driver/Inc/stm32wbxx_ll_pwr.h ****   * @}
 164:Drivers/STM32WBxx_HAL_Driver/Inc/stm32wbxx_ll_pwr.h ****   */
 165:Drivers/STM32WBxx_HAL_Driver/Inc/stm32wbxx_ll_pwr.h **** 
 166:Drivers/STM32WBxx_HAL_Driver/Inc/stm32wbxx_ll_pwr.h **** #if defined(PWR_CR1_VOS)
 167:Drivers/STM32WBxx_HAL_Driver/Inc/stm32wbxx_ll_pwr.h **** /** @defgroup PWR_LL_EC_REGU_VOLTAGE REGU VOLTAGE
 168:Drivers/STM32WBxx_HAL_Driver/Inc/stm32wbxx_ll_pwr.h ****   * @{
 169:Drivers/STM32WBxx_HAL_Driver/Inc/stm32wbxx_ll_pwr.h ****   */
 170:Drivers/STM32WBxx_HAL_Driver/Inc/stm32wbxx_ll_pwr.h **** #define LL_PWR_REGU_VOLTAGE_SCALE1         (PWR_CR1_VOS_0) /* Regulator voltage output range 1 mode
 171:Drivers/STM32WBxx_HAL_Driver/Inc/stm32wbxx_ll_pwr.h **** #define LL_PWR_REGU_VOLTAGE_SCALE2         (PWR_CR1_VOS_1) /* Regulator voltage output range 2 mode
 172:Drivers/STM32WBxx_HAL_Driver/Inc/stm32wbxx_ll_pwr.h **** /**
 173:Drivers/STM32WBxx_HAL_Driver/Inc/stm32wbxx_ll_pwr.h ****   * @}
 174:Drivers/STM32WBxx_HAL_Driver/Inc/stm32wbxx_ll_pwr.h ****   */
 175:Drivers/STM32WBxx_HAL_Driver/Inc/stm32wbxx_ll_pwr.h **** #endif
 176:Drivers/STM32WBxx_HAL_Driver/Inc/stm32wbxx_ll_pwr.h **** 
 177:Drivers/STM32WBxx_HAL_Driver/Inc/stm32wbxx_ll_pwr.h **** /** @defgroup PWR_LL_EC_MODE_PWR MODE PWR
 178:Drivers/STM32WBxx_HAL_Driver/Inc/stm32wbxx_ll_pwr.h ****   * @{
 179:Drivers/STM32WBxx_HAL_Driver/Inc/stm32wbxx_ll_pwr.h ****   */
 180:Drivers/STM32WBxx_HAL_Driver/Inc/stm32wbxx_ll_pwr.h **** #define LL_PWR_MODE_STOP0                  (0x000000000U)
 181:Drivers/STM32WBxx_HAL_Driver/Inc/stm32wbxx_ll_pwr.h **** #define LL_PWR_MODE_STOP1                  (PWR_CR1_LPMS_0)
 182:Drivers/STM32WBxx_HAL_Driver/Inc/stm32wbxx_ll_pwr.h **** #define LL_PWR_MODE_STOP2                  (PWR_CR1_LPMS_1)
ARM GAS  /tmp/ccRrvtNP.s 			page 38


 183:Drivers/STM32WBxx_HAL_Driver/Inc/stm32wbxx_ll_pwr.h **** #define LL_PWR_MODE_STANDBY                (PWR_CR1_LPMS_1 | PWR_CR1_LPMS_0)
 184:Drivers/STM32WBxx_HAL_Driver/Inc/stm32wbxx_ll_pwr.h **** #define LL_PWR_MODE_SHUTDOWN               (PWR_CR1_LPMS_2)
 185:Drivers/STM32WBxx_HAL_Driver/Inc/stm32wbxx_ll_pwr.h **** /**
 186:Drivers/STM32WBxx_HAL_Driver/Inc/stm32wbxx_ll_pwr.h ****   * @}
 187:Drivers/STM32WBxx_HAL_Driver/Inc/stm32wbxx_ll_pwr.h ****   */
 188:Drivers/STM32WBxx_HAL_Driver/Inc/stm32wbxx_ll_pwr.h **** 
 189:Drivers/STM32WBxx_HAL_Driver/Inc/stm32wbxx_ll_pwr.h **** /** @defgroup PWR_LL_EC_FLASH_LPRUN_POWER_DOWN_MODE Flash power-down mode during low-power run mode
 190:Drivers/STM32WBxx_HAL_Driver/Inc/stm32wbxx_ll_pwr.h ****   * @{
 191:Drivers/STM32WBxx_HAL_Driver/Inc/stm32wbxx_ll_pwr.h ****   */
 192:Drivers/STM32WBxx_HAL_Driver/Inc/stm32wbxx_ll_pwr.h **** #define LL_PWR_FLASH_LPRUN_MODE_IDLE       (0x000000000U)
 193:Drivers/STM32WBxx_HAL_Driver/Inc/stm32wbxx_ll_pwr.h **** #define LL_PWR_FLASH_LPRUN_MODE_POWER_DOWN (PWR_CR1_FPDR)
 194:Drivers/STM32WBxx_HAL_Driver/Inc/stm32wbxx_ll_pwr.h **** /**
 195:Drivers/STM32WBxx_HAL_Driver/Inc/stm32wbxx_ll_pwr.h ****   * @}
 196:Drivers/STM32WBxx_HAL_Driver/Inc/stm32wbxx_ll_pwr.h ****   */
 197:Drivers/STM32WBxx_HAL_Driver/Inc/stm32wbxx_ll_pwr.h **** 
 198:Drivers/STM32WBxx_HAL_Driver/Inc/stm32wbxx_ll_pwr.h **** /** @defgroup PWR_LL_EC_FLASH_SLEEP_POWER_DOWN_MODE Flash power-down mode during sleep mode
 199:Drivers/STM32WBxx_HAL_Driver/Inc/stm32wbxx_ll_pwr.h ****   * @{
 200:Drivers/STM32WBxx_HAL_Driver/Inc/stm32wbxx_ll_pwr.h ****   */
 201:Drivers/STM32WBxx_HAL_Driver/Inc/stm32wbxx_ll_pwr.h **** #define LL_PWR_FLASH_SLEEP_MODE_IDLE       (0x000000000U)
 202:Drivers/STM32WBxx_HAL_Driver/Inc/stm32wbxx_ll_pwr.h **** #define LL_PWR_FLASH_SLEEP_MODE_POWER_DOWN (PWR_CR1_FPDS)
 203:Drivers/STM32WBxx_HAL_Driver/Inc/stm32wbxx_ll_pwr.h **** /**
 204:Drivers/STM32WBxx_HAL_Driver/Inc/stm32wbxx_ll_pwr.h ****   * @}
 205:Drivers/STM32WBxx_HAL_Driver/Inc/stm32wbxx_ll_pwr.h ****   */
 206:Drivers/STM32WBxx_HAL_Driver/Inc/stm32wbxx_ll_pwr.h **** 
 207:Drivers/STM32WBxx_HAL_Driver/Inc/stm32wbxx_ll_pwr.h **** /** @defgroup PWR_LL_EC_PVM Peripheral voltage monitoring
 208:Drivers/STM32WBxx_HAL_Driver/Inc/stm32wbxx_ll_pwr.h ****   * @{
 209:Drivers/STM32WBxx_HAL_Driver/Inc/stm32wbxx_ll_pwr.h ****   */
 210:Drivers/STM32WBxx_HAL_Driver/Inc/stm32wbxx_ll_pwr.h **** #if defined(PWR_CR2_PVME1)
 211:Drivers/STM32WBxx_HAL_Driver/Inc/stm32wbxx_ll_pwr.h **** #define LL_PWR_PVM_VDDUSB_1_2V             (PWR_CR2_PVME1)     /* Monitoring VDDUSB vs. 1.2V */
 212:Drivers/STM32WBxx_HAL_Driver/Inc/stm32wbxx_ll_pwr.h **** #endif
 213:Drivers/STM32WBxx_HAL_Driver/Inc/stm32wbxx_ll_pwr.h **** #define LL_PWR_PVM_VDDA_1_62V              (PWR_CR2_PVME3)     /* Monitoring VDDA vs. 1.62V  */
 214:Drivers/STM32WBxx_HAL_Driver/Inc/stm32wbxx_ll_pwr.h **** /**
 215:Drivers/STM32WBxx_HAL_Driver/Inc/stm32wbxx_ll_pwr.h ****   * @}
 216:Drivers/STM32WBxx_HAL_Driver/Inc/stm32wbxx_ll_pwr.h ****   */
 217:Drivers/STM32WBxx_HAL_Driver/Inc/stm32wbxx_ll_pwr.h ****   
 218:Drivers/STM32WBxx_HAL_Driver/Inc/stm32wbxx_ll_pwr.h **** /** @defgroup PWR_LL_EC_PVDLEVEL PVDLEVEL
 219:Drivers/STM32WBxx_HAL_Driver/Inc/stm32wbxx_ll_pwr.h ****   * @{
 220:Drivers/STM32WBxx_HAL_Driver/Inc/stm32wbxx_ll_pwr.h ****   */
 221:Drivers/STM32WBxx_HAL_Driver/Inc/stm32wbxx_ll_pwr.h **** #define LL_PWR_PVDLEVEL_0                  (0x00000000U)                                   /* VPVD0
 222:Drivers/STM32WBxx_HAL_Driver/Inc/stm32wbxx_ll_pwr.h **** #define LL_PWR_PVDLEVEL_1                  (PWR_CR2_PLS_0)                                 /* VPVD1
 223:Drivers/STM32WBxx_HAL_Driver/Inc/stm32wbxx_ll_pwr.h **** #define LL_PWR_PVDLEVEL_2                  (PWR_CR2_PLS_1)                                 /* VPVD2
 224:Drivers/STM32WBxx_HAL_Driver/Inc/stm32wbxx_ll_pwr.h **** #define LL_PWR_PVDLEVEL_3                  (PWR_CR2_PLS_1 | PWR_CR2_PLS_0)                 /* VPVD3
 225:Drivers/STM32WBxx_HAL_Driver/Inc/stm32wbxx_ll_pwr.h **** #define LL_PWR_PVDLEVEL_4                  (PWR_CR2_PLS_2)                                 /* VPVD4
 226:Drivers/STM32WBxx_HAL_Driver/Inc/stm32wbxx_ll_pwr.h **** #define LL_PWR_PVDLEVEL_5                  (PWR_CR2_PLS_2 | PWR_CR2_PLS_0)                 /* VPVD5
 227:Drivers/STM32WBxx_HAL_Driver/Inc/stm32wbxx_ll_pwr.h **** #define LL_PWR_PVDLEVEL_6                  (PWR_CR2_PLS_2 | PWR_CR2_PLS_1)                 /* VPVD6
 228:Drivers/STM32WBxx_HAL_Driver/Inc/stm32wbxx_ll_pwr.h **** #define LL_PWR_PVDLEVEL_7                  (PWR_CR2_PLS_2 | PWR_CR2_PLS_1 | PWR_CR2_PLS_0) /* Exter
 229:Drivers/STM32WBxx_HAL_Driver/Inc/stm32wbxx_ll_pwr.h **** /**
 230:Drivers/STM32WBxx_HAL_Driver/Inc/stm32wbxx_ll_pwr.h ****   * @}
 231:Drivers/STM32WBxx_HAL_Driver/Inc/stm32wbxx_ll_pwr.h ****   */
 232:Drivers/STM32WBxx_HAL_Driver/Inc/stm32wbxx_ll_pwr.h **** 
 233:Drivers/STM32WBxx_HAL_Driver/Inc/stm32wbxx_ll_pwr.h **** /** @defgroup PWR_LL_EC_WAKEUP WAKEUP
 234:Drivers/STM32WBxx_HAL_Driver/Inc/stm32wbxx_ll_pwr.h ****   * @{
 235:Drivers/STM32WBxx_HAL_Driver/Inc/stm32wbxx_ll_pwr.h ****   */
 236:Drivers/STM32WBxx_HAL_Driver/Inc/stm32wbxx_ll_pwr.h **** #define LL_PWR_WAKEUP_PIN1                 (PWR_CR3_EWUP1)
 237:Drivers/STM32WBxx_HAL_Driver/Inc/stm32wbxx_ll_pwr.h **** #if defined(PWR_CR3_EWUP2)
 238:Drivers/STM32WBxx_HAL_Driver/Inc/stm32wbxx_ll_pwr.h **** #define LL_PWR_WAKEUP_PIN2                 (PWR_CR3_EWUP2)
 239:Drivers/STM32WBxx_HAL_Driver/Inc/stm32wbxx_ll_pwr.h **** #endif
ARM GAS  /tmp/ccRrvtNP.s 			page 39


 240:Drivers/STM32WBxx_HAL_Driver/Inc/stm32wbxx_ll_pwr.h **** #if defined(PWR_CR3_EWUP3)
 241:Drivers/STM32WBxx_HAL_Driver/Inc/stm32wbxx_ll_pwr.h **** #define LL_PWR_WAKEUP_PIN3                 (PWR_CR3_EWUP3)
 242:Drivers/STM32WBxx_HAL_Driver/Inc/stm32wbxx_ll_pwr.h **** #endif
 243:Drivers/STM32WBxx_HAL_Driver/Inc/stm32wbxx_ll_pwr.h **** #define LL_PWR_WAKEUP_PIN4                 (PWR_CR3_EWUP4)
 244:Drivers/STM32WBxx_HAL_Driver/Inc/stm32wbxx_ll_pwr.h **** #if defined(PWR_CR3_EWUP5)
 245:Drivers/STM32WBxx_HAL_Driver/Inc/stm32wbxx_ll_pwr.h **** #define LL_PWR_WAKEUP_PIN5                 (PWR_CR3_EWUP5)
 246:Drivers/STM32WBxx_HAL_Driver/Inc/stm32wbxx_ll_pwr.h **** #endif
 247:Drivers/STM32WBxx_HAL_Driver/Inc/stm32wbxx_ll_pwr.h **** /**
 248:Drivers/STM32WBxx_HAL_Driver/Inc/stm32wbxx_ll_pwr.h ****   * @}
 249:Drivers/STM32WBxx_HAL_Driver/Inc/stm32wbxx_ll_pwr.h ****   */
 250:Drivers/STM32WBxx_HAL_Driver/Inc/stm32wbxx_ll_pwr.h **** 
 251:Drivers/STM32WBxx_HAL_Driver/Inc/stm32wbxx_ll_pwr.h **** /** @defgroup PWR_LL_EC_BATT_CHARG_RESISTOR BATT CHARG RESISTOR
 252:Drivers/STM32WBxx_HAL_Driver/Inc/stm32wbxx_ll_pwr.h ****   * @{
 253:Drivers/STM32WBxx_HAL_Driver/Inc/stm32wbxx_ll_pwr.h ****   */
 254:Drivers/STM32WBxx_HAL_Driver/Inc/stm32wbxx_ll_pwr.h **** #define LL_PWR_BATT_CHARG_RESISTOR_5K      (0x00000000U)
 255:Drivers/STM32WBxx_HAL_Driver/Inc/stm32wbxx_ll_pwr.h **** #define LL_PWR_BATT_CHARGRESISTOR_1_5K     (PWR_CR4_VBRS)
 256:Drivers/STM32WBxx_HAL_Driver/Inc/stm32wbxx_ll_pwr.h **** /**
 257:Drivers/STM32WBxx_HAL_Driver/Inc/stm32wbxx_ll_pwr.h ****   * @}
 258:Drivers/STM32WBxx_HAL_Driver/Inc/stm32wbxx_ll_pwr.h ****   */
 259:Drivers/STM32WBxx_HAL_Driver/Inc/stm32wbxx_ll_pwr.h **** 
 260:Drivers/STM32WBxx_HAL_Driver/Inc/stm32wbxx_ll_pwr.h **** /** @defgroup PWR_LL_EC_GPIO GPIO
 261:Drivers/STM32WBxx_HAL_Driver/Inc/stm32wbxx_ll_pwr.h ****   * @{
 262:Drivers/STM32WBxx_HAL_Driver/Inc/stm32wbxx_ll_pwr.h ****   */
 263:Drivers/STM32WBxx_HAL_Driver/Inc/stm32wbxx_ll_pwr.h **** #define LL_PWR_GPIO_A                      ((uint32_t)(&(PWR->PUCRA)))
 264:Drivers/STM32WBxx_HAL_Driver/Inc/stm32wbxx_ll_pwr.h **** #define LL_PWR_GPIO_B                      ((uint32_t)(&(PWR->PUCRB)))
 265:Drivers/STM32WBxx_HAL_Driver/Inc/stm32wbxx_ll_pwr.h **** #define LL_PWR_GPIO_C                      ((uint32_t)(&(PWR->PUCRC)))
 266:Drivers/STM32WBxx_HAL_Driver/Inc/stm32wbxx_ll_pwr.h **** #define LL_PWR_GPIO_D                      ((uint32_t)(&(PWR->PUCRD)))
 267:Drivers/STM32WBxx_HAL_Driver/Inc/stm32wbxx_ll_pwr.h **** #define LL_PWR_GPIO_E                      ((uint32_t)(&(PWR->PUCRE)))
 268:Drivers/STM32WBxx_HAL_Driver/Inc/stm32wbxx_ll_pwr.h **** #define LL_PWR_GPIO_H                      ((uint32_t)(&(PWR->PUCRH)))
 269:Drivers/STM32WBxx_HAL_Driver/Inc/stm32wbxx_ll_pwr.h **** /**
 270:Drivers/STM32WBxx_HAL_Driver/Inc/stm32wbxx_ll_pwr.h ****   * @}
 271:Drivers/STM32WBxx_HAL_Driver/Inc/stm32wbxx_ll_pwr.h ****   */
 272:Drivers/STM32WBxx_HAL_Driver/Inc/stm32wbxx_ll_pwr.h **** 
 273:Drivers/STM32WBxx_HAL_Driver/Inc/stm32wbxx_ll_pwr.h **** /** @defgroup PWR_LL_EC_GPIO_BIT GPIO BIT
 274:Drivers/STM32WBxx_HAL_Driver/Inc/stm32wbxx_ll_pwr.h ****   * @{
 275:Drivers/STM32WBxx_HAL_Driver/Inc/stm32wbxx_ll_pwr.h ****   */
 276:Drivers/STM32WBxx_HAL_Driver/Inc/stm32wbxx_ll_pwr.h **** #if defined(PWR_PUCRC_PC0)
 277:Drivers/STM32WBxx_HAL_Driver/Inc/stm32wbxx_ll_pwr.h **** /* Note: LL_PWR_GPIO_BIT_x defined from port C because all pins are available */
 278:Drivers/STM32WBxx_HAL_Driver/Inc/stm32wbxx_ll_pwr.h **** /*       for PWR pull-up and pull-down.                                       */
 279:Drivers/STM32WBxx_HAL_Driver/Inc/stm32wbxx_ll_pwr.h **** #define LL_PWR_GPIO_BIT_0                  (PWR_PUCRC_PC0)
 280:Drivers/STM32WBxx_HAL_Driver/Inc/stm32wbxx_ll_pwr.h **** #define LL_PWR_GPIO_BIT_1                  (PWR_PUCRC_PC1)
 281:Drivers/STM32WBxx_HAL_Driver/Inc/stm32wbxx_ll_pwr.h **** #define LL_PWR_GPIO_BIT_2                  (PWR_PUCRC_PC2)
 282:Drivers/STM32WBxx_HAL_Driver/Inc/stm32wbxx_ll_pwr.h **** #define LL_PWR_GPIO_BIT_3                  (PWR_PUCRC_PC3)
 283:Drivers/STM32WBxx_HAL_Driver/Inc/stm32wbxx_ll_pwr.h **** #define LL_PWR_GPIO_BIT_4                  (PWR_PUCRC_PC4)
 284:Drivers/STM32WBxx_HAL_Driver/Inc/stm32wbxx_ll_pwr.h **** #define LL_PWR_GPIO_BIT_5                  (PWR_PUCRC_PC5)
 285:Drivers/STM32WBxx_HAL_Driver/Inc/stm32wbxx_ll_pwr.h **** #define LL_PWR_GPIO_BIT_6                  (PWR_PUCRC_PC6)
 286:Drivers/STM32WBxx_HAL_Driver/Inc/stm32wbxx_ll_pwr.h **** #define LL_PWR_GPIO_BIT_7                  (PWR_PUCRC_PC7)
 287:Drivers/STM32WBxx_HAL_Driver/Inc/stm32wbxx_ll_pwr.h **** #define LL_PWR_GPIO_BIT_8                  (PWR_PUCRC_PC8)
 288:Drivers/STM32WBxx_HAL_Driver/Inc/stm32wbxx_ll_pwr.h **** #define LL_PWR_GPIO_BIT_9                  (PWR_PUCRC_PC9)
 289:Drivers/STM32WBxx_HAL_Driver/Inc/stm32wbxx_ll_pwr.h **** #define LL_PWR_GPIO_BIT_10                 (PWR_PUCRC_PC10)
 290:Drivers/STM32WBxx_HAL_Driver/Inc/stm32wbxx_ll_pwr.h **** #define LL_PWR_GPIO_BIT_11                 (PWR_PUCRC_PC11)
 291:Drivers/STM32WBxx_HAL_Driver/Inc/stm32wbxx_ll_pwr.h **** #define LL_PWR_GPIO_BIT_12                 (PWR_PUCRC_PC12)
 292:Drivers/STM32WBxx_HAL_Driver/Inc/stm32wbxx_ll_pwr.h **** #define LL_PWR_GPIO_BIT_13                 (PWR_PUCRC_PC13)
 293:Drivers/STM32WBxx_HAL_Driver/Inc/stm32wbxx_ll_pwr.h **** #define LL_PWR_GPIO_BIT_14                 (PWR_PUCRC_PC14)
 294:Drivers/STM32WBxx_HAL_Driver/Inc/stm32wbxx_ll_pwr.h **** #define LL_PWR_GPIO_BIT_15                 (PWR_PUCRC_PC15)
 295:Drivers/STM32WBxx_HAL_Driver/Inc/stm32wbxx_ll_pwr.h **** #else
 296:Drivers/STM32WBxx_HAL_Driver/Inc/stm32wbxx_ll_pwr.h **** #define LL_PWR_GPIO_BIT_0                  (PWR_PUCRA_PA0)
ARM GAS  /tmp/ccRrvtNP.s 			page 40


 297:Drivers/STM32WBxx_HAL_Driver/Inc/stm32wbxx_ll_pwr.h **** #define LL_PWR_GPIO_BIT_1                  (PWR_PUCRA_PA1)
 298:Drivers/STM32WBxx_HAL_Driver/Inc/stm32wbxx_ll_pwr.h **** #define LL_PWR_GPIO_BIT_2                  (PWR_PUCRA_PA2)
 299:Drivers/STM32WBxx_HAL_Driver/Inc/stm32wbxx_ll_pwr.h **** #define LL_PWR_GPIO_BIT_3                  (PWR_PUCRA_PA3)
 300:Drivers/STM32WBxx_HAL_Driver/Inc/stm32wbxx_ll_pwr.h **** #define LL_PWR_GPIO_BIT_4                  (PWR_PUCRA_PA4)
 301:Drivers/STM32WBxx_HAL_Driver/Inc/stm32wbxx_ll_pwr.h **** #define LL_PWR_GPIO_BIT_5                  (PWR_PUCRA_PA5)
 302:Drivers/STM32WBxx_HAL_Driver/Inc/stm32wbxx_ll_pwr.h **** #define LL_PWR_GPIO_BIT_6                  (PWR_PUCRA_PA6)
 303:Drivers/STM32WBxx_HAL_Driver/Inc/stm32wbxx_ll_pwr.h **** #define LL_PWR_GPIO_BIT_7                  (PWR_PUCRA_PA7)
 304:Drivers/STM32WBxx_HAL_Driver/Inc/stm32wbxx_ll_pwr.h **** #define LL_PWR_GPIO_BIT_8                  (PWR_PUCRA_PA8)
 305:Drivers/STM32WBxx_HAL_Driver/Inc/stm32wbxx_ll_pwr.h **** #define LL_PWR_GPIO_BIT_9                  (PWR_PUCRA_PA9)
 306:Drivers/STM32WBxx_HAL_Driver/Inc/stm32wbxx_ll_pwr.h **** #define LL_PWR_GPIO_BIT_10                 (PWR_PUCRA_PA10)
 307:Drivers/STM32WBxx_HAL_Driver/Inc/stm32wbxx_ll_pwr.h **** #define LL_PWR_GPIO_BIT_11                 (PWR_PUCRA_PA11)
 308:Drivers/STM32WBxx_HAL_Driver/Inc/stm32wbxx_ll_pwr.h **** #define LL_PWR_GPIO_BIT_12                 (PWR_PUCRA_PA12)
 309:Drivers/STM32WBxx_HAL_Driver/Inc/stm32wbxx_ll_pwr.h **** #define LL_PWR_GPIO_BIT_13                 (PWR_PUCRA_PA13)
 310:Drivers/STM32WBxx_HAL_Driver/Inc/stm32wbxx_ll_pwr.h **** #define LL_PWR_GPIO_BIT_14                 (PWR_PUCRC_PC14)
 311:Drivers/STM32WBxx_HAL_Driver/Inc/stm32wbxx_ll_pwr.h **** #define LL_PWR_GPIO_BIT_15                 (PWR_PUCRC_PC15)
 312:Drivers/STM32WBxx_HAL_Driver/Inc/stm32wbxx_ll_pwr.h **** #endif
 313:Drivers/STM32WBxx_HAL_Driver/Inc/stm32wbxx_ll_pwr.h **** /**
 314:Drivers/STM32WBxx_HAL_Driver/Inc/stm32wbxx_ll_pwr.h ****   * @}
 315:Drivers/STM32WBxx_HAL_Driver/Inc/stm32wbxx_ll_pwr.h ****   */
 316:Drivers/STM32WBxx_HAL_Driver/Inc/stm32wbxx_ll_pwr.h **** 
 317:Drivers/STM32WBxx_HAL_Driver/Inc/stm32wbxx_ll_pwr.h **** #if defined(PWR_CR5_SMPSEN)
 318:Drivers/STM32WBxx_HAL_Driver/Inc/stm32wbxx_ll_pwr.h **** /** @defgroup PWR_LL_EC_BOR_CONFIGURATION BOR configuration
 319:Drivers/STM32WBxx_HAL_Driver/Inc/stm32wbxx_ll_pwr.h ****   * @{
 320:Drivers/STM32WBxx_HAL_Driver/Inc/stm32wbxx_ll_pwr.h ****   */
 321:Drivers/STM32WBxx_HAL_Driver/Inc/stm32wbxx_ll_pwr.h **** #define LL_PWR_BOR_SYSTEM_RESET            (0x00000000U)     /*!< BOR will generate a system reset 
 322:Drivers/STM32WBxx_HAL_Driver/Inc/stm32wbxx_ll_pwr.h **** #define LL_PWR_BOR_SMPS_FORCE_BYPASS       (PWR_CR5_BORHC)   /*!< BOR will for SMPS step down conve
 323:Drivers/STM32WBxx_HAL_Driver/Inc/stm32wbxx_ll_pwr.h **** /**
 324:Drivers/STM32WBxx_HAL_Driver/Inc/stm32wbxx_ll_pwr.h ****   * @}
 325:Drivers/STM32WBxx_HAL_Driver/Inc/stm32wbxx_ll_pwr.h ****   */
 326:Drivers/STM32WBxx_HAL_Driver/Inc/stm32wbxx_ll_pwr.h **** 
 327:Drivers/STM32WBxx_HAL_Driver/Inc/stm32wbxx_ll_pwr.h **** /** @defgroup PWR_LL_EC_SMPS_OPERATING_MODES SMPS step down converter operating modes
 328:Drivers/STM32WBxx_HAL_Driver/Inc/stm32wbxx_ll_pwr.h ****   * @{
 329:Drivers/STM32WBxx_HAL_Driver/Inc/stm32wbxx_ll_pwr.h ****   */
 330:Drivers/STM32WBxx_HAL_Driver/Inc/stm32wbxx_ll_pwr.h **** /* Note: Literals values are defined from register SR2 bits SMPSF and SMPSBF  */
 331:Drivers/STM32WBxx_HAL_Driver/Inc/stm32wbxx_ll_pwr.h **** /*       but they are also used as register CR5 bits SMPSEN and SMPSBEN,      */
 332:Drivers/STM32WBxx_HAL_Driver/Inc/stm32wbxx_ll_pwr.h **** /*       as used by all SMPS operating mode functions targetting different    */
 333:Drivers/STM32WBxx_HAL_Driver/Inc/stm32wbxx_ll_pwr.h **** /*       registers:                                                           */
 334:Drivers/STM32WBxx_HAL_Driver/Inc/stm32wbxx_ll_pwr.h **** /*       "LL_PWR_SMPS_SetMode()", "LL_PWR_SMPS_GetMode()"                     */
 335:Drivers/STM32WBxx_HAL_Driver/Inc/stm32wbxx_ll_pwr.h **** /*       and "LL_PWR_SMPS_GetEffectiveMode()".                                */
 336:Drivers/STM32WBxx_HAL_Driver/Inc/stm32wbxx_ll_pwr.h **** #define LL_PWR_SMPS_BYPASS                 (PWR_SR2_SMPSBF) /*!< SMPS step down in bypass mode. */
 337:Drivers/STM32WBxx_HAL_Driver/Inc/stm32wbxx_ll_pwr.h **** #define LL_PWR_SMPS_STEP_DOWN              (PWR_SR2_SMPSF)  /*!< SMPS step down in step down mode i
 338:Drivers/STM32WBxx_HAL_Driver/Inc/stm32wbxx_ll_pwr.h **** /**
 339:Drivers/STM32WBxx_HAL_Driver/Inc/stm32wbxx_ll_pwr.h ****   * @}
 340:Drivers/STM32WBxx_HAL_Driver/Inc/stm32wbxx_ll_pwr.h ****   */
 341:Drivers/STM32WBxx_HAL_Driver/Inc/stm32wbxx_ll_pwr.h **** 
 342:Drivers/STM32WBxx_HAL_Driver/Inc/stm32wbxx_ll_pwr.h **** /** @defgroup PWR_LL_EC_SMPS_STARTUP_CURRENT SMPS step down converter supply startup current select
 343:Drivers/STM32WBxx_HAL_Driver/Inc/stm32wbxx_ll_pwr.h ****   * @{
 344:Drivers/STM32WBxx_HAL_Driver/Inc/stm32wbxx_ll_pwr.h ****   */
 345:Drivers/STM32WBxx_HAL_Driver/Inc/stm32wbxx_ll_pwr.h **** #define LL_PWR_SMPS_STARTUP_CURRENT_80MA   (0x00000000U)                                           
 346:Drivers/STM32WBxx_HAL_Driver/Inc/stm32wbxx_ll_pwr.h **** #define LL_PWR_SMPS_STARTUP_CURRENT_100MA  (                                      PWR_CR5_SMPSSC_0)
 347:Drivers/STM32WBxx_HAL_Driver/Inc/stm32wbxx_ll_pwr.h **** #define LL_PWR_SMPS_STARTUP_CURRENT_120MA  (                   PWR_CR5_SMPSSC_1                   )
 348:Drivers/STM32WBxx_HAL_Driver/Inc/stm32wbxx_ll_pwr.h **** #define LL_PWR_SMPS_STARTUP_CURRENT_140MA  (                   PWR_CR5_SMPSSC_1 | PWR_CR5_SMPSSC_0)
 349:Drivers/STM32WBxx_HAL_Driver/Inc/stm32wbxx_ll_pwr.h **** #define LL_PWR_SMPS_STARTUP_CURRENT_160MA  (PWR_CR5_SMPSSC_2                                      )
 350:Drivers/STM32WBxx_HAL_Driver/Inc/stm32wbxx_ll_pwr.h **** #define LL_PWR_SMPS_STARTUP_CURRENT_180MA  (PWR_CR5_SMPSSC_2 |                    PWR_CR5_SMPSSC_0)
 351:Drivers/STM32WBxx_HAL_Driver/Inc/stm32wbxx_ll_pwr.h **** #define LL_PWR_SMPS_STARTUP_CURRENT_200MA  (PWR_CR5_SMPSSC_2 | PWR_CR5_SMPSSC_1                   )
 352:Drivers/STM32WBxx_HAL_Driver/Inc/stm32wbxx_ll_pwr.h **** #define LL_PWR_SMPS_STARTUP_CURRENT_220MA  (PWR_CR5_SMPSSC_2 | PWR_CR5_SMPSSC_1 | PWR_CR5_SMPSSC_0)
 353:Drivers/STM32WBxx_HAL_Driver/Inc/stm32wbxx_ll_pwr.h **** /**
ARM GAS  /tmp/ccRrvtNP.s 			page 41


 354:Drivers/STM32WBxx_HAL_Driver/Inc/stm32wbxx_ll_pwr.h ****   * @}
 355:Drivers/STM32WBxx_HAL_Driver/Inc/stm32wbxx_ll_pwr.h ****   */
 356:Drivers/STM32WBxx_HAL_Driver/Inc/stm32wbxx_ll_pwr.h **** 
 357:Drivers/STM32WBxx_HAL_Driver/Inc/stm32wbxx_ll_pwr.h **** /** @defgroup PWR_LL_EC_SMPS_OUTPUT_VOLTAGE_LEVEL SMPS step down converter output voltage scaling v
 358:Drivers/STM32WBxx_HAL_Driver/Inc/stm32wbxx_ll_pwr.h ****   * @{
 359:Drivers/STM32WBxx_HAL_Driver/Inc/stm32wbxx_ll_pwr.h ****   */
 360:Drivers/STM32WBxx_HAL_Driver/Inc/stm32wbxx_ll_pwr.h **** /* Note: SMPS voltage is trimmed during device production to control
 361:Drivers/STM32WBxx_HAL_Driver/Inc/stm32wbxx_ll_pwr.h ****          the actual voltage level variation from device to device. */
 362:Drivers/STM32WBxx_HAL_Driver/Inc/stm32wbxx_ll_pwr.h **** #define LL_PWR_SMPS_OUTPUT_VOLTAGE_1V20  (0x00000000U)                                             
 363:Drivers/STM32WBxx_HAL_Driver/Inc/stm32wbxx_ll_pwr.h **** #define LL_PWR_SMPS_OUTPUT_VOLTAGE_1V25  (                                                         
 364:Drivers/STM32WBxx_HAL_Driver/Inc/stm32wbxx_ll_pwr.h **** #define LL_PWR_SMPS_OUTPUT_VOLTAGE_1V30  (                                        PWR_CR5_SMPSVOS_1
 365:Drivers/STM32WBxx_HAL_Driver/Inc/stm32wbxx_ll_pwr.h **** #define LL_PWR_SMPS_OUTPUT_VOLTAGE_1V35  (                                        PWR_CR5_SMPSVOS_1
 366:Drivers/STM32WBxx_HAL_Driver/Inc/stm32wbxx_ll_pwr.h **** #define LL_PWR_SMPS_OUTPUT_VOLTAGE_1V40  (                    PWR_CR5_SMPSVOS_2                    
 367:Drivers/STM32WBxx_HAL_Driver/Inc/stm32wbxx_ll_pwr.h **** #define LL_PWR_SMPS_OUTPUT_VOLTAGE_1V45  (                    PWR_CR5_SMPSVOS_2 |                  
 368:Drivers/STM32WBxx_HAL_Driver/Inc/stm32wbxx_ll_pwr.h **** #define LL_PWR_SMPS_OUTPUT_VOLTAGE_1V50  (                    PWR_CR5_SMPSVOS_2 | PWR_CR5_SMPSVOS_1
 369:Drivers/STM32WBxx_HAL_Driver/Inc/stm32wbxx_ll_pwr.h **** #define LL_PWR_SMPS_OUTPUT_VOLTAGE_1V55  (                    PWR_CR5_SMPSVOS_2 | PWR_CR5_SMPSVOS_1
 370:Drivers/STM32WBxx_HAL_Driver/Inc/stm32wbxx_ll_pwr.h **** #define LL_PWR_SMPS_OUTPUT_VOLTAGE_1V60  (PWR_CR5_SMPSVOS_3                                        
 371:Drivers/STM32WBxx_HAL_Driver/Inc/stm32wbxx_ll_pwr.h **** #define LL_PWR_SMPS_OUTPUT_VOLTAGE_1V65  (PWR_CR5_SMPSVOS_3 |                                      
 372:Drivers/STM32WBxx_HAL_Driver/Inc/stm32wbxx_ll_pwr.h **** #define LL_PWR_SMPS_OUTPUT_VOLTAGE_1V70  (PWR_CR5_SMPSVOS_3 |                     PWR_CR5_SMPSVOS_1
 373:Drivers/STM32WBxx_HAL_Driver/Inc/stm32wbxx_ll_pwr.h **** #define LL_PWR_SMPS_OUTPUT_VOLTAGE_1V75  (PWR_CR5_SMPSVOS_3 |                     PWR_CR5_SMPSVOS_1
 374:Drivers/STM32WBxx_HAL_Driver/Inc/stm32wbxx_ll_pwr.h **** #define LL_PWR_SMPS_OUTPUT_VOLTAGE_1V80  (PWR_CR5_SMPSVOS_3 | PWR_CR5_SMPSVOS_2                    
 375:Drivers/STM32WBxx_HAL_Driver/Inc/stm32wbxx_ll_pwr.h **** #define LL_PWR_SMPS_OUTPUT_VOLTAGE_1V85  (PWR_CR5_SMPSVOS_3 | PWR_CR5_SMPSVOS_2 |                  
 376:Drivers/STM32WBxx_HAL_Driver/Inc/stm32wbxx_ll_pwr.h **** #define LL_PWR_SMPS_OUTPUT_VOLTAGE_1V90  (PWR_CR5_SMPSVOS_3 | PWR_CR5_SMPSVOS_2 | PWR_CR5_SMPSVOS_1
 377:Drivers/STM32WBxx_HAL_Driver/Inc/stm32wbxx_ll_pwr.h **** /**
 378:Drivers/STM32WBxx_HAL_Driver/Inc/stm32wbxx_ll_pwr.h ****   * @}
 379:Drivers/STM32WBxx_HAL_Driver/Inc/stm32wbxx_ll_pwr.h ****   */
 380:Drivers/STM32WBxx_HAL_Driver/Inc/stm32wbxx_ll_pwr.h **** #endif
 381:Drivers/STM32WBxx_HAL_Driver/Inc/stm32wbxx_ll_pwr.h **** 
 382:Drivers/STM32WBxx_HAL_Driver/Inc/stm32wbxx_ll_pwr.h **** /**
 383:Drivers/STM32WBxx_HAL_Driver/Inc/stm32wbxx_ll_pwr.h ****   * @}
 384:Drivers/STM32WBxx_HAL_Driver/Inc/stm32wbxx_ll_pwr.h ****   */
 385:Drivers/STM32WBxx_HAL_Driver/Inc/stm32wbxx_ll_pwr.h **** 
 386:Drivers/STM32WBxx_HAL_Driver/Inc/stm32wbxx_ll_pwr.h **** /* Exported macro ------------------------------------------------------------*/
 387:Drivers/STM32WBxx_HAL_Driver/Inc/stm32wbxx_ll_pwr.h **** /** @defgroup PWR_LL_Exported_Macros PWR Exported Macros
 388:Drivers/STM32WBxx_HAL_Driver/Inc/stm32wbxx_ll_pwr.h ****   * @{
 389:Drivers/STM32WBxx_HAL_Driver/Inc/stm32wbxx_ll_pwr.h ****   */
 390:Drivers/STM32WBxx_HAL_Driver/Inc/stm32wbxx_ll_pwr.h **** 
 391:Drivers/STM32WBxx_HAL_Driver/Inc/stm32wbxx_ll_pwr.h **** /** @defgroup PWR_LL_EM_WRITE_READ Common Write and read registers Macros
 392:Drivers/STM32WBxx_HAL_Driver/Inc/stm32wbxx_ll_pwr.h ****   * @{
 393:Drivers/STM32WBxx_HAL_Driver/Inc/stm32wbxx_ll_pwr.h ****   */
 394:Drivers/STM32WBxx_HAL_Driver/Inc/stm32wbxx_ll_pwr.h **** 
 395:Drivers/STM32WBxx_HAL_Driver/Inc/stm32wbxx_ll_pwr.h **** /**
 396:Drivers/STM32WBxx_HAL_Driver/Inc/stm32wbxx_ll_pwr.h ****   * @brief  Write a value in PWR register
 397:Drivers/STM32WBxx_HAL_Driver/Inc/stm32wbxx_ll_pwr.h ****   * @param  __REG__ Register to be written
 398:Drivers/STM32WBxx_HAL_Driver/Inc/stm32wbxx_ll_pwr.h ****   * @param  __VALUE__ Value to be written in the register
 399:Drivers/STM32WBxx_HAL_Driver/Inc/stm32wbxx_ll_pwr.h ****   * @retval None
 400:Drivers/STM32WBxx_HAL_Driver/Inc/stm32wbxx_ll_pwr.h ****   */
 401:Drivers/STM32WBxx_HAL_Driver/Inc/stm32wbxx_ll_pwr.h **** #define LL_PWR_WriteReg(__REG__, __VALUE__) WRITE_REG(PWR->__REG__, (__VALUE__))
 402:Drivers/STM32WBxx_HAL_Driver/Inc/stm32wbxx_ll_pwr.h **** 
 403:Drivers/STM32WBxx_HAL_Driver/Inc/stm32wbxx_ll_pwr.h **** /**
 404:Drivers/STM32WBxx_HAL_Driver/Inc/stm32wbxx_ll_pwr.h ****   * @brief  Read a value in PWR register
 405:Drivers/STM32WBxx_HAL_Driver/Inc/stm32wbxx_ll_pwr.h ****   * @param  __REG__ Register to be read
 406:Drivers/STM32WBxx_HAL_Driver/Inc/stm32wbxx_ll_pwr.h ****   * @retval Register value
 407:Drivers/STM32WBxx_HAL_Driver/Inc/stm32wbxx_ll_pwr.h ****   */
 408:Drivers/STM32WBxx_HAL_Driver/Inc/stm32wbxx_ll_pwr.h **** #define LL_PWR_ReadReg(__REG__) READ_REG(PWR->__REG__)
 409:Drivers/STM32WBxx_HAL_Driver/Inc/stm32wbxx_ll_pwr.h **** /**
 410:Drivers/STM32WBxx_HAL_Driver/Inc/stm32wbxx_ll_pwr.h ****   * @}
ARM GAS  /tmp/ccRrvtNP.s 			page 42


 411:Drivers/STM32WBxx_HAL_Driver/Inc/stm32wbxx_ll_pwr.h ****   */
 412:Drivers/STM32WBxx_HAL_Driver/Inc/stm32wbxx_ll_pwr.h **** 
 413:Drivers/STM32WBxx_HAL_Driver/Inc/stm32wbxx_ll_pwr.h **** /**
 414:Drivers/STM32WBxx_HAL_Driver/Inc/stm32wbxx_ll_pwr.h ****   * @}
 415:Drivers/STM32WBxx_HAL_Driver/Inc/stm32wbxx_ll_pwr.h ****   */
 416:Drivers/STM32WBxx_HAL_Driver/Inc/stm32wbxx_ll_pwr.h **** 
 417:Drivers/STM32WBxx_HAL_Driver/Inc/stm32wbxx_ll_pwr.h **** 
 418:Drivers/STM32WBxx_HAL_Driver/Inc/stm32wbxx_ll_pwr.h **** /* Exported functions --------------------------------------------------------*/
 419:Drivers/STM32WBxx_HAL_Driver/Inc/stm32wbxx_ll_pwr.h **** /** @defgroup PWR_LL_Exported_Functions PWR Exported Functions
 420:Drivers/STM32WBxx_HAL_Driver/Inc/stm32wbxx_ll_pwr.h ****   * @{
 421:Drivers/STM32WBxx_HAL_Driver/Inc/stm32wbxx_ll_pwr.h ****   */
 422:Drivers/STM32WBxx_HAL_Driver/Inc/stm32wbxx_ll_pwr.h **** 
 423:Drivers/STM32WBxx_HAL_Driver/Inc/stm32wbxx_ll_pwr.h **** /** @defgroup PWR_LL_EF_Configuration Configuration
 424:Drivers/STM32WBxx_HAL_Driver/Inc/stm32wbxx_ll_pwr.h ****   * @{
 425:Drivers/STM32WBxx_HAL_Driver/Inc/stm32wbxx_ll_pwr.h ****   */
 426:Drivers/STM32WBxx_HAL_Driver/Inc/stm32wbxx_ll_pwr.h **** 
 427:Drivers/STM32WBxx_HAL_Driver/Inc/stm32wbxx_ll_pwr.h **** /**
 428:Drivers/STM32WBxx_HAL_Driver/Inc/stm32wbxx_ll_pwr.h ****   * @brief  Switch from run main mode to run low-power mode.
 429:Drivers/STM32WBxx_HAL_Driver/Inc/stm32wbxx_ll_pwr.h ****   * @rmtoll CR1          LPR           LL_PWR_EnterLowPowerRunMode
 430:Drivers/STM32WBxx_HAL_Driver/Inc/stm32wbxx_ll_pwr.h ****   * @retval None
 431:Drivers/STM32WBxx_HAL_Driver/Inc/stm32wbxx_ll_pwr.h ****   */
 432:Drivers/STM32WBxx_HAL_Driver/Inc/stm32wbxx_ll_pwr.h **** __STATIC_INLINE void LL_PWR_EnterLowPowerRunMode(void)
 433:Drivers/STM32WBxx_HAL_Driver/Inc/stm32wbxx_ll_pwr.h **** {
 434:Drivers/STM32WBxx_HAL_Driver/Inc/stm32wbxx_ll_pwr.h ****   SET_BIT(PWR->CR1, PWR_CR1_LPR);
 435:Drivers/STM32WBxx_HAL_Driver/Inc/stm32wbxx_ll_pwr.h **** }
 436:Drivers/STM32WBxx_HAL_Driver/Inc/stm32wbxx_ll_pwr.h **** 
 437:Drivers/STM32WBxx_HAL_Driver/Inc/stm32wbxx_ll_pwr.h **** /**
 438:Drivers/STM32WBxx_HAL_Driver/Inc/stm32wbxx_ll_pwr.h ****   * @brief  Switch from run main mode to low-power mode.
 439:Drivers/STM32WBxx_HAL_Driver/Inc/stm32wbxx_ll_pwr.h ****   * @rmtoll CR1          LPR           LL_PWR_ExitLowPowerRunMode
 440:Drivers/STM32WBxx_HAL_Driver/Inc/stm32wbxx_ll_pwr.h ****   * @retval None
 441:Drivers/STM32WBxx_HAL_Driver/Inc/stm32wbxx_ll_pwr.h ****   */
 442:Drivers/STM32WBxx_HAL_Driver/Inc/stm32wbxx_ll_pwr.h **** __STATIC_INLINE void LL_PWR_ExitLowPowerRunMode(void)
 443:Drivers/STM32WBxx_HAL_Driver/Inc/stm32wbxx_ll_pwr.h **** {
 444:Drivers/STM32WBxx_HAL_Driver/Inc/stm32wbxx_ll_pwr.h ****   CLEAR_BIT(PWR->CR1, PWR_CR1_LPR);
 445:Drivers/STM32WBxx_HAL_Driver/Inc/stm32wbxx_ll_pwr.h **** }
 446:Drivers/STM32WBxx_HAL_Driver/Inc/stm32wbxx_ll_pwr.h **** 
 447:Drivers/STM32WBxx_HAL_Driver/Inc/stm32wbxx_ll_pwr.h **** /**
 448:Drivers/STM32WBxx_HAL_Driver/Inc/stm32wbxx_ll_pwr.h ****   * @brief  Check if the regulator is in low-power mode
 449:Drivers/STM32WBxx_HAL_Driver/Inc/stm32wbxx_ll_pwr.h ****   * @rmtoll CR1          LPR           LL_PWR_IsEnabledLowPowerRunMode
 450:Drivers/STM32WBxx_HAL_Driver/Inc/stm32wbxx_ll_pwr.h ****   * @retval State of bit (1 or 0).
 451:Drivers/STM32WBxx_HAL_Driver/Inc/stm32wbxx_ll_pwr.h ****   */
 452:Drivers/STM32WBxx_HAL_Driver/Inc/stm32wbxx_ll_pwr.h **** __STATIC_INLINE uint32_t LL_PWR_IsEnabledLowPowerRunMode(void)
 453:Drivers/STM32WBxx_HAL_Driver/Inc/stm32wbxx_ll_pwr.h **** {
 454:Drivers/STM32WBxx_HAL_Driver/Inc/stm32wbxx_ll_pwr.h ****   return ((READ_BIT(PWR->CR1, PWR_CR1_LPR) == (PWR_CR1_LPR)) ? 1UL : 0UL);
 455:Drivers/STM32WBxx_HAL_Driver/Inc/stm32wbxx_ll_pwr.h **** }
 456:Drivers/STM32WBxx_HAL_Driver/Inc/stm32wbxx_ll_pwr.h **** 
 457:Drivers/STM32WBxx_HAL_Driver/Inc/stm32wbxx_ll_pwr.h **** #if defined(PWR_CR1_VOS)
 458:Drivers/STM32WBxx_HAL_Driver/Inc/stm32wbxx_ll_pwr.h **** /**
 459:Drivers/STM32WBxx_HAL_Driver/Inc/stm32wbxx_ll_pwr.h ****   * @brief  Set the main internal regulator output voltage
 460:Drivers/STM32WBxx_HAL_Driver/Inc/stm32wbxx_ll_pwr.h ****   * @note   A delay is required for the internal regulator to be ready 
 461:Drivers/STM32WBxx_HAL_Driver/Inc/stm32wbxx_ll_pwr.h ****   *         after the voltage scaling has been changed.
 462:Drivers/STM32WBxx_HAL_Driver/Inc/stm32wbxx_ll_pwr.h ****   *         Check whether regulator reached the selected voltage level
 463:Drivers/STM32WBxx_HAL_Driver/Inc/stm32wbxx_ll_pwr.h ****   *         can be done using function @ref LL_PWR_IsActiveFlag_VOS().
 464:Drivers/STM32WBxx_HAL_Driver/Inc/stm32wbxx_ll_pwr.h ****   * @rmtoll CR1          VOS           LL_PWR_SetRegulVoltageScaling
 465:Drivers/STM32WBxx_HAL_Driver/Inc/stm32wbxx_ll_pwr.h ****   * @param  VoltageScaling This parameter can be one of the following values:
 466:Drivers/STM32WBxx_HAL_Driver/Inc/stm32wbxx_ll_pwr.h ****   *         @arg @ref LL_PWR_REGU_VOLTAGE_SCALE1
 467:Drivers/STM32WBxx_HAL_Driver/Inc/stm32wbxx_ll_pwr.h ****   *         @arg @ref LL_PWR_REGU_VOLTAGE_SCALE2
ARM GAS  /tmp/ccRrvtNP.s 			page 43


 468:Drivers/STM32WBxx_HAL_Driver/Inc/stm32wbxx_ll_pwr.h ****   * @retval None
 469:Drivers/STM32WBxx_HAL_Driver/Inc/stm32wbxx_ll_pwr.h ****   */
 470:Drivers/STM32WBxx_HAL_Driver/Inc/stm32wbxx_ll_pwr.h **** __STATIC_INLINE void LL_PWR_SetRegulVoltageScaling(uint32_t VoltageScaling)
 471:Drivers/STM32WBxx_HAL_Driver/Inc/stm32wbxx_ll_pwr.h **** {
 472:Drivers/STM32WBxx_HAL_Driver/Inc/stm32wbxx_ll_pwr.h ****   MODIFY_REG(PWR->CR1, PWR_CR1_VOS, VoltageScaling);
 473:Drivers/STM32WBxx_HAL_Driver/Inc/stm32wbxx_ll_pwr.h **** }
 474:Drivers/STM32WBxx_HAL_Driver/Inc/stm32wbxx_ll_pwr.h **** 
 475:Drivers/STM32WBxx_HAL_Driver/Inc/stm32wbxx_ll_pwr.h **** /**
 476:Drivers/STM32WBxx_HAL_Driver/Inc/stm32wbxx_ll_pwr.h ****   * @brief  Get the main internal regulator output voltage
 477:Drivers/STM32WBxx_HAL_Driver/Inc/stm32wbxx_ll_pwr.h ****   * @rmtoll CR1          VOS           LL_PWR_GetRegulVoltageScaling
 478:Drivers/STM32WBxx_HAL_Driver/Inc/stm32wbxx_ll_pwr.h ****   * @retval Returned value can be one of the following values:
 479:Drivers/STM32WBxx_HAL_Driver/Inc/stm32wbxx_ll_pwr.h ****   *         @arg @ref LL_PWR_REGU_VOLTAGE_SCALE1
 480:Drivers/STM32WBxx_HAL_Driver/Inc/stm32wbxx_ll_pwr.h ****   *         @arg @ref LL_PWR_REGU_VOLTAGE_SCALE2
 481:Drivers/STM32WBxx_HAL_Driver/Inc/stm32wbxx_ll_pwr.h ****   */
 482:Drivers/STM32WBxx_HAL_Driver/Inc/stm32wbxx_ll_pwr.h **** __STATIC_INLINE uint32_t LL_PWR_GetRegulVoltageScaling(void)
 483:Drivers/STM32WBxx_HAL_Driver/Inc/stm32wbxx_ll_pwr.h **** {
 484:Drivers/STM32WBxx_HAL_Driver/Inc/stm32wbxx_ll_pwr.h ****   return (uint32_t)(READ_BIT(PWR->CR1, PWR_CR1_VOS));
 485:Drivers/STM32WBxx_HAL_Driver/Inc/stm32wbxx_ll_pwr.h **** }
 486:Drivers/STM32WBxx_HAL_Driver/Inc/stm32wbxx_ll_pwr.h **** #endif
 487:Drivers/STM32WBxx_HAL_Driver/Inc/stm32wbxx_ll_pwr.h **** 
 488:Drivers/STM32WBxx_HAL_Driver/Inc/stm32wbxx_ll_pwr.h **** /**
 489:Drivers/STM32WBxx_HAL_Driver/Inc/stm32wbxx_ll_pwr.h ****   * @brief  Enable access to the backup domain
 490:Drivers/STM32WBxx_HAL_Driver/Inc/stm32wbxx_ll_pwr.h ****   * @rmtoll CR1          DBP           LL_PWR_EnableBkUpAccess
 491:Drivers/STM32WBxx_HAL_Driver/Inc/stm32wbxx_ll_pwr.h ****   * @retval None
 492:Drivers/STM32WBxx_HAL_Driver/Inc/stm32wbxx_ll_pwr.h ****   */
 493:Drivers/STM32WBxx_HAL_Driver/Inc/stm32wbxx_ll_pwr.h **** __STATIC_INLINE void LL_PWR_EnableBkUpAccess(void)
 494:Drivers/STM32WBxx_HAL_Driver/Inc/stm32wbxx_ll_pwr.h **** {
 495:Drivers/STM32WBxx_HAL_Driver/Inc/stm32wbxx_ll_pwr.h ****   SET_BIT(PWR->CR1, PWR_CR1_DBP);
 496:Drivers/STM32WBxx_HAL_Driver/Inc/stm32wbxx_ll_pwr.h **** }
 497:Drivers/STM32WBxx_HAL_Driver/Inc/stm32wbxx_ll_pwr.h **** 
 498:Drivers/STM32WBxx_HAL_Driver/Inc/stm32wbxx_ll_pwr.h **** /**
 499:Drivers/STM32WBxx_HAL_Driver/Inc/stm32wbxx_ll_pwr.h ****   * @brief  Disable access to the backup domain
 500:Drivers/STM32WBxx_HAL_Driver/Inc/stm32wbxx_ll_pwr.h ****   * @rmtoll CR1          DBP           LL_PWR_DisableBkUpAccess
 501:Drivers/STM32WBxx_HAL_Driver/Inc/stm32wbxx_ll_pwr.h ****   * @retval None
 502:Drivers/STM32WBxx_HAL_Driver/Inc/stm32wbxx_ll_pwr.h ****   */
 503:Drivers/STM32WBxx_HAL_Driver/Inc/stm32wbxx_ll_pwr.h **** __STATIC_INLINE void LL_PWR_DisableBkUpAccess(void)
 504:Drivers/STM32WBxx_HAL_Driver/Inc/stm32wbxx_ll_pwr.h **** {
 505:Drivers/STM32WBxx_HAL_Driver/Inc/stm32wbxx_ll_pwr.h ****   CLEAR_BIT(PWR->CR1, PWR_CR1_DBP);
 506:Drivers/STM32WBxx_HAL_Driver/Inc/stm32wbxx_ll_pwr.h **** }
 507:Drivers/STM32WBxx_HAL_Driver/Inc/stm32wbxx_ll_pwr.h **** 
 508:Drivers/STM32WBxx_HAL_Driver/Inc/stm32wbxx_ll_pwr.h **** /**
 509:Drivers/STM32WBxx_HAL_Driver/Inc/stm32wbxx_ll_pwr.h ****   * @brief  Check if the backup domain is enabled
 510:Drivers/STM32WBxx_HAL_Driver/Inc/stm32wbxx_ll_pwr.h ****   * @rmtoll CR1          DBP           LL_PWR_IsEnabledBkUpAccess
 511:Drivers/STM32WBxx_HAL_Driver/Inc/stm32wbxx_ll_pwr.h ****   * @retval State of bit (1 or 0).
 512:Drivers/STM32WBxx_HAL_Driver/Inc/stm32wbxx_ll_pwr.h ****   */
 513:Drivers/STM32WBxx_HAL_Driver/Inc/stm32wbxx_ll_pwr.h **** __STATIC_INLINE uint32_t LL_PWR_IsEnabledBkUpAccess(void)
 514:Drivers/STM32WBxx_HAL_Driver/Inc/stm32wbxx_ll_pwr.h **** {
 515:Drivers/STM32WBxx_HAL_Driver/Inc/stm32wbxx_ll_pwr.h ****   return ((READ_BIT(PWR->CR1, PWR_CR1_DBP) == (PWR_CR1_DBP)) ? 1UL : 0UL);
 516:Drivers/STM32WBxx_HAL_Driver/Inc/stm32wbxx_ll_pwr.h **** }
 517:Drivers/STM32WBxx_HAL_Driver/Inc/stm32wbxx_ll_pwr.h **** 
 518:Drivers/STM32WBxx_HAL_Driver/Inc/stm32wbxx_ll_pwr.h **** /**
 519:Drivers/STM32WBxx_HAL_Driver/Inc/stm32wbxx_ll_pwr.h ****   * @brief  Set Low-Power mode
 520:Drivers/STM32WBxx_HAL_Driver/Inc/stm32wbxx_ll_pwr.h ****   * @rmtoll CR1          LPMS          LL_PWR_SetPowerMode
 521:Drivers/STM32WBxx_HAL_Driver/Inc/stm32wbxx_ll_pwr.h ****   * @param  LowPowerMode This parameter can be one of the following values:
 522:Drivers/STM32WBxx_HAL_Driver/Inc/stm32wbxx_ll_pwr.h ****   *         @arg @ref LL_PWR_MODE_STOP0
 523:Drivers/STM32WBxx_HAL_Driver/Inc/stm32wbxx_ll_pwr.h ****   *         @arg @ref LL_PWR_MODE_STOP1
 524:Drivers/STM32WBxx_HAL_Driver/Inc/stm32wbxx_ll_pwr.h ****   *         @arg @ref LL_PWR_MODE_STOP2
ARM GAS  /tmp/ccRrvtNP.s 			page 44


 525:Drivers/STM32WBxx_HAL_Driver/Inc/stm32wbxx_ll_pwr.h ****   *         @arg @ref LL_PWR_MODE_STANDBY
 526:Drivers/STM32WBxx_HAL_Driver/Inc/stm32wbxx_ll_pwr.h ****   *         @arg @ref LL_PWR_MODE_SHUTDOWN
 527:Drivers/STM32WBxx_HAL_Driver/Inc/stm32wbxx_ll_pwr.h ****   * @retval None
 528:Drivers/STM32WBxx_HAL_Driver/Inc/stm32wbxx_ll_pwr.h ****   */
 529:Drivers/STM32WBxx_HAL_Driver/Inc/stm32wbxx_ll_pwr.h **** __STATIC_INLINE void LL_PWR_SetPowerMode(uint32_t LowPowerMode)
 530:Drivers/STM32WBxx_HAL_Driver/Inc/stm32wbxx_ll_pwr.h **** {
 531:Drivers/STM32WBxx_HAL_Driver/Inc/stm32wbxx_ll_pwr.h ****   MODIFY_REG(PWR->CR1, PWR_CR1_LPMS, LowPowerMode);
 532:Drivers/STM32WBxx_HAL_Driver/Inc/stm32wbxx_ll_pwr.h **** }
 533:Drivers/STM32WBxx_HAL_Driver/Inc/stm32wbxx_ll_pwr.h **** 
 534:Drivers/STM32WBxx_HAL_Driver/Inc/stm32wbxx_ll_pwr.h **** /**
 535:Drivers/STM32WBxx_HAL_Driver/Inc/stm32wbxx_ll_pwr.h ****   * @brief  Get Low-Power mode
 536:Drivers/STM32WBxx_HAL_Driver/Inc/stm32wbxx_ll_pwr.h ****   * @rmtoll CR1          LPMS          LL_PWR_GetPowerMode
 537:Drivers/STM32WBxx_HAL_Driver/Inc/stm32wbxx_ll_pwr.h ****   * @retval Returned value can be one of the following values:
 538:Drivers/STM32WBxx_HAL_Driver/Inc/stm32wbxx_ll_pwr.h ****   *         @arg @ref LL_PWR_MODE_STOP0
 539:Drivers/STM32WBxx_HAL_Driver/Inc/stm32wbxx_ll_pwr.h ****   *         @arg @ref LL_PWR_MODE_STOP1
 540:Drivers/STM32WBxx_HAL_Driver/Inc/stm32wbxx_ll_pwr.h ****   *         @arg @ref LL_PWR_MODE_STOP2
 541:Drivers/STM32WBxx_HAL_Driver/Inc/stm32wbxx_ll_pwr.h ****   *         @arg @ref LL_PWR_MODE_STANDBY
 542:Drivers/STM32WBxx_HAL_Driver/Inc/stm32wbxx_ll_pwr.h ****   *         @arg @ref LL_PWR_MODE_SHUTDOWN
 543:Drivers/STM32WBxx_HAL_Driver/Inc/stm32wbxx_ll_pwr.h ****   */
 544:Drivers/STM32WBxx_HAL_Driver/Inc/stm32wbxx_ll_pwr.h **** __STATIC_INLINE uint32_t LL_PWR_GetPowerMode(void)
 545:Drivers/STM32WBxx_HAL_Driver/Inc/stm32wbxx_ll_pwr.h **** {
 546:Drivers/STM32WBxx_HAL_Driver/Inc/stm32wbxx_ll_pwr.h ****   return (uint32_t)(READ_BIT(PWR->CR1, PWR_CR1_LPMS));
 547:Drivers/STM32WBxx_HAL_Driver/Inc/stm32wbxx_ll_pwr.h **** }
 548:Drivers/STM32WBxx_HAL_Driver/Inc/stm32wbxx_ll_pwr.h **** 
 549:Drivers/STM32WBxx_HAL_Driver/Inc/stm32wbxx_ll_pwr.h **** /**
 550:Drivers/STM32WBxx_HAL_Driver/Inc/stm32wbxx_ll_pwr.h ****   * @brief  Set flash power-down mode during low-power run mode
 551:Drivers/STM32WBxx_HAL_Driver/Inc/stm32wbxx_ll_pwr.h ****   * @rmtoll CR1          FPDR          LL_PWR_SetFlashPowerModeLPRun
 552:Drivers/STM32WBxx_HAL_Driver/Inc/stm32wbxx_ll_pwr.h ****   * @param  FlashLowPowerMode This parameter can be one of the following values:
 553:Drivers/STM32WBxx_HAL_Driver/Inc/stm32wbxx_ll_pwr.h ****   *         @arg @ref LL_PWR_FLASH_LPRUN_MODE_IDLE
 554:Drivers/STM32WBxx_HAL_Driver/Inc/stm32wbxx_ll_pwr.h ****   *         @arg @ref LL_PWR_FLASH_LPRUN_MODE_POWER_DOWN
 555:Drivers/STM32WBxx_HAL_Driver/Inc/stm32wbxx_ll_pwr.h ****   * @retval None
 556:Drivers/STM32WBxx_HAL_Driver/Inc/stm32wbxx_ll_pwr.h ****   */
 557:Drivers/STM32WBxx_HAL_Driver/Inc/stm32wbxx_ll_pwr.h **** __STATIC_INLINE void LL_PWR_SetFlashPowerModeLPRun(uint32_t FlashLowPowerMode)
 558:Drivers/STM32WBxx_HAL_Driver/Inc/stm32wbxx_ll_pwr.h **** {
 559:Drivers/STM32WBxx_HAL_Driver/Inc/stm32wbxx_ll_pwr.h ****   /* Unlock bit FPDR */
 560:Drivers/STM32WBxx_HAL_Driver/Inc/stm32wbxx_ll_pwr.h ****   WRITE_REG(PWR->CR1, 0x0000C1B0U);
 561:Drivers/STM32WBxx_HAL_Driver/Inc/stm32wbxx_ll_pwr.h ****   
 562:Drivers/STM32WBxx_HAL_Driver/Inc/stm32wbxx_ll_pwr.h ****   /* Update bit FPDR */
 563:Drivers/STM32WBxx_HAL_Driver/Inc/stm32wbxx_ll_pwr.h ****   MODIFY_REG(PWR->CR1, PWR_CR1_FPDR, FlashLowPowerMode);
 564:Drivers/STM32WBxx_HAL_Driver/Inc/stm32wbxx_ll_pwr.h **** }
 565:Drivers/STM32WBxx_HAL_Driver/Inc/stm32wbxx_ll_pwr.h **** 
 566:Drivers/STM32WBxx_HAL_Driver/Inc/stm32wbxx_ll_pwr.h **** /**
 567:Drivers/STM32WBxx_HAL_Driver/Inc/stm32wbxx_ll_pwr.h ****   * @brief  Get flash power-down mode during low-power run mode
 568:Drivers/STM32WBxx_HAL_Driver/Inc/stm32wbxx_ll_pwr.h ****   * @rmtoll CR1          FPDR          LL_PWR_GetFlashPowerModeLPRun
 569:Drivers/STM32WBxx_HAL_Driver/Inc/stm32wbxx_ll_pwr.h ****   * @retval Returned value can be one of the following values:
 570:Drivers/STM32WBxx_HAL_Driver/Inc/stm32wbxx_ll_pwr.h ****   *         @arg @ref LL_PWR_FLASH_LPRUN_MODE_IDLE
 571:Drivers/STM32WBxx_HAL_Driver/Inc/stm32wbxx_ll_pwr.h ****   *         @arg @ref LL_PWR_FLASH_LPRUN_MODE_POWER_DOWN
 572:Drivers/STM32WBxx_HAL_Driver/Inc/stm32wbxx_ll_pwr.h ****   */
 573:Drivers/STM32WBxx_HAL_Driver/Inc/stm32wbxx_ll_pwr.h **** __STATIC_INLINE uint32_t LL_PWR_GetFlashPowerModeLPRun(void)
 574:Drivers/STM32WBxx_HAL_Driver/Inc/stm32wbxx_ll_pwr.h **** {
 575:Drivers/STM32WBxx_HAL_Driver/Inc/stm32wbxx_ll_pwr.h ****   return (uint32_t)(READ_BIT(PWR->CR1, PWR_CR1_FPDR));
 576:Drivers/STM32WBxx_HAL_Driver/Inc/stm32wbxx_ll_pwr.h **** }
 577:Drivers/STM32WBxx_HAL_Driver/Inc/stm32wbxx_ll_pwr.h **** 
 578:Drivers/STM32WBxx_HAL_Driver/Inc/stm32wbxx_ll_pwr.h **** /**
 579:Drivers/STM32WBxx_HAL_Driver/Inc/stm32wbxx_ll_pwr.h ****   * @brief  Set flash power-down mode during sleep mode
 580:Drivers/STM32WBxx_HAL_Driver/Inc/stm32wbxx_ll_pwr.h ****   * @rmtoll CR1          FPDS          LL_PWR_SetFlashPowerModeSleep
 581:Drivers/STM32WBxx_HAL_Driver/Inc/stm32wbxx_ll_pwr.h ****   * @param  FlashLowPowerMode This parameter can be one of the following values:
ARM GAS  /tmp/ccRrvtNP.s 			page 45


 582:Drivers/STM32WBxx_HAL_Driver/Inc/stm32wbxx_ll_pwr.h ****   *         @arg @ref LL_PWR_FLASH_SLEEP_MODE_IDLE
 583:Drivers/STM32WBxx_HAL_Driver/Inc/stm32wbxx_ll_pwr.h ****   *         @arg @ref LL_PWR_FLASH_SLEEP_MODE_POWER_DOWN
 584:Drivers/STM32WBxx_HAL_Driver/Inc/stm32wbxx_ll_pwr.h ****   * @retval None
 585:Drivers/STM32WBxx_HAL_Driver/Inc/stm32wbxx_ll_pwr.h ****   */
 586:Drivers/STM32WBxx_HAL_Driver/Inc/stm32wbxx_ll_pwr.h **** __STATIC_INLINE void LL_PWR_SetFlashPowerModeSleep(uint32_t FlashLowPowerMode)
 587:Drivers/STM32WBxx_HAL_Driver/Inc/stm32wbxx_ll_pwr.h **** {
 588:Drivers/STM32WBxx_HAL_Driver/Inc/stm32wbxx_ll_pwr.h ****   MODIFY_REG(PWR->CR1, PWR_CR1_FPDS, FlashLowPowerMode);
 589:Drivers/STM32WBxx_HAL_Driver/Inc/stm32wbxx_ll_pwr.h **** }
 590:Drivers/STM32WBxx_HAL_Driver/Inc/stm32wbxx_ll_pwr.h **** 
 591:Drivers/STM32WBxx_HAL_Driver/Inc/stm32wbxx_ll_pwr.h **** /**
 592:Drivers/STM32WBxx_HAL_Driver/Inc/stm32wbxx_ll_pwr.h ****   * @brief  Get flash power-down mode during sleep mode
 593:Drivers/STM32WBxx_HAL_Driver/Inc/stm32wbxx_ll_pwr.h ****   * @rmtoll CR1          FPDS          LL_PWR_GetFlashPowerModeSleep
 594:Drivers/STM32WBxx_HAL_Driver/Inc/stm32wbxx_ll_pwr.h ****   * @retval Returned value can be one of the following values:
 595:Drivers/STM32WBxx_HAL_Driver/Inc/stm32wbxx_ll_pwr.h ****   *         @arg @ref LL_PWR_FLASH_SLEEP_MODE_IDLE
 596:Drivers/STM32WBxx_HAL_Driver/Inc/stm32wbxx_ll_pwr.h ****   *         @arg @ref LL_PWR_FLASH_SLEEP_MODE_POWER_DOWN
 597:Drivers/STM32WBxx_HAL_Driver/Inc/stm32wbxx_ll_pwr.h ****   */
 598:Drivers/STM32WBxx_HAL_Driver/Inc/stm32wbxx_ll_pwr.h **** __STATIC_INLINE uint32_t LL_PWR_GetFlashPowerModeSleep(void)
 599:Drivers/STM32WBxx_HAL_Driver/Inc/stm32wbxx_ll_pwr.h **** {
 600:Drivers/STM32WBxx_HAL_Driver/Inc/stm32wbxx_ll_pwr.h ****   return (uint32_t)(READ_BIT(PWR->CR1, PWR_CR1_FPDS));
 601:Drivers/STM32WBxx_HAL_Driver/Inc/stm32wbxx_ll_pwr.h **** }
 602:Drivers/STM32WBxx_HAL_Driver/Inc/stm32wbxx_ll_pwr.h **** 
 603:Drivers/STM32WBxx_HAL_Driver/Inc/stm32wbxx_ll_pwr.h **** #if defined(PWR_CR2_PVME1)
 604:Drivers/STM32WBxx_HAL_Driver/Inc/stm32wbxx_ll_pwr.h **** /**
 605:Drivers/STM32WBxx_HAL_Driver/Inc/stm32wbxx_ll_pwr.h ****   * @brief  Enable VDDUSB supply
 606:Drivers/STM32WBxx_HAL_Driver/Inc/stm32wbxx_ll_pwr.h ****   * @rmtoll CR2          USV           LL_PWR_EnableVddUSB
 607:Drivers/STM32WBxx_HAL_Driver/Inc/stm32wbxx_ll_pwr.h ****   * @retval None
 608:Drivers/STM32WBxx_HAL_Driver/Inc/stm32wbxx_ll_pwr.h ****   */
 609:Drivers/STM32WBxx_HAL_Driver/Inc/stm32wbxx_ll_pwr.h **** __STATIC_INLINE void LL_PWR_EnableVddUSB(void)
 610:Drivers/STM32WBxx_HAL_Driver/Inc/stm32wbxx_ll_pwr.h **** {
 611:Drivers/STM32WBxx_HAL_Driver/Inc/stm32wbxx_ll_pwr.h ****   SET_BIT(PWR->CR2, PWR_CR2_USV);
 612:Drivers/STM32WBxx_HAL_Driver/Inc/stm32wbxx_ll_pwr.h **** }
 613:Drivers/STM32WBxx_HAL_Driver/Inc/stm32wbxx_ll_pwr.h **** 
 614:Drivers/STM32WBxx_HAL_Driver/Inc/stm32wbxx_ll_pwr.h **** /**
 615:Drivers/STM32WBxx_HAL_Driver/Inc/stm32wbxx_ll_pwr.h ****   * @brief  Disable VDDUSB supply
 616:Drivers/STM32WBxx_HAL_Driver/Inc/stm32wbxx_ll_pwr.h ****   * @rmtoll CR2          USV           LL_PWR_DisableVddUSB
 617:Drivers/STM32WBxx_HAL_Driver/Inc/stm32wbxx_ll_pwr.h ****   * @retval None
 618:Drivers/STM32WBxx_HAL_Driver/Inc/stm32wbxx_ll_pwr.h ****   */
 619:Drivers/STM32WBxx_HAL_Driver/Inc/stm32wbxx_ll_pwr.h **** __STATIC_INLINE void LL_PWR_DisableVddUSB(void)
 620:Drivers/STM32WBxx_HAL_Driver/Inc/stm32wbxx_ll_pwr.h **** {
 621:Drivers/STM32WBxx_HAL_Driver/Inc/stm32wbxx_ll_pwr.h ****   CLEAR_BIT(PWR->CR2, PWR_CR2_USV);
 622:Drivers/STM32WBxx_HAL_Driver/Inc/stm32wbxx_ll_pwr.h **** }
 623:Drivers/STM32WBxx_HAL_Driver/Inc/stm32wbxx_ll_pwr.h **** 
 624:Drivers/STM32WBxx_HAL_Driver/Inc/stm32wbxx_ll_pwr.h **** /**
 625:Drivers/STM32WBxx_HAL_Driver/Inc/stm32wbxx_ll_pwr.h ****   * @brief  Check if VDDUSB supply is enabled
 626:Drivers/STM32WBxx_HAL_Driver/Inc/stm32wbxx_ll_pwr.h ****   * @rmtoll CR2          USV           LL_PWR_IsEnabledVddUSB
 627:Drivers/STM32WBxx_HAL_Driver/Inc/stm32wbxx_ll_pwr.h ****   * @retval State of bit (1 or 0).
 628:Drivers/STM32WBxx_HAL_Driver/Inc/stm32wbxx_ll_pwr.h ****   */
 629:Drivers/STM32WBxx_HAL_Driver/Inc/stm32wbxx_ll_pwr.h **** __STATIC_INLINE uint32_t LL_PWR_IsEnabledVddUSB(void)
 630:Drivers/STM32WBxx_HAL_Driver/Inc/stm32wbxx_ll_pwr.h **** {
 631:Drivers/STM32WBxx_HAL_Driver/Inc/stm32wbxx_ll_pwr.h ****   return ((READ_BIT(PWR->CR2, PWR_CR2_USV) == (PWR_CR2_USV)) ? 1UL : 0UL);
 632:Drivers/STM32WBxx_HAL_Driver/Inc/stm32wbxx_ll_pwr.h **** }
 633:Drivers/STM32WBxx_HAL_Driver/Inc/stm32wbxx_ll_pwr.h **** #endif
 634:Drivers/STM32WBxx_HAL_Driver/Inc/stm32wbxx_ll_pwr.h **** 
 635:Drivers/STM32WBxx_HAL_Driver/Inc/stm32wbxx_ll_pwr.h **** /**
 636:Drivers/STM32WBxx_HAL_Driver/Inc/stm32wbxx_ll_pwr.h ****   * @brief  Enable the Power Voltage Monitoring on a peripheral
 637:Drivers/STM32WBxx_HAL_Driver/Inc/stm32wbxx_ll_pwr.h ****   * @rmtoll CR2          PVME1         LL_PWR_EnablePVM\n
 638:Drivers/STM32WBxx_HAL_Driver/Inc/stm32wbxx_ll_pwr.h ****   *         CR2          PVME3         LL_PWR_EnablePVM
ARM GAS  /tmp/ccRrvtNP.s 			page 46


 639:Drivers/STM32WBxx_HAL_Driver/Inc/stm32wbxx_ll_pwr.h ****   * @param  PeriphVoltage This parameter can be one of the following values:
 640:Drivers/STM32WBxx_HAL_Driver/Inc/stm32wbxx_ll_pwr.h ****   *         @arg @ref LL_PWR_PVM_VDDUSB_1_2V (*)
 641:Drivers/STM32WBxx_HAL_Driver/Inc/stm32wbxx_ll_pwr.h ****   *         @arg @ref LL_PWR_PVM_VDDA_1_62V
 642:Drivers/STM32WBxx_HAL_Driver/Inc/stm32wbxx_ll_pwr.h ****   *
 643:Drivers/STM32WBxx_HAL_Driver/Inc/stm32wbxx_ll_pwr.h ****   *         (*) Not available on devices STM32WB50xx
 644:Drivers/STM32WBxx_HAL_Driver/Inc/stm32wbxx_ll_pwr.h ****   * @retval None
 645:Drivers/STM32WBxx_HAL_Driver/Inc/stm32wbxx_ll_pwr.h ****   */
 646:Drivers/STM32WBxx_HAL_Driver/Inc/stm32wbxx_ll_pwr.h **** __STATIC_INLINE void LL_PWR_EnablePVM(uint32_t PeriphVoltage)
 647:Drivers/STM32WBxx_HAL_Driver/Inc/stm32wbxx_ll_pwr.h **** {
 648:Drivers/STM32WBxx_HAL_Driver/Inc/stm32wbxx_ll_pwr.h ****   SET_BIT(PWR->CR2, PeriphVoltage);
 649:Drivers/STM32WBxx_HAL_Driver/Inc/stm32wbxx_ll_pwr.h **** }
 650:Drivers/STM32WBxx_HAL_Driver/Inc/stm32wbxx_ll_pwr.h **** 
 651:Drivers/STM32WBxx_HAL_Driver/Inc/stm32wbxx_ll_pwr.h **** /**
 652:Drivers/STM32WBxx_HAL_Driver/Inc/stm32wbxx_ll_pwr.h ****   * @brief  Disable the Power Voltage Monitoring on a peripheral
 653:Drivers/STM32WBxx_HAL_Driver/Inc/stm32wbxx_ll_pwr.h ****   * @rmtoll CR2          PVME1         LL_PWR_DisablePVM\n
 654:Drivers/STM32WBxx_HAL_Driver/Inc/stm32wbxx_ll_pwr.h ****   *         CR2          PVME3         LL_PWR_DisablePVM
 655:Drivers/STM32WBxx_HAL_Driver/Inc/stm32wbxx_ll_pwr.h ****   * @param  PeriphVoltage This parameter can be one of the following values:
 656:Drivers/STM32WBxx_HAL_Driver/Inc/stm32wbxx_ll_pwr.h ****   *         @arg @ref LL_PWR_PVM_VDDUSB_1_2V (*)
 657:Drivers/STM32WBxx_HAL_Driver/Inc/stm32wbxx_ll_pwr.h ****   *         @arg @ref LL_PWR_PVM_VDDA_1_62V
 658:Drivers/STM32WBxx_HAL_Driver/Inc/stm32wbxx_ll_pwr.h ****   *
 659:Drivers/STM32WBxx_HAL_Driver/Inc/stm32wbxx_ll_pwr.h ****   *         (*) Not available on devices STM32WB50xx
 660:Drivers/STM32WBxx_HAL_Driver/Inc/stm32wbxx_ll_pwr.h ****   * @retval None
 661:Drivers/STM32WBxx_HAL_Driver/Inc/stm32wbxx_ll_pwr.h ****   */
 662:Drivers/STM32WBxx_HAL_Driver/Inc/stm32wbxx_ll_pwr.h **** __STATIC_INLINE void LL_PWR_DisablePVM(uint32_t PeriphVoltage)
 663:Drivers/STM32WBxx_HAL_Driver/Inc/stm32wbxx_ll_pwr.h **** {
 664:Drivers/STM32WBxx_HAL_Driver/Inc/stm32wbxx_ll_pwr.h ****   CLEAR_BIT(PWR->CR2, PeriphVoltage);
 665:Drivers/STM32WBxx_HAL_Driver/Inc/stm32wbxx_ll_pwr.h **** }
 666:Drivers/STM32WBxx_HAL_Driver/Inc/stm32wbxx_ll_pwr.h **** 
 667:Drivers/STM32WBxx_HAL_Driver/Inc/stm32wbxx_ll_pwr.h **** /**
 668:Drivers/STM32WBxx_HAL_Driver/Inc/stm32wbxx_ll_pwr.h ****   * @brief  Check if Power Voltage Monitoring is enabled on a peripheral
 669:Drivers/STM32WBxx_HAL_Driver/Inc/stm32wbxx_ll_pwr.h ****   * @rmtoll CR2          PVME1         LL_PWR_IsEnabledPVM\n
 670:Drivers/STM32WBxx_HAL_Driver/Inc/stm32wbxx_ll_pwr.h ****   *         CR2          PVME3         LL_PWR_IsEnabledPVM
 671:Drivers/STM32WBxx_HAL_Driver/Inc/stm32wbxx_ll_pwr.h ****   * @param  PeriphVoltage This parameter can be one of the following values:
 672:Drivers/STM32WBxx_HAL_Driver/Inc/stm32wbxx_ll_pwr.h ****   *         @arg @ref LL_PWR_PVM_VDDUSB_1_2V (*)
 673:Drivers/STM32WBxx_HAL_Driver/Inc/stm32wbxx_ll_pwr.h ****   *         @arg @ref LL_PWR_PVM_VDDA_1_62V
 674:Drivers/STM32WBxx_HAL_Driver/Inc/stm32wbxx_ll_pwr.h ****   *
 675:Drivers/STM32WBxx_HAL_Driver/Inc/stm32wbxx_ll_pwr.h ****   *         (*) Not available on devices STM32WB50xx
 676:Drivers/STM32WBxx_HAL_Driver/Inc/stm32wbxx_ll_pwr.h ****   * @retval State of bit (1 or 0).
 677:Drivers/STM32WBxx_HAL_Driver/Inc/stm32wbxx_ll_pwr.h ****   */
 678:Drivers/STM32WBxx_HAL_Driver/Inc/stm32wbxx_ll_pwr.h **** __STATIC_INLINE uint32_t LL_PWR_IsEnabledPVM(uint32_t PeriphVoltage)
 679:Drivers/STM32WBxx_HAL_Driver/Inc/stm32wbxx_ll_pwr.h **** {
 680:Drivers/STM32WBxx_HAL_Driver/Inc/stm32wbxx_ll_pwr.h ****   return ((READ_BIT(PWR->CR2, PeriphVoltage) == (PeriphVoltage)) ? 1UL : 0UL);
 681:Drivers/STM32WBxx_HAL_Driver/Inc/stm32wbxx_ll_pwr.h **** }
 682:Drivers/STM32WBxx_HAL_Driver/Inc/stm32wbxx_ll_pwr.h **** 
 683:Drivers/STM32WBxx_HAL_Driver/Inc/stm32wbxx_ll_pwr.h **** /**
 684:Drivers/STM32WBxx_HAL_Driver/Inc/stm32wbxx_ll_pwr.h ****   * @brief  Configure the voltage threshold detected by the Power Voltage Detector
 685:Drivers/STM32WBxx_HAL_Driver/Inc/stm32wbxx_ll_pwr.h ****   * @rmtoll CR2          PLS           LL_PWR_SetPVDLevel
 686:Drivers/STM32WBxx_HAL_Driver/Inc/stm32wbxx_ll_pwr.h ****   * @param  PVDLevel This parameter can be one of the following values:
 687:Drivers/STM32WBxx_HAL_Driver/Inc/stm32wbxx_ll_pwr.h ****   *         @arg @ref LL_PWR_PVDLEVEL_0
 688:Drivers/STM32WBxx_HAL_Driver/Inc/stm32wbxx_ll_pwr.h ****   *         @arg @ref LL_PWR_PVDLEVEL_1
 689:Drivers/STM32WBxx_HAL_Driver/Inc/stm32wbxx_ll_pwr.h ****   *         @arg @ref LL_PWR_PVDLEVEL_2
 690:Drivers/STM32WBxx_HAL_Driver/Inc/stm32wbxx_ll_pwr.h ****   *         @arg @ref LL_PWR_PVDLEVEL_3
 691:Drivers/STM32WBxx_HAL_Driver/Inc/stm32wbxx_ll_pwr.h ****   *         @arg @ref LL_PWR_PVDLEVEL_4
 692:Drivers/STM32WBxx_HAL_Driver/Inc/stm32wbxx_ll_pwr.h ****   *         @arg @ref LL_PWR_PVDLEVEL_5
 693:Drivers/STM32WBxx_HAL_Driver/Inc/stm32wbxx_ll_pwr.h ****   *         @arg @ref LL_PWR_PVDLEVEL_6
 694:Drivers/STM32WBxx_HAL_Driver/Inc/stm32wbxx_ll_pwr.h ****   *         @arg @ref LL_PWR_PVDLEVEL_7
 695:Drivers/STM32WBxx_HAL_Driver/Inc/stm32wbxx_ll_pwr.h ****   * @retval None
ARM GAS  /tmp/ccRrvtNP.s 			page 47


 696:Drivers/STM32WBxx_HAL_Driver/Inc/stm32wbxx_ll_pwr.h ****   */
 697:Drivers/STM32WBxx_HAL_Driver/Inc/stm32wbxx_ll_pwr.h **** __STATIC_INLINE void LL_PWR_SetPVDLevel(uint32_t PVDLevel)
 698:Drivers/STM32WBxx_HAL_Driver/Inc/stm32wbxx_ll_pwr.h **** {
 699:Drivers/STM32WBxx_HAL_Driver/Inc/stm32wbxx_ll_pwr.h ****   MODIFY_REG(PWR->CR2, PWR_CR2_PLS, PVDLevel);
 700:Drivers/STM32WBxx_HAL_Driver/Inc/stm32wbxx_ll_pwr.h **** }
 701:Drivers/STM32WBxx_HAL_Driver/Inc/stm32wbxx_ll_pwr.h **** 
 702:Drivers/STM32WBxx_HAL_Driver/Inc/stm32wbxx_ll_pwr.h **** /**
 703:Drivers/STM32WBxx_HAL_Driver/Inc/stm32wbxx_ll_pwr.h ****   * @brief  Get the voltage threshold detection
 704:Drivers/STM32WBxx_HAL_Driver/Inc/stm32wbxx_ll_pwr.h ****   * @rmtoll CR2          PLS           LL_PWR_GetPVDLevel
 705:Drivers/STM32WBxx_HAL_Driver/Inc/stm32wbxx_ll_pwr.h ****   * @retval Returned value can be one of the following values:
 706:Drivers/STM32WBxx_HAL_Driver/Inc/stm32wbxx_ll_pwr.h ****   *         @arg @ref LL_PWR_PVDLEVEL_0
 707:Drivers/STM32WBxx_HAL_Driver/Inc/stm32wbxx_ll_pwr.h ****   *         @arg @ref LL_PWR_PVDLEVEL_1
 708:Drivers/STM32WBxx_HAL_Driver/Inc/stm32wbxx_ll_pwr.h ****   *         @arg @ref LL_PWR_PVDLEVEL_2
 709:Drivers/STM32WBxx_HAL_Driver/Inc/stm32wbxx_ll_pwr.h ****   *         @arg @ref LL_PWR_PVDLEVEL_3
 710:Drivers/STM32WBxx_HAL_Driver/Inc/stm32wbxx_ll_pwr.h ****   *         @arg @ref LL_PWR_PVDLEVEL_4
 711:Drivers/STM32WBxx_HAL_Driver/Inc/stm32wbxx_ll_pwr.h ****   *         @arg @ref LL_PWR_PVDLEVEL_5
 712:Drivers/STM32WBxx_HAL_Driver/Inc/stm32wbxx_ll_pwr.h ****   *         @arg @ref LL_PWR_PVDLEVEL_6
 713:Drivers/STM32WBxx_HAL_Driver/Inc/stm32wbxx_ll_pwr.h ****   *         @arg @ref LL_PWR_PVDLEVEL_7
 714:Drivers/STM32WBxx_HAL_Driver/Inc/stm32wbxx_ll_pwr.h ****   */
 715:Drivers/STM32WBxx_HAL_Driver/Inc/stm32wbxx_ll_pwr.h **** __STATIC_INLINE uint32_t LL_PWR_GetPVDLevel(void)
 716:Drivers/STM32WBxx_HAL_Driver/Inc/stm32wbxx_ll_pwr.h **** {
 717:Drivers/STM32WBxx_HAL_Driver/Inc/stm32wbxx_ll_pwr.h ****   return (uint32_t)(READ_BIT(PWR->CR2, PWR_CR2_PLS));
 718:Drivers/STM32WBxx_HAL_Driver/Inc/stm32wbxx_ll_pwr.h **** }
 719:Drivers/STM32WBxx_HAL_Driver/Inc/stm32wbxx_ll_pwr.h **** 
 720:Drivers/STM32WBxx_HAL_Driver/Inc/stm32wbxx_ll_pwr.h **** /**
 721:Drivers/STM32WBxx_HAL_Driver/Inc/stm32wbxx_ll_pwr.h ****   * @brief  Enable Power Voltage Detector
 722:Drivers/STM32WBxx_HAL_Driver/Inc/stm32wbxx_ll_pwr.h ****   * @rmtoll CR2          PVDE          LL_PWR_EnablePVD
 723:Drivers/STM32WBxx_HAL_Driver/Inc/stm32wbxx_ll_pwr.h ****   * @retval None
 724:Drivers/STM32WBxx_HAL_Driver/Inc/stm32wbxx_ll_pwr.h ****   */
 725:Drivers/STM32WBxx_HAL_Driver/Inc/stm32wbxx_ll_pwr.h **** __STATIC_INLINE void LL_PWR_EnablePVD(void)
 726:Drivers/STM32WBxx_HAL_Driver/Inc/stm32wbxx_ll_pwr.h **** {
 727:Drivers/STM32WBxx_HAL_Driver/Inc/stm32wbxx_ll_pwr.h ****   SET_BIT(PWR->CR2, PWR_CR2_PVDE);
 728:Drivers/STM32WBxx_HAL_Driver/Inc/stm32wbxx_ll_pwr.h **** }
 729:Drivers/STM32WBxx_HAL_Driver/Inc/stm32wbxx_ll_pwr.h **** 
 730:Drivers/STM32WBxx_HAL_Driver/Inc/stm32wbxx_ll_pwr.h **** /**
 731:Drivers/STM32WBxx_HAL_Driver/Inc/stm32wbxx_ll_pwr.h ****   * @brief  Disable Power Voltage Detector
 732:Drivers/STM32WBxx_HAL_Driver/Inc/stm32wbxx_ll_pwr.h ****   * @rmtoll CR2          PVDE          LL_PWR_DisablePVD
 733:Drivers/STM32WBxx_HAL_Driver/Inc/stm32wbxx_ll_pwr.h ****   * @retval None
 734:Drivers/STM32WBxx_HAL_Driver/Inc/stm32wbxx_ll_pwr.h ****   */
 735:Drivers/STM32WBxx_HAL_Driver/Inc/stm32wbxx_ll_pwr.h **** __STATIC_INLINE void LL_PWR_DisablePVD(void)
 736:Drivers/STM32WBxx_HAL_Driver/Inc/stm32wbxx_ll_pwr.h **** {
 737:Drivers/STM32WBxx_HAL_Driver/Inc/stm32wbxx_ll_pwr.h ****   CLEAR_BIT(PWR->CR2, PWR_CR2_PVDE);
 738:Drivers/STM32WBxx_HAL_Driver/Inc/stm32wbxx_ll_pwr.h **** }
 739:Drivers/STM32WBxx_HAL_Driver/Inc/stm32wbxx_ll_pwr.h **** 
 740:Drivers/STM32WBxx_HAL_Driver/Inc/stm32wbxx_ll_pwr.h **** /**
 741:Drivers/STM32WBxx_HAL_Driver/Inc/stm32wbxx_ll_pwr.h ****   * @brief  Check if Power Voltage Detector is enabled
 742:Drivers/STM32WBxx_HAL_Driver/Inc/stm32wbxx_ll_pwr.h ****   * @rmtoll CR2          PVDE          LL_PWR_IsEnabledPVD
 743:Drivers/STM32WBxx_HAL_Driver/Inc/stm32wbxx_ll_pwr.h ****   * @retval State of bit (1 or 0).
 744:Drivers/STM32WBxx_HAL_Driver/Inc/stm32wbxx_ll_pwr.h ****   */
 745:Drivers/STM32WBxx_HAL_Driver/Inc/stm32wbxx_ll_pwr.h **** __STATIC_INLINE uint32_t LL_PWR_IsEnabledPVD(void)
 746:Drivers/STM32WBxx_HAL_Driver/Inc/stm32wbxx_ll_pwr.h **** {
 747:Drivers/STM32WBxx_HAL_Driver/Inc/stm32wbxx_ll_pwr.h ****   return ((READ_BIT(PWR->CR2, PWR_CR2_PVDE) == (PWR_CR2_PVDE)) ? 1UL : 0UL);
 748:Drivers/STM32WBxx_HAL_Driver/Inc/stm32wbxx_ll_pwr.h **** }
 749:Drivers/STM32WBxx_HAL_Driver/Inc/stm32wbxx_ll_pwr.h **** 
 750:Drivers/STM32WBxx_HAL_Driver/Inc/stm32wbxx_ll_pwr.h **** /**
 751:Drivers/STM32WBxx_HAL_Driver/Inc/stm32wbxx_ll_pwr.h ****   * @brief  Enable Internal Wake-up line
 752:Drivers/STM32WBxx_HAL_Driver/Inc/stm32wbxx_ll_pwr.h ****   * @rmtoll CR3          EIWF          LL_PWR_EnableInternWU
ARM GAS  /tmp/ccRrvtNP.s 			page 48


 753:Drivers/STM32WBxx_HAL_Driver/Inc/stm32wbxx_ll_pwr.h ****   * @retval None
 754:Drivers/STM32WBxx_HAL_Driver/Inc/stm32wbxx_ll_pwr.h ****   */
 755:Drivers/STM32WBxx_HAL_Driver/Inc/stm32wbxx_ll_pwr.h **** __STATIC_INLINE void LL_PWR_EnableInternWU(void)
 756:Drivers/STM32WBxx_HAL_Driver/Inc/stm32wbxx_ll_pwr.h **** {
 757:Drivers/STM32WBxx_HAL_Driver/Inc/stm32wbxx_ll_pwr.h ****   SET_BIT(PWR->CR3, PWR_CR3_EIWUL);
 758:Drivers/STM32WBxx_HAL_Driver/Inc/stm32wbxx_ll_pwr.h **** }
 759:Drivers/STM32WBxx_HAL_Driver/Inc/stm32wbxx_ll_pwr.h **** 
 760:Drivers/STM32WBxx_HAL_Driver/Inc/stm32wbxx_ll_pwr.h **** /**
 761:Drivers/STM32WBxx_HAL_Driver/Inc/stm32wbxx_ll_pwr.h ****   * @brief  Disable Internal Wake-up line
 762:Drivers/STM32WBxx_HAL_Driver/Inc/stm32wbxx_ll_pwr.h ****   * @rmtoll CR3          EIWF          LL_PWR_DisableInternWU
 763:Drivers/STM32WBxx_HAL_Driver/Inc/stm32wbxx_ll_pwr.h ****   * @retval None
 764:Drivers/STM32WBxx_HAL_Driver/Inc/stm32wbxx_ll_pwr.h ****   */
 765:Drivers/STM32WBxx_HAL_Driver/Inc/stm32wbxx_ll_pwr.h **** __STATIC_INLINE void LL_PWR_DisableInternWU(void)
 766:Drivers/STM32WBxx_HAL_Driver/Inc/stm32wbxx_ll_pwr.h **** {
 767:Drivers/STM32WBxx_HAL_Driver/Inc/stm32wbxx_ll_pwr.h ****   CLEAR_BIT(PWR->CR3, PWR_CR3_EIWUL);
 768:Drivers/STM32WBxx_HAL_Driver/Inc/stm32wbxx_ll_pwr.h **** }
 769:Drivers/STM32WBxx_HAL_Driver/Inc/stm32wbxx_ll_pwr.h **** 
 770:Drivers/STM32WBxx_HAL_Driver/Inc/stm32wbxx_ll_pwr.h **** /**
 771:Drivers/STM32WBxx_HAL_Driver/Inc/stm32wbxx_ll_pwr.h ****   * @brief  Check if Internal Wake-up line is enabled
 772:Drivers/STM32WBxx_HAL_Driver/Inc/stm32wbxx_ll_pwr.h ****   * @rmtoll CR3          EIWF          LL_PWR_IsEnabledInternWU
 773:Drivers/STM32WBxx_HAL_Driver/Inc/stm32wbxx_ll_pwr.h ****   * @retval State of bit (1 or 0).
 774:Drivers/STM32WBxx_HAL_Driver/Inc/stm32wbxx_ll_pwr.h ****   */
 775:Drivers/STM32WBxx_HAL_Driver/Inc/stm32wbxx_ll_pwr.h **** __STATIC_INLINE uint32_t LL_PWR_IsEnabledInternWU(void)
 776:Drivers/STM32WBxx_HAL_Driver/Inc/stm32wbxx_ll_pwr.h **** {
 777:Drivers/STM32WBxx_HAL_Driver/Inc/stm32wbxx_ll_pwr.h ****   return ((READ_BIT(PWR->CR3, PWR_CR3_EIWUL) == (PWR_CR3_EIWUL)) ? 1UL : 0UL);
 778:Drivers/STM32WBxx_HAL_Driver/Inc/stm32wbxx_ll_pwr.h **** }
 779:Drivers/STM32WBxx_HAL_Driver/Inc/stm32wbxx_ll_pwr.h **** 
 780:Drivers/STM32WBxx_HAL_Driver/Inc/stm32wbxx_ll_pwr.h **** /**
 781:Drivers/STM32WBxx_HAL_Driver/Inc/stm32wbxx_ll_pwr.h ****   * @brief  Enable pull-up and pull-down configuration
 782:Drivers/STM32WBxx_HAL_Driver/Inc/stm32wbxx_ll_pwr.h ****   * @rmtoll CR3          APC           LL_PWR_EnablePUPDCfg
 783:Drivers/STM32WBxx_HAL_Driver/Inc/stm32wbxx_ll_pwr.h ****   * @retval None
 784:Drivers/STM32WBxx_HAL_Driver/Inc/stm32wbxx_ll_pwr.h ****   */
 785:Drivers/STM32WBxx_HAL_Driver/Inc/stm32wbxx_ll_pwr.h **** __STATIC_INLINE void LL_PWR_EnablePUPDCfg(void)
 786:Drivers/STM32WBxx_HAL_Driver/Inc/stm32wbxx_ll_pwr.h **** {
 787:Drivers/STM32WBxx_HAL_Driver/Inc/stm32wbxx_ll_pwr.h ****   SET_BIT(PWR->CR3, PWR_CR3_APC);
 788:Drivers/STM32WBxx_HAL_Driver/Inc/stm32wbxx_ll_pwr.h **** }
 789:Drivers/STM32WBxx_HAL_Driver/Inc/stm32wbxx_ll_pwr.h **** 
 790:Drivers/STM32WBxx_HAL_Driver/Inc/stm32wbxx_ll_pwr.h **** /**
 791:Drivers/STM32WBxx_HAL_Driver/Inc/stm32wbxx_ll_pwr.h ****   * @brief  Disable pull-up and pull-down configuration
 792:Drivers/STM32WBxx_HAL_Driver/Inc/stm32wbxx_ll_pwr.h ****   * @rmtoll CR3          APC           LL_PWR_DisablePUPDCfg
 793:Drivers/STM32WBxx_HAL_Driver/Inc/stm32wbxx_ll_pwr.h ****   * @retval None
 794:Drivers/STM32WBxx_HAL_Driver/Inc/stm32wbxx_ll_pwr.h ****   */
 795:Drivers/STM32WBxx_HAL_Driver/Inc/stm32wbxx_ll_pwr.h **** __STATIC_INLINE void LL_PWR_DisablePUPDCfg(void)
 796:Drivers/STM32WBxx_HAL_Driver/Inc/stm32wbxx_ll_pwr.h **** {
 797:Drivers/STM32WBxx_HAL_Driver/Inc/stm32wbxx_ll_pwr.h ****   CLEAR_BIT(PWR->CR3, PWR_CR3_APC);
 798:Drivers/STM32WBxx_HAL_Driver/Inc/stm32wbxx_ll_pwr.h **** }
 799:Drivers/STM32WBxx_HAL_Driver/Inc/stm32wbxx_ll_pwr.h **** 
 800:Drivers/STM32WBxx_HAL_Driver/Inc/stm32wbxx_ll_pwr.h **** /**
 801:Drivers/STM32WBxx_HAL_Driver/Inc/stm32wbxx_ll_pwr.h ****   * @brief  Check if pull-up and pull-down configuration is enabled
 802:Drivers/STM32WBxx_HAL_Driver/Inc/stm32wbxx_ll_pwr.h ****   * @rmtoll CR3          APC           LL_PWR_IsEnabledPUPDCfg
 803:Drivers/STM32WBxx_HAL_Driver/Inc/stm32wbxx_ll_pwr.h ****   * @retval State of bit (1 or 0).
 804:Drivers/STM32WBxx_HAL_Driver/Inc/stm32wbxx_ll_pwr.h ****   */
 805:Drivers/STM32WBxx_HAL_Driver/Inc/stm32wbxx_ll_pwr.h **** __STATIC_INLINE uint32_t LL_PWR_IsEnabledPUPDCfg(void)
 806:Drivers/STM32WBxx_HAL_Driver/Inc/stm32wbxx_ll_pwr.h **** {
 807:Drivers/STM32WBxx_HAL_Driver/Inc/stm32wbxx_ll_pwr.h ****   return ((READ_BIT(PWR->CR3, PWR_CR3_APC) == (PWR_CR3_APC)) ? 1UL : 0UL);
 808:Drivers/STM32WBxx_HAL_Driver/Inc/stm32wbxx_ll_pwr.h **** }
 809:Drivers/STM32WBxx_HAL_Driver/Inc/stm32wbxx_ll_pwr.h **** 
ARM GAS  /tmp/ccRrvtNP.s 			page 49


 810:Drivers/STM32WBxx_HAL_Driver/Inc/stm32wbxx_ll_pwr.h **** /**
 811:Drivers/STM32WBxx_HAL_Driver/Inc/stm32wbxx_ll_pwr.h ****   * @brief  Enable SRAM2 content retention in Standby mode
 812:Drivers/STM32WBxx_HAL_Driver/Inc/stm32wbxx_ll_pwr.h ****   * @rmtoll CR3          RRS           LL_PWR_EnableSRAM2Retention
 813:Drivers/STM32WBxx_HAL_Driver/Inc/stm32wbxx_ll_pwr.h ****   * @retval None
 814:Drivers/STM32WBxx_HAL_Driver/Inc/stm32wbxx_ll_pwr.h ****   */
 815:Drivers/STM32WBxx_HAL_Driver/Inc/stm32wbxx_ll_pwr.h **** __STATIC_INLINE void LL_PWR_EnableSRAM2Retention(void)
 816:Drivers/STM32WBxx_HAL_Driver/Inc/stm32wbxx_ll_pwr.h **** {
 817:Drivers/STM32WBxx_HAL_Driver/Inc/stm32wbxx_ll_pwr.h ****   SET_BIT(PWR->CR3, PWR_CR3_RRS);
 818:Drivers/STM32WBxx_HAL_Driver/Inc/stm32wbxx_ll_pwr.h **** }
 819:Drivers/STM32WBxx_HAL_Driver/Inc/stm32wbxx_ll_pwr.h **** 
 820:Drivers/STM32WBxx_HAL_Driver/Inc/stm32wbxx_ll_pwr.h **** /**
 821:Drivers/STM32WBxx_HAL_Driver/Inc/stm32wbxx_ll_pwr.h ****   * @brief  Disable SRAM2 content retention in Standby mode
 822:Drivers/STM32WBxx_HAL_Driver/Inc/stm32wbxx_ll_pwr.h ****   * @rmtoll CR3          RRS           LL_PWR_DisableSRAM2Retention
 823:Drivers/STM32WBxx_HAL_Driver/Inc/stm32wbxx_ll_pwr.h ****   * @retval None
 824:Drivers/STM32WBxx_HAL_Driver/Inc/stm32wbxx_ll_pwr.h ****   */
 825:Drivers/STM32WBxx_HAL_Driver/Inc/stm32wbxx_ll_pwr.h **** __STATIC_INLINE void LL_PWR_DisableSRAM2Retention(void)
 826:Drivers/STM32WBxx_HAL_Driver/Inc/stm32wbxx_ll_pwr.h **** {
 827:Drivers/STM32WBxx_HAL_Driver/Inc/stm32wbxx_ll_pwr.h ****   CLEAR_BIT(PWR->CR3, PWR_CR3_RRS);
 828:Drivers/STM32WBxx_HAL_Driver/Inc/stm32wbxx_ll_pwr.h **** }
 829:Drivers/STM32WBxx_HAL_Driver/Inc/stm32wbxx_ll_pwr.h **** 
 830:Drivers/STM32WBxx_HAL_Driver/Inc/stm32wbxx_ll_pwr.h **** /**
 831:Drivers/STM32WBxx_HAL_Driver/Inc/stm32wbxx_ll_pwr.h ****   * @brief  Check if SRAM2 content retention in Standby mode  is enabled
 832:Drivers/STM32WBxx_HAL_Driver/Inc/stm32wbxx_ll_pwr.h ****   * @rmtoll CR3          RRS           LL_PWR_IsEnabledSRAM2Retention
 833:Drivers/STM32WBxx_HAL_Driver/Inc/stm32wbxx_ll_pwr.h ****   * @retval State of bit (1 or 0).
 834:Drivers/STM32WBxx_HAL_Driver/Inc/stm32wbxx_ll_pwr.h ****   */
 835:Drivers/STM32WBxx_HAL_Driver/Inc/stm32wbxx_ll_pwr.h **** __STATIC_INLINE uint32_t LL_PWR_IsEnabledSRAM2Retention(void)
 836:Drivers/STM32WBxx_HAL_Driver/Inc/stm32wbxx_ll_pwr.h **** {
 837:Drivers/STM32WBxx_HAL_Driver/Inc/stm32wbxx_ll_pwr.h ****   return ((READ_BIT(PWR->CR3, PWR_CR3_RRS) == (PWR_CR3_RRS)) ? 1UL : 0UL);
 838:Drivers/STM32WBxx_HAL_Driver/Inc/stm32wbxx_ll_pwr.h **** }
 839:Drivers/STM32WBxx_HAL_Driver/Inc/stm32wbxx_ll_pwr.h **** 
 840:Drivers/STM32WBxx_HAL_Driver/Inc/stm32wbxx_ll_pwr.h **** /**
 841:Drivers/STM32WBxx_HAL_Driver/Inc/stm32wbxx_ll_pwr.h ****   * @brief  Enable the WakeUp PINx functionality
 842:Drivers/STM32WBxx_HAL_Driver/Inc/stm32wbxx_ll_pwr.h ****   * @rmtoll CR3          EWUP1         LL_PWR_EnableWakeUpPin\n
 843:Drivers/STM32WBxx_HAL_Driver/Inc/stm32wbxx_ll_pwr.h ****   *         CR3          EWUP2         LL_PWR_EnableWakeUpPin\n
 844:Drivers/STM32WBxx_HAL_Driver/Inc/stm32wbxx_ll_pwr.h ****   *         CR3          EWUP3         LL_PWR_EnableWakeUpPin\n
 845:Drivers/STM32WBxx_HAL_Driver/Inc/stm32wbxx_ll_pwr.h ****   *         CR3          EWUP4         LL_PWR_EnableWakeUpPin\n
 846:Drivers/STM32WBxx_HAL_Driver/Inc/stm32wbxx_ll_pwr.h ****   *         CR3          EWUP5         LL_PWR_EnableWakeUpPin\n
 847:Drivers/STM32WBxx_HAL_Driver/Inc/stm32wbxx_ll_pwr.h ****   * @param  WakeUpPin This parameter can be one of the following values:
 848:Drivers/STM32WBxx_HAL_Driver/Inc/stm32wbxx_ll_pwr.h ****   *         @arg @ref LL_PWR_WAKEUP_PIN1
 849:Drivers/STM32WBxx_HAL_Driver/Inc/stm32wbxx_ll_pwr.h ****   *         @arg @ref LL_PWR_WAKEUP_PIN2 (*)
 850:Drivers/STM32WBxx_HAL_Driver/Inc/stm32wbxx_ll_pwr.h ****   *         @arg @ref LL_PWR_WAKEUP_PIN3 (*)
 851:Drivers/STM32WBxx_HAL_Driver/Inc/stm32wbxx_ll_pwr.h ****   *         @arg @ref LL_PWR_WAKEUP_PIN4
 852:Drivers/STM32WBxx_HAL_Driver/Inc/stm32wbxx_ll_pwr.h ****   *         @arg @ref LL_PWR_WAKEUP_PIN5 (*)
 853:Drivers/STM32WBxx_HAL_Driver/Inc/stm32wbxx_ll_pwr.h ****   *
 854:Drivers/STM32WBxx_HAL_Driver/Inc/stm32wbxx_ll_pwr.h ****   *         (*) Not available on devices STM32WB50xx
 855:Drivers/STM32WBxx_HAL_Driver/Inc/stm32wbxx_ll_pwr.h ****   * @retval None
 856:Drivers/STM32WBxx_HAL_Driver/Inc/stm32wbxx_ll_pwr.h ****   */
 857:Drivers/STM32WBxx_HAL_Driver/Inc/stm32wbxx_ll_pwr.h **** __STATIC_INLINE void LL_PWR_EnableWakeUpPin(uint32_t WakeUpPin)
 858:Drivers/STM32WBxx_HAL_Driver/Inc/stm32wbxx_ll_pwr.h **** {
 859:Drivers/STM32WBxx_HAL_Driver/Inc/stm32wbxx_ll_pwr.h ****   SET_BIT(PWR->CR3, WakeUpPin);
 860:Drivers/STM32WBxx_HAL_Driver/Inc/stm32wbxx_ll_pwr.h **** }
 861:Drivers/STM32WBxx_HAL_Driver/Inc/stm32wbxx_ll_pwr.h **** 
 862:Drivers/STM32WBxx_HAL_Driver/Inc/stm32wbxx_ll_pwr.h **** /**
 863:Drivers/STM32WBxx_HAL_Driver/Inc/stm32wbxx_ll_pwr.h ****   * @brief  Disable the WakeUp PINx functionality
 864:Drivers/STM32WBxx_HAL_Driver/Inc/stm32wbxx_ll_pwr.h ****   * @rmtoll CR3          EWUP1         LL_PWR_DisableWakeUpPin\n
 865:Drivers/STM32WBxx_HAL_Driver/Inc/stm32wbxx_ll_pwr.h ****   *         CR3          EWUP2         LL_PWR_DisableWakeUpPin\n
 866:Drivers/STM32WBxx_HAL_Driver/Inc/stm32wbxx_ll_pwr.h ****   *         CR3          EWUP3         LL_PWR_DisableWakeUpPin\n
ARM GAS  /tmp/ccRrvtNP.s 			page 50


 867:Drivers/STM32WBxx_HAL_Driver/Inc/stm32wbxx_ll_pwr.h ****   *         CR3          EWUP4         LL_PWR_DisableWakeUpPin\n
 868:Drivers/STM32WBxx_HAL_Driver/Inc/stm32wbxx_ll_pwr.h ****   *         CR3          EWUP5         LL_PWR_DisableWakeUpPin\n
 869:Drivers/STM32WBxx_HAL_Driver/Inc/stm32wbxx_ll_pwr.h ****   * @param  WakeUpPin This parameter can be one of the following values:
 870:Drivers/STM32WBxx_HAL_Driver/Inc/stm32wbxx_ll_pwr.h ****   *         @arg @ref LL_PWR_WAKEUP_PIN1
 871:Drivers/STM32WBxx_HAL_Driver/Inc/stm32wbxx_ll_pwr.h ****   *         @arg @ref LL_PWR_WAKEUP_PIN2 (*)
 872:Drivers/STM32WBxx_HAL_Driver/Inc/stm32wbxx_ll_pwr.h ****   *         @arg @ref LL_PWR_WAKEUP_PIN3 (*)
 873:Drivers/STM32WBxx_HAL_Driver/Inc/stm32wbxx_ll_pwr.h ****   *         @arg @ref LL_PWR_WAKEUP_PIN4
 874:Drivers/STM32WBxx_HAL_Driver/Inc/stm32wbxx_ll_pwr.h ****   *         @arg @ref LL_PWR_WAKEUP_PIN5 (*)
 875:Drivers/STM32WBxx_HAL_Driver/Inc/stm32wbxx_ll_pwr.h ****   *
 876:Drivers/STM32WBxx_HAL_Driver/Inc/stm32wbxx_ll_pwr.h ****   *         (*) Not available on devices STM32WB50xx
 877:Drivers/STM32WBxx_HAL_Driver/Inc/stm32wbxx_ll_pwr.h ****   * @retval None
 878:Drivers/STM32WBxx_HAL_Driver/Inc/stm32wbxx_ll_pwr.h ****   */
 879:Drivers/STM32WBxx_HAL_Driver/Inc/stm32wbxx_ll_pwr.h **** __STATIC_INLINE void LL_PWR_DisableWakeUpPin(uint32_t WakeUpPin)
 880:Drivers/STM32WBxx_HAL_Driver/Inc/stm32wbxx_ll_pwr.h **** {
 881:Drivers/STM32WBxx_HAL_Driver/Inc/stm32wbxx_ll_pwr.h ****   CLEAR_BIT(PWR->CR3, WakeUpPin);
 882:Drivers/STM32WBxx_HAL_Driver/Inc/stm32wbxx_ll_pwr.h **** }
 883:Drivers/STM32WBxx_HAL_Driver/Inc/stm32wbxx_ll_pwr.h **** 
 884:Drivers/STM32WBxx_HAL_Driver/Inc/stm32wbxx_ll_pwr.h **** /**
 885:Drivers/STM32WBxx_HAL_Driver/Inc/stm32wbxx_ll_pwr.h ****   * @brief  Check if the WakeUp PINx functionality is enabled
 886:Drivers/STM32WBxx_HAL_Driver/Inc/stm32wbxx_ll_pwr.h ****   * @rmtoll CR3          EWUP1         LL_PWR_IsEnabledWakeUpPin\n
 887:Drivers/STM32WBxx_HAL_Driver/Inc/stm32wbxx_ll_pwr.h ****   *         CR3          EWUP2         LL_PWR_IsEnabledWakeUpPin\n
 888:Drivers/STM32WBxx_HAL_Driver/Inc/stm32wbxx_ll_pwr.h ****   *         CR3          EWUP3         LL_PWR_IsEnabledWakeUpPin\n
 889:Drivers/STM32WBxx_HAL_Driver/Inc/stm32wbxx_ll_pwr.h ****   *         CR3          EWUP4         LL_PWR_IsEnabledWakeUpPin\n
 890:Drivers/STM32WBxx_HAL_Driver/Inc/stm32wbxx_ll_pwr.h ****   *         CR3          EWUP5         LL_PWR_IsEnabledWakeUpPin\n
 891:Drivers/STM32WBxx_HAL_Driver/Inc/stm32wbxx_ll_pwr.h ****   * @param  WakeUpPin This parameter can be one of the following values:
 892:Drivers/STM32WBxx_HAL_Driver/Inc/stm32wbxx_ll_pwr.h ****   *         @arg @ref LL_PWR_WAKEUP_PIN1
 893:Drivers/STM32WBxx_HAL_Driver/Inc/stm32wbxx_ll_pwr.h ****   *         @arg @ref LL_PWR_WAKEUP_PIN2 (*)
 894:Drivers/STM32WBxx_HAL_Driver/Inc/stm32wbxx_ll_pwr.h ****   *         @arg @ref LL_PWR_WAKEUP_PIN3 (*)
 895:Drivers/STM32WBxx_HAL_Driver/Inc/stm32wbxx_ll_pwr.h ****   *         @arg @ref LL_PWR_WAKEUP_PIN4
 896:Drivers/STM32WBxx_HAL_Driver/Inc/stm32wbxx_ll_pwr.h ****   *         @arg @ref LL_PWR_WAKEUP_PIN5 (*)
 897:Drivers/STM32WBxx_HAL_Driver/Inc/stm32wbxx_ll_pwr.h ****   *
 898:Drivers/STM32WBxx_HAL_Driver/Inc/stm32wbxx_ll_pwr.h ****   *         (*) Not available on devices STM32WB50xx
 899:Drivers/STM32WBxx_HAL_Driver/Inc/stm32wbxx_ll_pwr.h ****   * @retval State of bit (1 or 0).
 900:Drivers/STM32WBxx_HAL_Driver/Inc/stm32wbxx_ll_pwr.h ****   */
 901:Drivers/STM32WBxx_HAL_Driver/Inc/stm32wbxx_ll_pwr.h **** __STATIC_INLINE uint32_t LL_PWR_IsEnabledWakeUpPin(uint32_t WakeUpPin)
 902:Drivers/STM32WBxx_HAL_Driver/Inc/stm32wbxx_ll_pwr.h **** {
 903:Drivers/STM32WBxx_HAL_Driver/Inc/stm32wbxx_ll_pwr.h ****   return ((READ_BIT(PWR->CR3, WakeUpPin) == (WakeUpPin)) ? 1UL : 0UL);
 904:Drivers/STM32WBxx_HAL_Driver/Inc/stm32wbxx_ll_pwr.h **** }
 905:Drivers/STM32WBxx_HAL_Driver/Inc/stm32wbxx_ll_pwr.h **** 
 906:Drivers/STM32WBxx_HAL_Driver/Inc/stm32wbxx_ll_pwr.h **** /**
 907:Drivers/STM32WBxx_HAL_Driver/Inc/stm32wbxx_ll_pwr.h ****   * @brief  Set the resistor impedance
 908:Drivers/STM32WBxx_HAL_Driver/Inc/stm32wbxx_ll_pwr.h ****   * @rmtoll CR4          VBRS          LL_PWR_SetBattChargResistor
 909:Drivers/STM32WBxx_HAL_Driver/Inc/stm32wbxx_ll_pwr.h ****   * @param  Resistor This parameter can be one of the following values:
 910:Drivers/STM32WBxx_HAL_Driver/Inc/stm32wbxx_ll_pwr.h ****   *         @arg @ref LL_PWR_BATT_CHARG_RESISTOR_5K
 911:Drivers/STM32WBxx_HAL_Driver/Inc/stm32wbxx_ll_pwr.h ****   *         @arg @ref LL_PWR_BATT_CHARGRESISTOR_1_5K
 912:Drivers/STM32WBxx_HAL_Driver/Inc/stm32wbxx_ll_pwr.h ****   * @retval None
 913:Drivers/STM32WBxx_HAL_Driver/Inc/stm32wbxx_ll_pwr.h ****   */
 914:Drivers/STM32WBxx_HAL_Driver/Inc/stm32wbxx_ll_pwr.h **** __STATIC_INLINE void LL_PWR_SetBattChargResistor(uint32_t Resistor)
 915:Drivers/STM32WBxx_HAL_Driver/Inc/stm32wbxx_ll_pwr.h **** {
 916:Drivers/STM32WBxx_HAL_Driver/Inc/stm32wbxx_ll_pwr.h ****   MODIFY_REG(PWR->CR4, PWR_CR4_VBRS, Resistor);
 917:Drivers/STM32WBxx_HAL_Driver/Inc/stm32wbxx_ll_pwr.h **** }
 918:Drivers/STM32WBxx_HAL_Driver/Inc/stm32wbxx_ll_pwr.h **** 
 919:Drivers/STM32WBxx_HAL_Driver/Inc/stm32wbxx_ll_pwr.h **** /**
 920:Drivers/STM32WBxx_HAL_Driver/Inc/stm32wbxx_ll_pwr.h ****   * @brief  Get the resistor impedance
 921:Drivers/STM32WBxx_HAL_Driver/Inc/stm32wbxx_ll_pwr.h ****   * @rmtoll CR4          VBRS          LL_PWR_GetBattChargResistor
 922:Drivers/STM32WBxx_HAL_Driver/Inc/stm32wbxx_ll_pwr.h ****   * @retval Returned value can be one of the following values:
 923:Drivers/STM32WBxx_HAL_Driver/Inc/stm32wbxx_ll_pwr.h ****   *         @arg @ref LL_PWR_BATT_CHARG_RESISTOR_5K
ARM GAS  /tmp/ccRrvtNP.s 			page 51


 924:Drivers/STM32WBxx_HAL_Driver/Inc/stm32wbxx_ll_pwr.h ****   *         @arg @ref LL_PWR_BATT_CHARGRESISTOR_1_5K
 925:Drivers/STM32WBxx_HAL_Driver/Inc/stm32wbxx_ll_pwr.h ****   */
 926:Drivers/STM32WBxx_HAL_Driver/Inc/stm32wbxx_ll_pwr.h **** __STATIC_INLINE uint32_t LL_PWR_GetBattChargResistor(void)
 927:Drivers/STM32WBxx_HAL_Driver/Inc/stm32wbxx_ll_pwr.h **** {
 928:Drivers/STM32WBxx_HAL_Driver/Inc/stm32wbxx_ll_pwr.h ****   return (uint32_t)(READ_BIT(PWR->CR4, PWR_CR4_VBRS));
 929:Drivers/STM32WBxx_HAL_Driver/Inc/stm32wbxx_ll_pwr.h **** }
 930:Drivers/STM32WBxx_HAL_Driver/Inc/stm32wbxx_ll_pwr.h **** 
 931:Drivers/STM32WBxx_HAL_Driver/Inc/stm32wbxx_ll_pwr.h **** /**
 932:Drivers/STM32WBxx_HAL_Driver/Inc/stm32wbxx_ll_pwr.h ****   * @brief  Enable battery charging
 933:Drivers/STM32WBxx_HAL_Driver/Inc/stm32wbxx_ll_pwr.h ****   * @rmtoll CR4          VBE           LL_PWR_EnableBatteryCharging
 934:Drivers/STM32WBxx_HAL_Driver/Inc/stm32wbxx_ll_pwr.h ****   * @retval None
 935:Drivers/STM32WBxx_HAL_Driver/Inc/stm32wbxx_ll_pwr.h ****   */
 936:Drivers/STM32WBxx_HAL_Driver/Inc/stm32wbxx_ll_pwr.h **** __STATIC_INLINE void LL_PWR_EnableBatteryCharging(void)
 937:Drivers/STM32WBxx_HAL_Driver/Inc/stm32wbxx_ll_pwr.h **** {
 938:Drivers/STM32WBxx_HAL_Driver/Inc/stm32wbxx_ll_pwr.h ****   SET_BIT(PWR->CR4, PWR_CR4_VBE);
 939:Drivers/STM32WBxx_HAL_Driver/Inc/stm32wbxx_ll_pwr.h **** }
 940:Drivers/STM32WBxx_HAL_Driver/Inc/stm32wbxx_ll_pwr.h **** 
 941:Drivers/STM32WBxx_HAL_Driver/Inc/stm32wbxx_ll_pwr.h **** /**
 942:Drivers/STM32WBxx_HAL_Driver/Inc/stm32wbxx_ll_pwr.h ****   * @brief  Disable battery charging
 943:Drivers/STM32WBxx_HAL_Driver/Inc/stm32wbxx_ll_pwr.h ****   * @rmtoll CR4          VBE           LL_PWR_DisableBatteryCharging
 944:Drivers/STM32WBxx_HAL_Driver/Inc/stm32wbxx_ll_pwr.h ****   * @retval None
 945:Drivers/STM32WBxx_HAL_Driver/Inc/stm32wbxx_ll_pwr.h ****   */
 946:Drivers/STM32WBxx_HAL_Driver/Inc/stm32wbxx_ll_pwr.h **** __STATIC_INLINE void LL_PWR_DisableBatteryCharging(void)
 947:Drivers/STM32WBxx_HAL_Driver/Inc/stm32wbxx_ll_pwr.h **** {
 948:Drivers/STM32WBxx_HAL_Driver/Inc/stm32wbxx_ll_pwr.h ****   CLEAR_BIT(PWR->CR4, PWR_CR4_VBE);
 949:Drivers/STM32WBxx_HAL_Driver/Inc/stm32wbxx_ll_pwr.h **** }
 950:Drivers/STM32WBxx_HAL_Driver/Inc/stm32wbxx_ll_pwr.h **** 
 951:Drivers/STM32WBxx_HAL_Driver/Inc/stm32wbxx_ll_pwr.h **** /**
 952:Drivers/STM32WBxx_HAL_Driver/Inc/stm32wbxx_ll_pwr.h ****   * @brief  Check if battery charging is enabled
 953:Drivers/STM32WBxx_HAL_Driver/Inc/stm32wbxx_ll_pwr.h ****   * @rmtoll CR4          VBE           LL_PWR_IsEnabledBatteryCharging
 954:Drivers/STM32WBxx_HAL_Driver/Inc/stm32wbxx_ll_pwr.h ****   * @retval State of bit (1 or 0).
 955:Drivers/STM32WBxx_HAL_Driver/Inc/stm32wbxx_ll_pwr.h ****   */
 956:Drivers/STM32WBxx_HAL_Driver/Inc/stm32wbxx_ll_pwr.h **** __STATIC_INLINE uint32_t LL_PWR_IsEnabledBatteryCharging(void)
 957:Drivers/STM32WBxx_HAL_Driver/Inc/stm32wbxx_ll_pwr.h **** {
 958:Drivers/STM32WBxx_HAL_Driver/Inc/stm32wbxx_ll_pwr.h ****   return ((READ_BIT(PWR->CR4, PWR_CR4_VBE) == (PWR_CR4_VBE)) ? 1UL : 0UL);
 959:Drivers/STM32WBxx_HAL_Driver/Inc/stm32wbxx_ll_pwr.h **** }
 960:Drivers/STM32WBxx_HAL_Driver/Inc/stm32wbxx_ll_pwr.h **** 
 961:Drivers/STM32WBxx_HAL_Driver/Inc/stm32wbxx_ll_pwr.h **** /**
 962:Drivers/STM32WBxx_HAL_Driver/Inc/stm32wbxx_ll_pwr.h ****   * @brief  Set the Wake-Up pin polarity low for the event detection
 963:Drivers/STM32WBxx_HAL_Driver/Inc/stm32wbxx_ll_pwr.h ****   * @rmtoll CR4          WP1           LL_PWR_SetWakeUpPinPolarityLow\n
 964:Drivers/STM32WBxx_HAL_Driver/Inc/stm32wbxx_ll_pwr.h ****   *         CR4          WP2           LL_PWR_SetWakeUpPinPolarityLow\n
 965:Drivers/STM32WBxx_HAL_Driver/Inc/stm32wbxx_ll_pwr.h ****   *         CR4          WP3           LL_PWR_SetWakeUpPinPolarityLow\n
 966:Drivers/STM32WBxx_HAL_Driver/Inc/stm32wbxx_ll_pwr.h ****   *         CR4          WP4           LL_PWR_SetWakeUpPinPolarityLow\n
 967:Drivers/STM32WBxx_HAL_Driver/Inc/stm32wbxx_ll_pwr.h ****   *         CR4          WP5           LL_PWR_SetWakeUpPinPolarityLow
 968:Drivers/STM32WBxx_HAL_Driver/Inc/stm32wbxx_ll_pwr.h ****   * @param  WakeUpPin This parameter can be one of the following values:
 969:Drivers/STM32WBxx_HAL_Driver/Inc/stm32wbxx_ll_pwr.h ****   *         @arg @ref LL_PWR_WAKEUP_PIN1
 970:Drivers/STM32WBxx_HAL_Driver/Inc/stm32wbxx_ll_pwr.h ****   *         @arg @ref LL_PWR_WAKEUP_PIN2 (*)
 971:Drivers/STM32WBxx_HAL_Driver/Inc/stm32wbxx_ll_pwr.h ****   *         @arg @ref LL_PWR_WAKEUP_PIN3 (*)
 972:Drivers/STM32WBxx_HAL_Driver/Inc/stm32wbxx_ll_pwr.h ****   *         @arg @ref LL_PWR_WAKEUP_PIN4
 973:Drivers/STM32WBxx_HAL_Driver/Inc/stm32wbxx_ll_pwr.h ****   *         @arg @ref LL_PWR_WAKEUP_PIN5 (*)
 974:Drivers/STM32WBxx_HAL_Driver/Inc/stm32wbxx_ll_pwr.h ****   *
 975:Drivers/STM32WBxx_HAL_Driver/Inc/stm32wbxx_ll_pwr.h ****   *         (*) Not available on devices STM32WB50xx
 976:Drivers/STM32WBxx_HAL_Driver/Inc/stm32wbxx_ll_pwr.h ****   * @retval None
 977:Drivers/STM32WBxx_HAL_Driver/Inc/stm32wbxx_ll_pwr.h ****   */
 978:Drivers/STM32WBxx_HAL_Driver/Inc/stm32wbxx_ll_pwr.h **** __STATIC_INLINE void LL_PWR_SetWakeUpPinPolarityLow(uint32_t WakeUpPin)
 979:Drivers/STM32WBxx_HAL_Driver/Inc/stm32wbxx_ll_pwr.h **** {
 980:Drivers/STM32WBxx_HAL_Driver/Inc/stm32wbxx_ll_pwr.h ****   SET_BIT(PWR->CR4, WakeUpPin);
ARM GAS  /tmp/ccRrvtNP.s 			page 52


 981:Drivers/STM32WBxx_HAL_Driver/Inc/stm32wbxx_ll_pwr.h **** }
 982:Drivers/STM32WBxx_HAL_Driver/Inc/stm32wbxx_ll_pwr.h **** 
 983:Drivers/STM32WBxx_HAL_Driver/Inc/stm32wbxx_ll_pwr.h **** /**
 984:Drivers/STM32WBxx_HAL_Driver/Inc/stm32wbxx_ll_pwr.h ****   * @brief  Set the Wake-Up pin polarity high for the event detection
 985:Drivers/STM32WBxx_HAL_Driver/Inc/stm32wbxx_ll_pwr.h ****   * @rmtoll CR4          WP1           LL_PWR_SetWakeUpPinPolarityHigh\n
 986:Drivers/STM32WBxx_HAL_Driver/Inc/stm32wbxx_ll_pwr.h ****   *         CR4          WP2           LL_PWR_SetWakeUpPinPolarityHigh\n
 987:Drivers/STM32WBxx_HAL_Driver/Inc/stm32wbxx_ll_pwr.h ****   *         CR4          WP3           LL_PWR_SetWakeUpPinPolarityHigh\n
 988:Drivers/STM32WBxx_HAL_Driver/Inc/stm32wbxx_ll_pwr.h ****   *         CR4          WP4           LL_PWR_SetWakeUpPinPolarityHigh\n
 989:Drivers/STM32WBxx_HAL_Driver/Inc/stm32wbxx_ll_pwr.h ****   *         CR4          WP5           LL_PWR_SetWakeUpPinPolarityHigh
 990:Drivers/STM32WBxx_HAL_Driver/Inc/stm32wbxx_ll_pwr.h ****   * @param  WakeUpPin This parameter can be one of the following values:
 991:Drivers/STM32WBxx_HAL_Driver/Inc/stm32wbxx_ll_pwr.h ****   *         @arg @ref LL_PWR_WAKEUP_PIN1
 992:Drivers/STM32WBxx_HAL_Driver/Inc/stm32wbxx_ll_pwr.h ****   *         @arg @ref LL_PWR_WAKEUP_PIN2 (*)
 993:Drivers/STM32WBxx_HAL_Driver/Inc/stm32wbxx_ll_pwr.h ****   *         @arg @ref LL_PWR_WAKEUP_PIN3 (*)
 994:Drivers/STM32WBxx_HAL_Driver/Inc/stm32wbxx_ll_pwr.h ****   *         @arg @ref LL_PWR_WAKEUP_PIN4
 995:Drivers/STM32WBxx_HAL_Driver/Inc/stm32wbxx_ll_pwr.h ****   *         @arg @ref LL_PWR_WAKEUP_PIN5 (*)
 996:Drivers/STM32WBxx_HAL_Driver/Inc/stm32wbxx_ll_pwr.h ****   *
 997:Drivers/STM32WBxx_HAL_Driver/Inc/stm32wbxx_ll_pwr.h ****   *         (*) Not available on devices STM32WB50xx
 998:Drivers/STM32WBxx_HAL_Driver/Inc/stm32wbxx_ll_pwr.h ****   * @retval None
 999:Drivers/STM32WBxx_HAL_Driver/Inc/stm32wbxx_ll_pwr.h ****   */
1000:Drivers/STM32WBxx_HAL_Driver/Inc/stm32wbxx_ll_pwr.h **** __STATIC_INLINE void LL_PWR_SetWakeUpPinPolarityHigh(uint32_t WakeUpPin)
1001:Drivers/STM32WBxx_HAL_Driver/Inc/stm32wbxx_ll_pwr.h **** {
1002:Drivers/STM32WBxx_HAL_Driver/Inc/stm32wbxx_ll_pwr.h ****   CLEAR_BIT(PWR->CR4, WakeUpPin);
1003:Drivers/STM32WBxx_HAL_Driver/Inc/stm32wbxx_ll_pwr.h **** }
1004:Drivers/STM32WBxx_HAL_Driver/Inc/stm32wbxx_ll_pwr.h **** 
1005:Drivers/STM32WBxx_HAL_Driver/Inc/stm32wbxx_ll_pwr.h **** /**
1006:Drivers/STM32WBxx_HAL_Driver/Inc/stm32wbxx_ll_pwr.h ****   * @brief  Get the Wake-Up pin polarity for the event detection
1007:Drivers/STM32WBxx_HAL_Driver/Inc/stm32wbxx_ll_pwr.h ****   * @rmtoll CR4          WP1           LL_PWR_IsWakeUpPinPolarityLow\n
1008:Drivers/STM32WBxx_HAL_Driver/Inc/stm32wbxx_ll_pwr.h ****   *         CR4          WP2           LL_PWR_IsWakeUpPinPolarityLow\n
1009:Drivers/STM32WBxx_HAL_Driver/Inc/stm32wbxx_ll_pwr.h ****   *         CR4          WP3           LL_PWR_IsWakeUpPinPolarityLow\n
1010:Drivers/STM32WBxx_HAL_Driver/Inc/stm32wbxx_ll_pwr.h ****   *         CR4          WP4           LL_PWR_IsWakeUpPinPolarityLow\n
1011:Drivers/STM32WBxx_HAL_Driver/Inc/stm32wbxx_ll_pwr.h ****   *         CR4          WP5           LL_PWR_IsWakeUpPinPolarityLow
1012:Drivers/STM32WBxx_HAL_Driver/Inc/stm32wbxx_ll_pwr.h ****   * @param  WakeUpPin This parameter can be one of the following values:
1013:Drivers/STM32WBxx_HAL_Driver/Inc/stm32wbxx_ll_pwr.h ****   *         @arg @ref LL_PWR_WAKEUP_PIN1
1014:Drivers/STM32WBxx_HAL_Driver/Inc/stm32wbxx_ll_pwr.h ****   *         @arg @ref LL_PWR_WAKEUP_PIN2 (*)
1015:Drivers/STM32WBxx_HAL_Driver/Inc/stm32wbxx_ll_pwr.h ****   *         @arg @ref LL_PWR_WAKEUP_PIN3 (*)
1016:Drivers/STM32WBxx_HAL_Driver/Inc/stm32wbxx_ll_pwr.h ****   *         @arg @ref LL_PWR_WAKEUP_PIN4
1017:Drivers/STM32WBxx_HAL_Driver/Inc/stm32wbxx_ll_pwr.h ****   *         @arg @ref LL_PWR_WAKEUP_PIN5 (*)
1018:Drivers/STM32WBxx_HAL_Driver/Inc/stm32wbxx_ll_pwr.h ****   *
1019:Drivers/STM32WBxx_HAL_Driver/Inc/stm32wbxx_ll_pwr.h ****   *         (*) Not available on devices STM32WB50xx
1020:Drivers/STM32WBxx_HAL_Driver/Inc/stm32wbxx_ll_pwr.h ****   * @retval State of bit (1 or 0).
1021:Drivers/STM32WBxx_HAL_Driver/Inc/stm32wbxx_ll_pwr.h ****   */
1022:Drivers/STM32WBxx_HAL_Driver/Inc/stm32wbxx_ll_pwr.h **** __STATIC_INLINE uint32_t LL_PWR_IsWakeUpPinPolarityLow(uint32_t WakeUpPin)
1023:Drivers/STM32WBxx_HAL_Driver/Inc/stm32wbxx_ll_pwr.h **** {
1024:Drivers/STM32WBxx_HAL_Driver/Inc/stm32wbxx_ll_pwr.h ****   return ((READ_BIT(PWR->CR4, WakeUpPin) == (WakeUpPin)) ? 1UL : 0UL);
1025:Drivers/STM32WBxx_HAL_Driver/Inc/stm32wbxx_ll_pwr.h **** }
1026:Drivers/STM32WBxx_HAL_Driver/Inc/stm32wbxx_ll_pwr.h **** 
1027:Drivers/STM32WBxx_HAL_Driver/Inc/stm32wbxx_ll_pwr.h **** /**
1028:Drivers/STM32WBxx_HAL_Driver/Inc/stm32wbxx_ll_pwr.h ****   * @brief  Enable GPIO pull-up state in Standby and Shutdown modes
1029:Drivers/STM32WBxx_HAL_Driver/Inc/stm32wbxx_ll_pwr.h ****   * @note   Some pins are not configurable for pulling in Standby and Shutdown
1030:Drivers/STM32WBxx_HAL_Driver/Inc/stm32wbxx_ll_pwr.h ****   *         modes. Refer to reference manual for available pins and ports.
1031:Drivers/STM32WBxx_HAL_Driver/Inc/stm32wbxx_ll_pwr.h ****   * @rmtoll PUCRA        PU0-15        LL_PWR_EnableGPIOPullUp\n
1032:Drivers/STM32WBxx_HAL_Driver/Inc/stm32wbxx_ll_pwr.h ****   *         PUCRB        PU0-15        LL_PWR_EnableGPIOPullUp\n
1033:Drivers/STM32WBxx_HAL_Driver/Inc/stm32wbxx_ll_pwr.h ****   *         PUCRC        PU0-15        LL_PWR_EnableGPIOPullUp\n
1034:Drivers/STM32WBxx_HAL_Driver/Inc/stm32wbxx_ll_pwr.h ****   *         PUCRD        PU0-15        LL_PWR_EnableGPIOPullUp\n
1035:Drivers/STM32WBxx_HAL_Driver/Inc/stm32wbxx_ll_pwr.h ****   *         PUCRE        PU0-15        LL_PWR_EnableGPIOPullUp\n
1036:Drivers/STM32WBxx_HAL_Driver/Inc/stm32wbxx_ll_pwr.h ****   *         PUCRH        PU0-15        LL_PWR_EnableGPIOPullUp
1037:Drivers/STM32WBxx_HAL_Driver/Inc/stm32wbxx_ll_pwr.h ****   * @param  GPIO This parameter can be one of the following values:
ARM GAS  /tmp/ccRrvtNP.s 			page 53


1038:Drivers/STM32WBxx_HAL_Driver/Inc/stm32wbxx_ll_pwr.h ****   *         @arg @ref LL_PWR_GPIO_A
1039:Drivers/STM32WBxx_HAL_Driver/Inc/stm32wbxx_ll_pwr.h ****   *         @arg @ref LL_PWR_GPIO_B
1040:Drivers/STM32WBxx_HAL_Driver/Inc/stm32wbxx_ll_pwr.h ****   *         @arg @ref LL_PWR_GPIO_C
1041:Drivers/STM32WBxx_HAL_Driver/Inc/stm32wbxx_ll_pwr.h ****   *         @arg @ref LL_PWR_GPIO_D
1042:Drivers/STM32WBxx_HAL_Driver/Inc/stm32wbxx_ll_pwr.h ****   *         @arg @ref LL_PWR_GPIO_E
1043:Drivers/STM32WBxx_HAL_Driver/Inc/stm32wbxx_ll_pwr.h ****   *         @arg @ref LL_PWR_GPIO_H
1044:Drivers/STM32WBxx_HAL_Driver/Inc/stm32wbxx_ll_pwr.h ****   * @param  GPIONumber This parameter can be one of the following values:
1045:Drivers/STM32WBxx_HAL_Driver/Inc/stm32wbxx_ll_pwr.h ****   *         @arg @ref LL_PWR_GPIO_BIT_0
1046:Drivers/STM32WBxx_HAL_Driver/Inc/stm32wbxx_ll_pwr.h ****   *         @arg @ref LL_PWR_GPIO_BIT_1
1047:Drivers/STM32WBxx_HAL_Driver/Inc/stm32wbxx_ll_pwr.h ****   *         @arg @ref LL_PWR_GPIO_BIT_2
1048:Drivers/STM32WBxx_HAL_Driver/Inc/stm32wbxx_ll_pwr.h ****   *         @arg @ref LL_PWR_GPIO_BIT_3
1049:Drivers/STM32WBxx_HAL_Driver/Inc/stm32wbxx_ll_pwr.h ****   *         @arg @ref LL_PWR_GPIO_BIT_4
1050:Drivers/STM32WBxx_HAL_Driver/Inc/stm32wbxx_ll_pwr.h ****   *         @arg @ref LL_PWR_GPIO_BIT_5
1051:Drivers/STM32WBxx_HAL_Driver/Inc/stm32wbxx_ll_pwr.h ****   *         @arg @ref LL_PWR_GPIO_BIT_6
1052:Drivers/STM32WBxx_HAL_Driver/Inc/stm32wbxx_ll_pwr.h ****   *         @arg @ref LL_PWR_GPIO_BIT_7
1053:Drivers/STM32WBxx_HAL_Driver/Inc/stm32wbxx_ll_pwr.h ****   *         @arg @ref LL_PWR_GPIO_BIT_8
1054:Drivers/STM32WBxx_HAL_Driver/Inc/stm32wbxx_ll_pwr.h ****   *         @arg @ref LL_PWR_GPIO_BIT_9
1055:Drivers/STM32WBxx_HAL_Driver/Inc/stm32wbxx_ll_pwr.h ****   *         @arg @ref LL_PWR_GPIO_BIT_10
1056:Drivers/STM32WBxx_HAL_Driver/Inc/stm32wbxx_ll_pwr.h ****   *         @arg @ref LL_PWR_GPIO_BIT_11
1057:Drivers/STM32WBxx_HAL_Driver/Inc/stm32wbxx_ll_pwr.h ****   *         @arg @ref LL_PWR_GPIO_BIT_12
1058:Drivers/STM32WBxx_HAL_Driver/Inc/stm32wbxx_ll_pwr.h ****   *         @arg @ref LL_PWR_GPIO_BIT_13
1059:Drivers/STM32WBxx_HAL_Driver/Inc/stm32wbxx_ll_pwr.h ****   *         @arg @ref LL_PWR_GPIO_BIT_14
1060:Drivers/STM32WBxx_HAL_Driver/Inc/stm32wbxx_ll_pwr.h ****   *         @arg @ref LL_PWR_GPIO_BIT_15
1061:Drivers/STM32WBxx_HAL_Driver/Inc/stm32wbxx_ll_pwr.h ****   * @retval None
1062:Drivers/STM32WBxx_HAL_Driver/Inc/stm32wbxx_ll_pwr.h ****   */
1063:Drivers/STM32WBxx_HAL_Driver/Inc/stm32wbxx_ll_pwr.h **** __STATIC_INLINE void LL_PWR_EnableGPIOPullUp(uint32_t GPIO, uint32_t GPIONumber)
1064:Drivers/STM32WBxx_HAL_Driver/Inc/stm32wbxx_ll_pwr.h **** {
1065:Drivers/STM32WBxx_HAL_Driver/Inc/stm32wbxx_ll_pwr.h ****   SET_BIT(*((__IO uint32_t *)GPIO), GPIONumber);
1066:Drivers/STM32WBxx_HAL_Driver/Inc/stm32wbxx_ll_pwr.h **** }
1067:Drivers/STM32WBxx_HAL_Driver/Inc/stm32wbxx_ll_pwr.h **** 
1068:Drivers/STM32WBxx_HAL_Driver/Inc/stm32wbxx_ll_pwr.h **** /**
1069:Drivers/STM32WBxx_HAL_Driver/Inc/stm32wbxx_ll_pwr.h ****   * @brief  Disable GPIO pull-up state in Standby and Shutdown modes
1070:Drivers/STM32WBxx_HAL_Driver/Inc/stm32wbxx_ll_pwr.h ****   * @note   Some pins are not configurable for pulling in Standby and Shutdown
1071:Drivers/STM32WBxx_HAL_Driver/Inc/stm32wbxx_ll_pwr.h ****   *         modes. Refer to reference manual for available pins and ports.
1072:Drivers/STM32WBxx_HAL_Driver/Inc/stm32wbxx_ll_pwr.h ****   * @rmtoll PUCRA        PU0-15        LL_PWR_DisableGPIOPullUp\n
1073:Drivers/STM32WBxx_HAL_Driver/Inc/stm32wbxx_ll_pwr.h ****   *         PUCRB        PU0-15        LL_PWR_DisableGPIOPullUp\n
1074:Drivers/STM32WBxx_HAL_Driver/Inc/stm32wbxx_ll_pwr.h ****   *         PUCRC        PU0-15        LL_PWR_DisableGPIOPullUp\n
1075:Drivers/STM32WBxx_HAL_Driver/Inc/stm32wbxx_ll_pwr.h ****   *         PUCRD        PU0-15        LL_PWR_DisableGPIOPullUp\n
1076:Drivers/STM32WBxx_HAL_Driver/Inc/stm32wbxx_ll_pwr.h ****   *         PUCRE        PU0-15        LL_PWR_DisableGPIOPullUp\n
1077:Drivers/STM32WBxx_HAL_Driver/Inc/stm32wbxx_ll_pwr.h ****   *         PUCRH        PU0-15        LL_PWR_DisableGPIOPullUp
1078:Drivers/STM32WBxx_HAL_Driver/Inc/stm32wbxx_ll_pwr.h ****   * @param  GPIO This parameter can be one of the following values:
1079:Drivers/STM32WBxx_HAL_Driver/Inc/stm32wbxx_ll_pwr.h ****   *         @arg @ref LL_PWR_GPIO_A
1080:Drivers/STM32WBxx_HAL_Driver/Inc/stm32wbxx_ll_pwr.h ****   *         @arg @ref LL_PWR_GPIO_B
1081:Drivers/STM32WBxx_HAL_Driver/Inc/stm32wbxx_ll_pwr.h ****   *         @arg @ref LL_PWR_GPIO_C
1082:Drivers/STM32WBxx_HAL_Driver/Inc/stm32wbxx_ll_pwr.h ****   *         @arg @ref LL_PWR_GPIO_D
1083:Drivers/STM32WBxx_HAL_Driver/Inc/stm32wbxx_ll_pwr.h ****   *         @arg @ref LL_PWR_GPIO_E
1084:Drivers/STM32WBxx_HAL_Driver/Inc/stm32wbxx_ll_pwr.h ****   *         @arg @ref LL_PWR_GPIO_H
1085:Drivers/STM32WBxx_HAL_Driver/Inc/stm32wbxx_ll_pwr.h ****   * @param  GPIONumber This parameter can be one of the following values:
1086:Drivers/STM32WBxx_HAL_Driver/Inc/stm32wbxx_ll_pwr.h ****   *         @arg @ref LL_PWR_GPIO_BIT_0
1087:Drivers/STM32WBxx_HAL_Driver/Inc/stm32wbxx_ll_pwr.h ****   *         @arg @ref LL_PWR_GPIO_BIT_1
1088:Drivers/STM32WBxx_HAL_Driver/Inc/stm32wbxx_ll_pwr.h ****   *         @arg @ref LL_PWR_GPIO_BIT_2
1089:Drivers/STM32WBxx_HAL_Driver/Inc/stm32wbxx_ll_pwr.h ****   *         @arg @ref LL_PWR_GPIO_BIT_3
1090:Drivers/STM32WBxx_HAL_Driver/Inc/stm32wbxx_ll_pwr.h ****   *         @arg @ref LL_PWR_GPIO_BIT_4
1091:Drivers/STM32WBxx_HAL_Driver/Inc/stm32wbxx_ll_pwr.h ****   *         @arg @ref LL_PWR_GPIO_BIT_5
1092:Drivers/STM32WBxx_HAL_Driver/Inc/stm32wbxx_ll_pwr.h ****   *         @arg @ref LL_PWR_GPIO_BIT_6
1093:Drivers/STM32WBxx_HAL_Driver/Inc/stm32wbxx_ll_pwr.h ****   *         @arg @ref LL_PWR_GPIO_BIT_7
1094:Drivers/STM32WBxx_HAL_Driver/Inc/stm32wbxx_ll_pwr.h ****   *         @arg @ref LL_PWR_GPIO_BIT_8
ARM GAS  /tmp/ccRrvtNP.s 			page 54


1095:Drivers/STM32WBxx_HAL_Driver/Inc/stm32wbxx_ll_pwr.h ****   *         @arg @ref LL_PWR_GPIO_BIT_9
1096:Drivers/STM32WBxx_HAL_Driver/Inc/stm32wbxx_ll_pwr.h ****   *         @arg @ref LL_PWR_GPIO_BIT_10
1097:Drivers/STM32WBxx_HAL_Driver/Inc/stm32wbxx_ll_pwr.h ****   *         @arg @ref LL_PWR_GPIO_BIT_11
1098:Drivers/STM32WBxx_HAL_Driver/Inc/stm32wbxx_ll_pwr.h ****   *         @arg @ref LL_PWR_GPIO_BIT_12
1099:Drivers/STM32WBxx_HAL_Driver/Inc/stm32wbxx_ll_pwr.h ****   *         @arg @ref LL_PWR_GPIO_BIT_13
1100:Drivers/STM32WBxx_HAL_Driver/Inc/stm32wbxx_ll_pwr.h ****   *         @arg @ref LL_PWR_GPIO_BIT_14
1101:Drivers/STM32WBxx_HAL_Driver/Inc/stm32wbxx_ll_pwr.h ****   *         @arg @ref LL_PWR_GPIO_BIT_15
1102:Drivers/STM32WBxx_HAL_Driver/Inc/stm32wbxx_ll_pwr.h ****   * @retval None
1103:Drivers/STM32WBxx_HAL_Driver/Inc/stm32wbxx_ll_pwr.h ****   */
1104:Drivers/STM32WBxx_HAL_Driver/Inc/stm32wbxx_ll_pwr.h **** __STATIC_INLINE void LL_PWR_DisableGPIOPullUp(uint32_t GPIO, uint32_t GPIONumber)
1105:Drivers/STM32WBxx_HAL_Driver/Inc/stm32wbxx_ll_pwr.h **** {
1106:Drivers/STM32WBxx_HAL_Driver/Inc/stm32wbxx_ll_pwr.h ****   CLEAR_BIT(*((__IO uint32_t *)GPIO), GPIONumber);
1107:Drivers/STM32WBxx_HAL_Driver/Inc/stm32wbxx_ll_pwr.h **** }
1108:Drivers/STM32WBxx_HAL_Driver/Inc/stm32wbxx_ll_pwr.h **** 
1109:Drivers/STM32WBxx_HAL_Driver/Inc/stm32wbxx_ll_pwr.h **** /**
1110:Drivers/STM32WBxx_HAL_Driver/Inc/stm32wbxx_ll_pwr.h ****   * @brief  Check if GPIO pull-up state is enabled
1111:Drivers/STM32WBxx_HAL_Driver/Inc/stm32wbxx_ll_pwr.h ****   * @rmtoll PUCRA        PU0-15        LL_PWR_IsEnabledGPIOPullUp\n
1112:Drivers/STM32WBxx_HAL_Driver/Inc/stm32wbxx_ll_pwr.h ****   *         PUCRB        PU0-15        LL_PWR_IsEnabledGPIOPullUp\n
1113:Drivers/STM32WBxx_HAL_Driver/Inc/stm32wbxx_ll_pwr.h ****   *         PUCRC        PU0-15        LL_PWR_IsEnabledGPIOPullUp\n
1114:Drivers/STM32WBxx_HAL_Driver/Inc/stm32wbxx_ll_pwr.h ****   *         PUCRD        PU0-15        LL_PWR_IsEnabledGPIOPullUp\n
1115:Drivers/STM32WBxx_HAL_Driver/Inc/stm32wbxx_ll_pwr.h ****   *         PUCRE        PU0-15        LL_PWR_IsEnabledGPIOPullUp\n
1116:Drivers/STM32WBxx_HAL_Driver/Inc/stm32wbxx_ll_pwr.h ****   *         PUCRH        PU0-15        LL_PWR_IsEnabledGPIOPullUp
1117:Drivers/STM32WBxx_HAL_Driver/Inc/stm32wbxx_ll_pwr.h ****   * @param  GPIO This parameter can be one of the following values:
1118:Drivers/STM32WBxx_HAL_Driver/Inc/stm32wbxx_ll_pwr.h ****   *         @arg @ref LL_PWR_GPIO_A
1119:Drivers/STM32WBxx_HAL_Driver/Inc/stm32wbxx_ll_pwr.h ****   *         @arg @ref LL_PWR_GPIO_B
1120:Drivers/STM32WBxx_HAL_Driver/Inc/stm32wbxx_ll_pwr.h ****   *         @arg @ref LL_PWR_GPIO_C
1121:Drivers/STM32WBxx_HAL_Driver/Inc/stm32wbxx_ll_pwr.h ****   *         @arg @ref LL_PWR_GPIO_D
1122:Drivers/STM32WBxx_HAL_Driver/Inc/stm32wbxx_ll_pwr.h ****   *         @arg @ref LL_PWR_GPIO_E
1123:Drivers/STM32WBxx_HAL_Driver/Inc/stm32wbxx_ll_pwr.h ****   *         @arg @ref LL_PWR_GPIO_H
1124:Drivers/STM32WBxx_HAL_Driver/Inc/stm32wbxx_ll_pwr.h ****   * @param  GPIONumber This parameter can be one of the following values:
1125:Drivers/STM32WBxx_HAL_Driver/Inc/stm32wbxx_ll_pwr.h ****   *         @arg @ref LL_PWR_GPIO_BIT_0
1126:Drivers/STM32WBxx_HAL_Driver/Inc/stm32wbxx_ll_pwr.h ****   *         @arg @ref LL_PWR_GPIO_BIT_1
1127:Drivers/STM32WBxx_HAL_Driver/Inc/stm32wbxx_ll_pwr.h ****   *         @arg @ref LL_PWR_GPIO_BIT_2
1128:Drivers/STM32WBxx_HAL_Driver/Inc/stm32wbxx_ll_pwr.h ****   *         @arg @ref LL_PWR_GPIO_BIT_3
1129:Drivers/STM32WBxx_HAL_Driver/Inc/stm32wbxx_ll_pwr.h ****   *         @arg @ref LL_PWR_GPIO_BIT_4
1130:Drivers/STM32WBxx_HAL_Driver/Inc/stm32wbxx_ll_pwr.h ****   *         @arg @ref LL_PWR_GPIO_BIT_5
1131:Drivers/STM32WBxx_HAL_Driver/Inc/stm32wbxx_ll_pwr.h ****   *         @arg @ref LL_PWR_GPIO_BIT_6
1132:Drivers/STM32WBxx_HAL_Driver/Inc/stm32wbxx_ll_pwr.h ****   *         @arg @ref LL_PWR_GPIO_BIT_7
1133:Drivers/STM32WBxx_HAL_Driver/Inc/stm32wbxx_ll_pwr.h ****   *         @arg @ref LL_PWR_GPIO_BIT_8
1134:Drivers/STM32WBxx_HAL_Driver/Inc/stm32wbxx_ll_pwr.h ****   *         @arg @ref LL_PWR_GPIO_BIT_9
1135:Drivers/STM32WBxx_HAL_Driver/Inc/stm32wbxx_ll_pwr.h ****   *         @arg @ref LL_PWR_GPIO_BIT_10
1136:Drivers/STM32WBxx_HAL_Driver/Inc/stm32wbxx_ll_pwr.h ****   *         @arg @ref LL_PWR_GPIO_BIT_11
1137:Drivers/STM32WBxx_HAL_Driver/Inc/stm32wbxx_ll_pwr.h ****   *         @arg @ref LL_PWR_GPIO_BIT_12
1138:Drivers/STM32WBxx_HAL_Driver/Inc/stm32wbxx_ll_pwr.h ****   *         @arg @ref LL_PWR_GPIO_BIT_13
1139:Drivers/STM32WBxx_HAL_Driver/Inc/stm32wbxx_ll_pwr.h ****   *         @arg @ref LL_PWR_GPIO_BIT_14
1140:Drivers/STM32WBxx_HAL_Driver/Inc/stm32wbxx_ll_pwr.h ****   *         @arg @ref LL_PWR_GPIO_BIT_15
1141:Drivers/STM32WBxx_HAL_Driver/Inc/stm32wbxx_ll_pwr.h ****   * @retval State of bit (1 or 0).
1142:Drivers/STM32WBxx_HAL_Driver/Inc/stm32wbxx_ll_pwr.h ****   */
1143:Drivers/STM32WBxx_HAL_Driver/Inc/stm32wbxx_ll_pwr.h **** __STATIC_INLINE uint32_t LL_PWR_IsEnabledGPIOPullUp(uint32_t GPIO, uint32_t GPIONumber)
1144:Drivers/STM32WBxx_HAL_Driver/Inc/stm32wbxx_ll_pwr.h **** {
1145:Drivers/STM32WBxx_HAL_Driver/Inc/stm32wbxx_ll_pwr.h ****   return ((READ_BIT(*((__IO uint32_t *)GPIO), GPIONumber) == (GPIONumber)) ? 1UL : 0UL);
1146:Drivers/STM32WBxx_HAL_Driver/Inc/stm32wbxx_ll_pwr.h **** }
1147:Drivers/STM32WBxx_HAL_Driver/Inc/stm32wbxx_ll_pwr.h **** 
1148:Drivers/STM32WBxx_HAL_Driver/Inc/stm32wbxx_ll_pwr.h **** /**
1149:Drivers/STM32WBxx_HAL_Driver/Inc/stm32wbxx_ll_pwr.h ****   * @brief  Enable GPIO pull-down state in Standby and Shutdown modes
1150:Drivers/STM32WBxx_HAL_Driver/Inc/stm32wbxx_ll_pwr.h ****   * @note   Some pins are not configurable for pulling in Standby and Shutdown
1151:Drivers/STM32WBxx_HAL_Driver/Inc/stm32wbxx_ll_pwr.h ****   *         modes. Refer to reference manual for available pins and ports.
ARM GAS  /tmp/ccRrvtNP.s 			page 55


1152:Drivers/STM32WBxx_HAL_Driver/Inc/stm32wbxx_ll_pwr.h ****   * @rmtoll PDCRA        PD0-15        LL_PWR_EnableGPIOPullDown\n
1153:Drivers/STM32WBxx_HAL_Driver/Inc/stm32wbxx_ll_pwr.h ****   *         PDCRB        PD0-15        LL_PWR_EnableGPIOPullDown\n
1154:Drivers/STM32WBxx_HAL_Driver/Inc/stm32wbxx_ll_pwr.h ****   *         PDCRC        PD0-15        LL_PWR_EnableGPIOPullDown\n
1155:Drivers/STM32WBxx_HAL_Driver/Inc/stm32wbxx_ll_pwr.h ****   *         PDCRD        PD0-15        LL_PWR_EnableGPIOPullDown\n
1156:Drivers/STM32WBxx_HAL_Driver/Inc/stm32wbxx_ll_pwr.h ****   *         PDCRE        PD0-15        LL_PWR_EnableGPIOPullDown\n
1157:Drivers/STM32WBxx_HAL_Driver/Inc/stm32wbxx_ll_pwr.h ****   *         PDCRH        PD0-15        LL_PWR_EnableGPIOPullDown
1158:Drivers/STM32WBxx_HAL_Driver/Inc/stm32wbxx_ll_pwr.h ****   * @param  GPIO This parameter can be one of the following values:
1159:Drivers/STM32WBxx_HAL_Driver/Inc/stm32wbxx_ll_pwr.h ****   *         @arg @ref LL_PWR_GPIO_A
1160:Drivers/STM32WBxx_HAL_Driver/Inc/stm32wbxx_ll_pwr.h ****   *         @arg @ref LL_PWR_GPIO_B
1161:Drivers/STM32WBxx_HAL_Driver/Inc/stm32wbxx_ll_pwr.h ****   *         @arg @ref LL_PWR_GPIO_C
1162:Drivers/STM32WBxx_HAL_Driver/Inc/stm32wbxx_ll_pwr.h ****   *         @arg @ref LL_PWR_GPIO_D
1163:Drivers/STM32WBxx_HAL_Driver/Inc/stm32wbxx_ll_pwr.h ****   *         @arg @ref LL_PWR_GPIO_E
1164:Drivers/STM32WBxx_HAL_Driver/Inc/stm32wbxx_ll_pwr.h ****   *         @arg @ref LL_PWR_GPIO_H
1165:Drivers/STM32WBxx_HAL_Driver/Inc/stm32wbxx_ll_pwr.h ****   * @param  GPIONumber This parameter can be one of the following values:
1166:Drivers/STM32WBxx_HAL_Driver/Inc/stm32wbxx_ll_pwr.h ****   *         @arg @ref LL_PWR_GPIO_BIT_0
1167:Drivers/STM32WBxx_HAL_Driver/Inc/stm32wbxx_ll_pwr.h ****   *         @arg @ref LL_PWR_GPIO_BIT_1
1168:Drivers/STM32WBxx_HAL_Driver/Inc/stm32wbxx_ll_pwr.h ****   *         @arg @ref LL_PWR_GPIO_BIT_2
1169:Drivers/STM32WBxx_HAL_Driver/Inc/stm32wbxx_ll_pwr.h ****   *         @arg @ref LL_PWR_GPIO_BIT_3
1170:Drivers/STM32WBxx_HAL_Driver/Inc/stm32wbxx_ll_pwr.h ****   *         @arg @ref LL_PWR_GPIO_BIT_4
1171:Drivers/STM32WBxx_HAL_Driver/Inc/stm32wbxx_ll_pwr.h ****   *         @arg @ref LL_PWR_GPIO_BIT_5
1172:Drivers/STM32WBxx_HAL_Driver/Inc/stm32wbxx_ll_pwr.h ****   *         @arg @ref LL_PWR_GPIO_BIT_6
1173:Drivers/STM32WBxx_HAL_Driver/Inc/stm32wbxx_ll_pwr.h ****   *         @arg @ref LL_PWR_GPIO_BIT_7
1174:Drivers/STM32WBxx_HAL_Driver/Inc/stm32wbxx_ll_pwr.h ****   *         @arg @ref LL_PWR_GPIO_BIT_8
1175:Drivers/STM32WBxx_HAL_Driver/Inc/stm32wbxx_ll_pwr.h ****   *         @arg @ref LL_PWR_GPIO_BIT_9
1176:Drivers/STM32WBxx_HAL_Driver/Inc/stm32wbxx_ll_pwr.h ****   *         @arg @ref LL_PWR_GPIO_BIT_10
1177:Drivers/STM32WBxx_HAL_Driver/Inc/stm32wbxx_ll_pwr.h ****   *         @arg @ref LL_PWR_GPIO_BIT_11
1178:Drivers/STM32WBxx_HAL_Driver/Inc/stm32wbxx_ll_pwr.h ****   *         @arg @ref LL_PWR_GPIO_BIT_12
1179:Drivers/STM32WBxx_HAL_Driver/Inc/stm32wbxx_ll_pwr.h ****   *         @arg @ref LL_PWR_GPIO_BIT_13
1180:Drivers/STM32WBxx_HAL_Driver/Inc/stm32wbxx_ll_pwr.h ****   *         @arg @ref LL_PWR_GPIO_BIT_14
1181:Drivers/STM32WBxx_HAL_Driver/Inc/stm32wbxx_ll_pwr.h ****   *         @arg @ref LL_PWR_GPIO_BIT_15
1182:Drivers/STM32WBxx_HAL_Driver/Inc/stm32wbxx_ll_pwr.h ****   * @retval None
1183:Drivers/STM32WBxx_HAL_Driver/Inc/stm32wbxx_ll_pwr.h ****   */
1184:Drivers/STM32WBxx_HAL_Driver/Inc/stm32wbxx_ll_pwr.h **** __STATIC_INLINE void LL_PWR_EnableGPIOPullDown(uint32_t GPIO, uint32_t GPIONumber)
1185:Drivers/STM32WBxx_HAL_Driver/Inc/stm32wbxx_ll_pwr.h **** {
1186:Drivers/STM32WBxx_HAL_Driver/Inc/stm32wbxx_ll_pwr.h ****   SET_BIT(*((__IO uint32_t *)(GPIO + 4UL)), GPIONumber);
1187:Drivers/STM32WBxx_HAL_Driver/Inc/stm32wbxx_ll_pwr.h **** }
1188:Drivers/STM32WBxx_HAL_Driver/Inc/stm32wbxx_ll_pwr.h **** 
1189:Drivers/STM32WBxx_HAL_Driver/Inc/stm32wbxx_ll_pwr.h **** /**
1190:Drivers/STM32WBxx_HAL_Driver/Inc/stm32wbxx_ll_pwr.h ****   * @brief  Disable GPIO pull-down state in Standby and Shutdown modes
1191:Drivers/STM32WBxx_HAL_Driver/Inc/stm32wbxx_ll_pwr.h ****   * @note   Some pins are not configurable for pulling in Standby and Shutdown
1192:Drivers/STM32WBxx_HAL_Driver/Inc/stm32wbxx_ll_pwr.h ****   *         modes. Refer to reference manual for available pins and ports.
1193:Drivers/STM32WBxx_HAL_Driver/Inc/stm32wbxx_ll_pwr.h ****   * @rmtoll PDCRA        PD0-15        LL_PWR_DisableGPIOPullDown\n
1194:Drivers/STM32WBxx_HAL_Driver/Inc/stm32wbxx_ll_pwr.h ****   *         PDCRB        PD0-15        LL_PWR_DisableGPIOPullDown\n
1195:Drivers/STM32WBxx_HAL_Driver/Inc/stm32wbxx_ll_pwr.h ****   *         PDCRC        PD0-15        LL_PWR_DisableGPIOPullDown\n
1196:Drivers/STM32WBxx_HAL_Driver/Inc/stm32wbxx_ll_pwr.h ****   *         PDCRD        PD0-15        LL_PWR_DisableGPIOPullDown\n
1197:Drivers/STM32WBxx_HAL_Driver/Inc/stm32wbxx_ll_pwr.h ****   *         PDCRE        PD0-15        LL_PWR_DisableGPIOPullDown\n
1198:Drivers/STM32WBxx_HAL_Driver/Inc/stm32wbxx_ll_pwr.h ****   *         PDCRH        PD0-15        LL_PWR_DisableGPIOPullDown
1199:Drivers/STM32WBxx_HAL_Driver/Inc/stm32wbxx_ll_pwr.h ****   * @param  GPIO This parameter can be one of the following values:
1200:Drivers/STM32WBxx_HAL_Driver/Inc/stm32wbxx_ll_pwr.h ****   *         @arg @ref LL_PWR_GPIO_A
1201:Drivers/STM32WBxx_HAL_Driver/Inc/stm32wbxx_ll_pwr.h ****   *         @arg @ref LL_PWR_GPIO_B
1202:Drivers/STM32WBxx_HAL_Driver/Inc/stm32wbxx_ll_pwr.h ****   *         @arg @ref LL_PWR_GPIO_C
1203:Drivers/STM32WBxx_HAL_Driver/Inc/stm32wbxx_ll_pwr.h ****   *         @arg @ref LL_PWR_GPIO_D
1204:Drivers/STM32WBxx_HAL_Driver/Inc/stm32wbxx_ll_pwr.h ****   *         @arg @ref LL_PWR_GPIO_E
1205:Drivers/STM32WBxx_HAL_Driver/Inc/stm32wbxx_ll_pwr.h ****   *         @arg @ref LL_PWR_GPIO_H
1206:Drivers/STM32WBxx_HAL_Driver/Inc/stm32wbxx_ll_pwr.h ****   * @param  GPIONumber This parameter can be one of the following values:
1207:Drivers/STM32WBxx_HAL_Driver/Inc/stm32wbxx_ll_pwr.h ****   *         @arg @ref LL_PWR_GPIO_BIT_0
1208:Drivers/STM32WBxx_HAL_Driver/Inc/stm32wbxx_ll_pwr.h ****   *         @arg @ref LL_PWR_GPIO_BIT_1
ARM GAS  /tmp/ccRrvtNP.s 			page 56


1209:Drivers/STM32WBxx_HAL_Driver/Inc/stm32wbxx_ll_pwr.h ****   *         @arg @ref LL_PWR_GPIO_BIT_2
1210:Drivers/STM32WBxx_HAL_Driver/Inc/stm32wbxx_ll_pwr.h ****   *         @arg @ref LL_PWR_GPIO_BIT_3
1211:Drivers/STM32WBxx_HAL_Driver/Inc/stm32wbxx_ll_pwr.h ****   *         @arg @ref LL_PWR_GPIO_BIT_4
1212:Drivers/STM32WBxx_HAL_Driver/Inc/stm32wbxx_ll_pwr.h ****   *         @arg @ref LL_PWR_GPIO_BIT_5
1213:Drivers/STM32WBxx_HAL_Driver/Inc/stm32wbxx_ll_pwr.h ****   *         @arg @ref LL_PWR_GPIO_BIT_6
1214:Drivers/STM32WBxx_HAL_Driver/Inc/stm32wbxx_ll_pwr.h ****   *         @arg @ref LL_PWR_GPIO_BIT_7
1215:Drivers/STM32WBxx_HAL_Driver/Inc/stm32wbxx_ll_pwr.h ****   *         @arg @ref LL_PWR_GPIO_BIT_8
1216:Drivers/STM32WBxx_HAL_Driver/Inc/stm32wbxx_ll_pwr.h ****   *         @arg @ref LL_PWR_GPIO_BIT_9
1217:Drivers/STM32WBxx_HAL_Driver/Inc/stm32wbxx_ll_pwr.h ****   *         @arg @ref LL_PWR_GPIO_BIT_10
1218:Drivers/STM32WBxx_HAL_Driver/Inc/stm32wbxx_ll_pwr.h ****   *         @arg @ref LL_PWR_GPIO_BIT_11
1219:Drivers/STM32WBxx_HAL_Driver/Inc/stm32wbxx_ll_pwr.h ****   *         @arg @ref LL_PWR_GPIO_BIT_12
1220:Drivers/STM32WBxx_HAL_Driver/Inc/stm32wbxx_ll_pwr.h ****   *         @arg @ref LL_PWR_GPIO_BIT_13
1221:Drivers/STM32WBxx_HAL_Driver/Inc/stm32wbxx_ll_pwr.h ****   *         @arg @ref LL_PWR_GPIO_BIT_14
1222:Drivers/STM32WBxx_HAL_Driver/Inc/stm32wbxx_ll_pwr.h ****   *         @arg @ref LL_PWR_GPIO_BIT_15
1223:Drivers/STM32WBxx_HAL_Driver/Inc/stm32wbxx_ll_pwr.h ****   * @retval None
1224:Drivers/STM32WBxx_HAL_Driver/Inc/stm32wbxx_ll_pwr.h ****   */
1225:Drivers/STM32WBxx_HAL_Driver/Inc/stm32wbxx_ll_pwr.h **** __STATIC_INLINE void LL_PWR_DisableGPIOPullDown(uint32_t GPIO, uint32_t GPIONumber)
1226:Drivers/STM32WBxx_HAL_Driver/Inc/stm32wbxx_ll_pwr.h **** {
1227:Drivers/STM32WBxx_HAL_Driver/Inc/stm32wbxx_ll_pwr.h ****   CLEAR_BIT(*((__IO uint32_t *)(GPIO + 4UL)), GPIONumber);
1228:Drivers/STM32WBxx_HAL_Driver/Inc/stm32wbxx_ll_pwr.h **** }
1229:Drivers/STM32WBxx_HAL_Driver/Inc/stm32wbxx_ll_pwr.h **** 
1230:Drivers/STM32WBxx_HAL_Driver/Inc/stm32wbxx_ll_pwr.h **** /**
1231:Drivers/STM32WBxx_HAL_Driver/Inc/stm32wbxx_ll_pwr.h ****   * @brief  Check if GPIO pull-down state is enabled
1232:Drivers/STM32WBxx_HAL_Driver/Inc/stm32wbxx_ll_pwr.h ****   * @rmtoll PDCRA        PD0-15        LL_PWR_IsEnabledGPIOPullDown\n
1233:Drivers/STM32WBxx_HAL_Driver/Inc/stm32wbxx_ll_pwr.h ****   *         PDCRB        PD0-15        LL_PWR_IsEnabledGPIOPullDown\n
1234:Drivers/STM32WBxx_HAL_Driver/Inc/stm32wbxx_ll_pwr.h ****   *         PDCRC        PD0-15        LL_PWR_IsEnabledGPIOPullDown\n
1235:Drivers/STM32WBxx_HAL_Driver/Inc/stm32wbxx_ll_pwr.h ****   *         PDCRD        PD0-15        LL_PWR_IsEnabledGPIOPullDown\n
1236:Drivers/STM32WBxx_HAL_Driver/Inc/stm32wbxx_ll_pwr.h ****   *         PDCRE        PD0-15        LL_PWR_IsEnabledGPIOPullDown\n
1237:Drivers/STM32WBxx_HAL_Driver/Inc/stm32wbxx_ll_pwr.h ****   *         PDCRH        PD0-15        LL_PWR_IsEnabledGPIOPullDown
1238:Drivers/STM32WBxx_HAL_Driver/Inc/stm32wbxx_ll_pwr.h ****   * @param  GPIO This parameter can be one of the following values:
1239:Drivers/STM32WBxx_HAL_Driver/Inc/stm32wbxx_ll_pwr.h ****   *         @arg @ref LL_PWR_GPIO_A
1240:Drivers/STM32WBxx_HAL_Driver/Inc/stm32wbxx_ll_pwr.h ****   *         @arg @ref LL_PWR_GPIO_B
1241:Drivers/STM32WBxx_HAL_Driver/Inc/stm32wbxx_ll_pwr.h ****   *         @arg @ref LL_PWR_GPIO_C
1242:Drivers/STM32WBxx_HAL_Driver/Inc/stm32wbxx_ll_pwr.h ****   *         @arg @ref LL_PWR_GPIO_D
1243:Drivers/STM32WBxx_HAL_Driver/Inc/stm32wbxx_ll_pwr.h ****   *         @arg @ref LL_PWR_GPIO_E
1244:Drivers/STM32WBxx_HAL_Driver/Inc/stm32wbxx_ll_pwr.h ****   *         @arg @ref LL_PWR_GPIO_H
1245:Drivers/STM32WBxx_HAL_Driver/Inc/stm32wbxx_ll_pwr.h ****   * @param  GPIONumber This parameter can be one of the following values:
1246:Drivers/STM32WBxx_HAL_Driver/Inc/stm32wbxx_ll_pwr.h ****   *         @arg @ref LL_PWR_GPIO_BIT_0
1247:Drivers/STM32WBxx_HAL_Driver/Inc/stm32wbxx_ll_pwr.h ****   *         @arg @ref LL_PWR_GPIO_BIT_1
1248:Drivers/STM32WBxx_HAL_Driver/Inc/stm32wbxx_ll_pwr.h ****   *         @arg @ref LL_PWR_GPIO_BIT_2
1249:Drivers/STM32WBxx_HAL_Driver/Inc/stm32wbxx_ll_pwr.h ****   *         @arg @ref LL_PWR_GPIO_BIT_3
1250:Drivers/STM32WBxx_HAL_Driver/Inc/stm32wbxx_ll_pwr.h ****   *         @arg @ref LL_PWR_GPIO_BIT_4
1251:Drivers/STM32WBxx_HAL_Driver/Inc/stm32wbxx_ll_pwr.h ****   *         @arg @ref LL_PWR_GPIO_BIT_5
1252:Drivers/STM32WBxx_HAL_Driver/Inc/stm32wbxx_ll_pwr.h ****   *         @arg @ref LL_PWR_GPIO_BIT_6
1253:Drivers/STM32WBxx_HAL_Driver/Inc/stm32wbxx_ll_pwr.h ****   *         @arg @ref LL_PWR_GPIO_BIT_7
1254:Drivers/STM32WBxx_HAL_Driver/Inc/stm32wbxx_ll_pwr.h ****   *         @arg @ref LL_PWR_GPIO_BIT_8
1255:Drivers/STM32WBxx_HAL_Driver/Inc/stm32wbxx_ll_pwr.h ****   *         @arg @ref LL_PWR_GPIO_BIT_9
1256:Drivers/STM32WBxx_HAL_Driver/Inc/stm32wbxx_ll_pwr.h ****   *         @arg @ref LL_PWR_GPIO_BIT_10
1257:Drivers/STM32WBxx_HAL_Driver/Inc/stm32wbxx_ll_pwr.h ****   *         @arg @ref LL_PWR_GPIO_BIT_11
1258:Drivers/STM32WBxx_HAL_Driver/Inc/stm32wbxx_ll_pwr.h ****   *         @arg @ref LL_PWR_GPIO_BIT_12
1259:Drivers/STM32WBxx_HAL_Driver/Inc/stm32wbxx_ll_pwr.h ****   *         @arg @ref LL_PWR_GPIO_BIT_13
1260:Drivers/STM32WBxx_HAL_Driver/Inc/stm32wbxx_ll_pwr.h ****   *         @arg @ref LL_PWR_GPIO_BIT_14
1261:Drivers/STM32WBxx_HAL_Driver/Inc/stm32wbxx_ll_pwr.h ****   *         @arg @ref LL_PWR_GPIO_BIT_15
1262:Drivers/STM32WBxx_HAL_Driver/Inc/stm32wbxx_ll_pwr.h ****   * @retval State of bit (1 or 0).
1263:Drivers/STM32WBxx_HAL_Driver/Inc/stm32wbxx_ll_pwr.h ****   */
1264:Drivers/STM32WBxx_HAL_Driver/Inc/stm32wbxx_ll_pwr.h **** __STATIC_INLINE uint32_t LL_PWR_IsEnabledGPIOPullDown(uint32_t GPIO, uint32_t GPIONumber)
1265:Drivers/STM32WBxx_HAL_Driver/Inc/stm32wbxx_ll_pwr.h **** {
ARM GAS  /tmp/ccRrvtNP.s 			page 57


1266:Drivers/STM32WBxx_HAL_Driver/Inc/stm32wbxx_ll_pwr.h ****   return ((READ_BIT(*((__IO uint32_t *)(GPIO + 4UL)), GPIONumber) == (GPIONumber)) ? 1UL : 0UL);
1267:Drivers/STM32WBxx_HAL_Driver/Inc/stm32wbxx_ll_pwr.h **** }
1268:Drivers/STM32WBxx_HAL_Driver/Inc/stm32wbxx_ll_pwr.h **** 
1269:Drivers/STM32WBxx_HAL_Driver/Inc/stm32wbxx_ll_pwr.h **** #if defined(PWR_CR5_SMPSEN)
1270:Drivers/STM32WBxx_HAL_Driver/Inc/stm32wbxx_ll_pwr.h **** /**
1271:Drivers/STM32WBxx_HAL_Driver/Inc/stm32wbxx_ll_pwr.h ****   * @brief  Set BOR configuration
1272:Drivers/STM32WBxx_HAL_Driver/Inc/stm32wbxx_ll_pwr.h ****   * @rmtoll CR5          BORHC         LL_PWR_SetBORConfig
1273:Drivers/STM32WBxx_HAL_Driver/Inc/stm32wbxx_ll_pwr.h ****   * @param  BORConfiguration This parameter can be one of the following values:
1274:Drivers/STM32WBxx_HAL_Driver/Inc/stm32wbxx_ll_pwr.h ****   *         @arg @ref LL_PWR_BOR_SYSTEM_RESET
1275:Drivers/STM32WBxx_HAL_Driver/Inc/stm32wbxx_ll_pwr.h ****   *         @arg @ref LL_PWR_BOR_SMPS_FORCE_BYPASS
1276:Drivers/STM32WBxx_HAL_Driver/Inc/stm32wbxx_ll_pwr.h ****   */
1277:Drivers/STM32WBxx_HAL_Driver/Inc/stm32wbxx_ll_pwr.h **** __STATIC_INLINE void LL_PWR_SetBORConfig(uint32_t BORConfiguration)
 1334              		.loc 2 1277 22 view .LVU264
 1335              	.LBB59:
1278:Drivers/STM32WBxx_HAL_Driver/Inc/stm32wbxx_ll_pwr.h **** {
1279:Drivers/STM32WBxx_HAL_Driver/Inc/stm32wbxx_ll_pwr.h ****   MODIFY_REG(PWR->CR5, PWR_CR5_BORHC, BORConfiguration);
 1336              		.loc 2 1279 3 view .LVU265
 1337 0000 034A     		ldr	r2, .L119
 1338 0002 D369     		ldr	r3, [r2, #28]
 1339 0004 23F48073 		bic	r3, r3, #256
 1340 0008 1843     		orrs	r0, r0, r3
 1341              	.LVL95:
 1342              		.loc 2 1279 3 is_stmt 0 view .LVU266
 1343 000a D061     		str	r0, [r2, #28]
 1344              	.LVL96:
 1345              		.loc 2 1279 3 view .LVU267
 1346              	.LBE59:
 1347              	.LBE58:
 595:Drivers/STM32WBxx_HAL_Driver/Src/stm32wbxx_hal_pwr_ex.c **** }
 1348              		.loc 1 595 1 view .LVU268
 1349 000c 7047     		bx	lr
 1350              	.L120:
 1351 000e 00BF     		.align	2
 1352              	.L119:
 1353 0010 00040058 		.word	1476396032
 1354              		.cfi_endproc
 1355              	.LFE965:
 1357              		.section	.text.HAL_PWREx_GetBORConfig,"ax",%progbits
 1358              		.align	1
 1359              		.global	HAL_PWREx_GetBORConfig
 1360              		.syntax unified
 1361              		.thumb
 1362              		.thumb_func
 1363              		.fpu fpv4-sp-d16
 1365              	HAL_PWREx_GetBORConfig:
 1366              	.LFB966:
 596:Drivers/STM32WBxx_HAL_Driver/Src/stm32wbxx_hal_pwr_ex.c **** 
 597:Drivers/STM32WBxx_HAL_Driver/Src/stm32wbxx_hal_pwr_ex.c **** /**
 598:Drivers/STM32WBxx_HAL_Driver/Src/stm32wbxx_hal_pwr_ex.c ****   * @brief  Get BOR configuration
 599:Drivers/STM32WBxx_HAL_Driver/Src/stm32wbxx_hal_pwr_ex.c ****   * @retval Returned value can be one of the following values:
 600:Drivers/STM32WBxx_HAL_Driver/Src/stm32wbxx_hal_pwr_ex.c ****   *         @arg @ref PWR_BOR_SYSTEM_RESET
 601:Drivers/STM32WBxx_HAL_Driver/Src/stm32wbxx_hal_pwr_ex.c ****   *         @arg @ref PWR_BOR_SMPS_FORCE_BYPASS
 602:Drivers/STM32WBxx_HAL_Driver/Src/stm32wbxx_hal_pwr_ex.c ****   */
 603:Drivers/STM32WBxx_HAL_Driver/Src/stm32wbxx_hal_pwr_ex.c **** uint32_t HAL_PWREx_GetBORConfig(void)
 604:Drivers/STM32WBxx_HAL_Driver/Src/stm32wbxx_hal_pwr_ex.c **** {
 1367              		.loc 1 604 1 is_stmt 1 view -0
 1368              		.cfi_startproc
ARM GAS  /tmp/ccRrvtNP.s 			page 58


 1369              		@ args = 0, pretend = 0, frame = 0
 1370              		@ frame_needed = 0, uses_anonymous_args = 0
 1371              		@ link register save eliminated.
 605:Drivers/STM32WBxx_HAL_Driver/Src/stm32wbxx_hal_pwr_ex.c ****   return LL_PWR_GetBORConfig();
 1372              		.loc 1 605 3 view .LVU270
 1373              	.LBB60:
 1374              	.LBI60:
1280:Drivers/STM32WBxx_HAL_Driver/Inc/stm32wbxx_ll_pwr.h **** }
1281:Drivers/STM32WBxx_HAL_Driver/Inc/stm32wbxx_ll_pwr.h **** 
1282:Drivers/STM32WBxx_HAL_Driver/Inc/stm32wbxx_ll_pwr.h **** /**
1283:Drivers/STM32WBxx_HAL_Driver/Inc/stm32wbxx_ll_pwr.h ****   * @brief  Get BOR configuration
1284:Drivers/STM32WBxx_HAL_Driver/Inc/stm32wbxx_ll_pwr.h ****   * @rmtoll CR5          BORHC         LL_PWR_GetBORConfig
1285:Drivers/STM32WBxx_HAL_Driver/Inc/stm32wbxx_ll_pwr.h ****   * @retval Returned value can be one of the following values:
1286:Drivers/STM32WBxx_HAL_Driver/Inc/stm32wbxx_ll_pwr.h ****   *         @arg @ref LL_PWR_BOR_SYSTEM_RESET
1287:Drivers/STM32WBxx_HAL_Driver/Inc/stm32wbxx_ll_pwr.h ****   *         @arg @ref LL_PWR_BOR_SMPS_FORCE_BYPASS
1288:Drivers/STM32WBxx_HAL_Driver/Inc/stm32wbxx_ll_pwr.h ****   */
1289:Drivers/STM32WBxx_HAL_Driver/Inc/stm32wbxx_ll_pwr.h **** __STATIC_INLINE uint32_t LL_PWR_GetBORConfig(void)
 1375              		.loc 2 1289 26 view .LVU271
 1376              	.LBB61:
1290:Drivers/STM32WBxx_HAL_Driver/Inc/stm32wbxx_ll_pwr.h **** {
1291:Drivers/STM32WBxx_HAL_Driver/Inc/stm32wbxx_ll_pwr.h ****   return (uint32_t)(READ_BIT(PWR->CR5, PWR_CR5_BORHC));
 1377              		.loc 2 1291 3 view .LVU272
 1378              		.loc 2 1291 21 is_stmt 0 view .LVU273
 1379 0000 024B     		ldr	r3, .L122
 1380 0002 D869     		ldr	r0, [r3, #28]
 1381              	.LBE61:
 1382              	.LBE60:
 606:Drivers/STM32WBxx_HAL_Driver/Src/stm32wbxx_hal_pwr_ex.c **** }
 1383              		.loc 1 606 1 view .LVU274
 1384 0004 00F48070 		and	r0, r0, #256
 1385 0008 7047     		bx	lr
 1386              	.L123:
 1387 000a 00BF     		.align	2
 1388              	.L122:
 1389 000c 00040058 		.word	1476396032
 1390              		.cfi_endproc
 1391              	.LFE966:
 1393              		.section	.text.HAL_PWREx_HoldCore,"ax",%progbits
 1394              		.align	1
 1395              		.global	HAL_PWREx_HoldCore
 1396              		.syntax unified
 1397              		.thumb
 1398              		.thumb_func
 1399              		.fpu fpv4-sp-d16
 1401              	HAL_PWREx_HoldCore:
 1402              	.LVL97:
 1403              	.LFB967:
 607:Drivers/STM32WBxx_HAL_Driver/Src/stm32wbxx_hal_pwr_ex.c **** #endif
 608:Drivers/STM32WBxx_HAL_Driver/Src/stm32wbxx_hal_pwr_ex.c **** 
 609:Drivers/STM32WBxx_HAL_Driver/Src/stm32wbxx_hal_pwr_ex.c **** /****************************************************************************/
 610:Drivers/STM32WBxx_HAL_Driver/Src/stm32wbxx_hal_pwr_ex.c **** /**
 611:Drivers/STM32WBxx_HAL_Driver/Src/stm32wbxx_hal_pwr_ex.c ****   * @brief  Hold the CPU and their allocated peripherals after reset or wakeup from stop or standby
 612:Drivers/STM32WBxx_HAL_Driver/Src/stm32wbxx_hal_pwr_ex.c ****   * @param  CPU: Specifies the core to be held.
 613:Drivers/STM32WBxx_HAL_Driver/Src/stm32wbxx_hal_pwr_ex.c ****   *              This parameter can be one of the following values:
 614:Drivers/STM32WBxx_HAL_Driver/Src/stm32wbxx_hal_pwr_ex.c ****   *             @arg PWR_CORE_CPU2: Hold CPU2 and set CPU1 as master.
 615:Drivers/STM32WBxx_HAL_Driver/Src/stm32wbxx_hal_pwr_ex.c ****   * @note   Hold CPU2 with CPU1 as master by default.
 616:Drivers/STM32WBxx_HAL_Driver/Src/stm32wbxx_hal_pwr_ex.c ****   * @retval None
ARM GAS  /tmp/ccRrvtNP.s 			page 59


 617:Drivers/STM32WBxx_HAL_Driver/Src/stm32wbxx_hal_pwr_ex.c ****   */
 618:Drivers/STM32WBxx_HAL_Driver/Src/stm32wbxx_hal_pwr_ex.c **** void HAL_PWREx_HoldCore(uint32_t CPU)
 619:Drivers/STM32WBxx_HAL_Driver/Src/stm32wbxx_hal_pwr_ex.c **** {
 1404              		.loc 1 619 1 is_stmt 1 view -0
 1405              		.cfi_startproc
 1406              		@ args = 0, pretend = 0, frame = 0
 1407              		@ frame_needed = 0, uses_anonymous_args = 0
 1408              		@ link register save eliminated.
 620:Drivers/STM32WBxx_HAL_Driver/Src/stm32wbxx_hal_pwr_ex.c ****   /* Check the parameters */
 621:Drivers/STM32WBxx_HAL_Driver/Src/stm32wbxx_hal_pwr_ex.c ****   assert_param(IS_PWR_CORE_HOLD_RELEASE(CPU));
 1409              		.loc 1 621 3 view .LVU276
 622:Drivers/STM32WBxx_HAL_Driver/Src/stm32wbxx_hal_pwr_ex.c ****   
 623:Drivers/STM32WBxx_HAL_Driver/Src/stm32wbxx_hal_pwr_ex.c ****   LL_PWR_DisableBootC2();
 1410              		.loc 1 623 3 view .LVU277
 1411              	.LBB62:
 1412              	.LBI62:
1292:Drivers/STM32WBxx_HAL_Driver/Inc/stm32wbxx_ll_pwr.h **** }
1293:Drivers/STM32WBxx_HAL_Driver/Inc/stm32wbxx_ll_pwr.h **** #endif
1294:Drivers/STM32WBxx_HAL_Driver/Inc/stm32wbxx_ll_pwr.h **** 
1295:Drivers/STM32WBxx_HAL_Driver/Inc/stm32wbxx_ll_pwr.h **** /**
1296:Drivers/STM32WBxx_HAL_Driver/Inc/stm32wbxx_ll_pwr.h ****   * @}
1297:Drivers/STM32WBxx_HAL_Driver/Inc/stm32wbxx_ll_pwr.h ****   */
1298:Drivers/STM32WBxx_HAL_Driver/Inc/stm32wbxx_ll_pwr.h **** 
1299:Drivers/STM32WBxx_HAL_Driver/Inc/stm32wbxx_ll_pwr.h **** #if defined(PWR_CR5_SMPSEN)
1300:Drivers/STM32WBxx_HAL_Driver/Inc/stm32wbxx_ll_pwr.h **** /** @defgroup PWR_LL_EF_Configuration_SMPS Configuration of SMPS
1301:Drivers/STM32WBxx_HAL_Driver/Inc/stm32wbxx_ll_pwr.h ****   * @{
1302:Drivers/STM32WBxx_HAL_Driver/Inc/stm32wbxx_ll_pwr.h ****   */
1303:Drivers/STM32WBxx_HAL_Driver/Inc/stm32wbxx_ll_pwr.h **** 
