ARM GAS  /tmp/ccFx4qIG.s 			page 1


   1              		.cpu cortex-m4
   2              		.eabi_attribute 27, 1
   3              		.eabi_attribute 28, 1
   4              		.eabi_attribute 20, 1
   5              		.eabi_attribute 21, 1
   6              		.eabi_attribute 23, 3
   7              		.eabi_attribute 24, 1
   8              		.eabi_attribute 25, 1
   9              		.eabi_attribute 26, 1
  10              		.eabi_attribute 30, 1
  11              		.eabi_attribute 34, 1
  12              		.eabi_attribute 18, 4
  13              		.file	"stm32wbxx_hal.c"
  14              		.text
  15              	.Ltext0:
  16              		.cfi_sections	.debug_frame
  17              		.section	.text.HAL_MspInit,"ax",%progbits
  18              		.align	1
  19              		.weak	HAL_MspInit
  20              		.arch armv7e-m
  21              		.syntax unified
  22              		.thumb
  23              		.thumb_func
  24              		.fpu fpv4-sp-d16
  26              	HAL_MspInit:
  27              	.LFB943:
  28              		.file 1 "Drivers/STM32WBxx_HAL_Driver/Src/stm32wbxx_hal.c"
   1:Drivers/STM32WBxx_HAL_Driver/Src/stm32wbxx_hal.c **** /**
   2:Drivers/STM32WBxx_HAL_Driver/Src/stm32wbxx_hal.c ****   ******************************************************************************
   3:Drivers/STM32WBxx_HAL_Driver/Src/stm32wbxx_hal.c ****   * @file    stm32wbxx_hal.c
   4:Drivers/STM32WBxx_HAL_Driver/Src/stm32wbxx_hal.c ****   * @author  MCD Application Team
   5:Drivers/STM32WBxx_HAL_Driver/Src/stm32wbxx_hal.c ****   * @brief   HAL module driver.
   6:Drivers/STM32WBxx_HAL_Driver/Src/stm32wbxx_hal.c ****   *          This is the common part of the HAL initialization
   7:Drivers/STM32WBxx_HAL_Driver/Src/stm32wbxx_hal.c ****   *
   8:Drivers/STM32WBxx_HAL_Driver/Src/stm32wbxx_hal.c ****   @verbatim
   9:Drivers/STM32WBxx_HAL_Driver/Src/stm32wbxx_hal.c ****   ==============================================================================
  10:Drivers/STM32WBxx_HAL_Driver/Src/stm32wbxx_hal.c ****                      ##### How to use this driver #####
  11:Drivers/STM32WBxx_HAL_Driver/Src/stm32wbxx_hal.c ****   ==============================================================================
  12:Drivers/STM32WBxx_HAL_Driver/Src/stm32wbxx_hal.c ****     [..]
  13:Drivers/STM32WBxx_HAL_Driver/Src/stm32wbxx_hal.c ****     The common HAL driver contains a set of generic and common APIs that can be
  14:Drivers/STM32WBxx_HAL_Driver/Src/stm32wbxx_hal.c ****     used by the PPP peripheral drivers and the user to start using the HAL.
  15:Drivers/STM32WBxx_HAL_Driver/Src/stm32wbxx_hal.c ****     [..]
  16:Drivers/STM32WBxx_HAL_Driver/Src/stm32wbxx_hal.c ****     The HAL contains two APIs' categories:
  17:Drivers/STM32WBxx_HAL_Driver/Src/stm32wbxx_hal.c ****          (+) Common HAL APIs
  18:Drivers/STM32WBxx_HAL_Driver/Src/stm32wbxx_hal.c ****          (+) Services HAL APIs
  19:Drivers/STM32WBxx_HAL_Driver/Src/stm32wbxx_hal.c **** 
  20:Drivers/STM32WBxx_HAL_Driver/Src/stm32wbxx_hal.c ****   @endverbatim
  21:Drivers/STM32WBxx_HAL_Driver/Src/stm32wbxx_hal.c ****   ******************************************************************************
  22:Drivers/STM32WBxx_HAL_Driver/Src/stm32wbxx_hal.c ****   * @attention
  23:Drivers/STM32WBxx_HAL_Driver/Src/stm32wbxx_hal.c ****   *
  24:Drivers/STM32WBxx_HAL_Driver/Src/stm32wbxx_hal.c ****   * <h2><center>&copy; Copyright (c) 2019 STMicroelectronics. 
  25:Drivers/STM32WBxx_HAL_Driver/Src/stm32wbxx_hal.c ****   * All rights reserved.</center></h2>
  26:Drivers/STM32WBxx_HAL_Driver/Src/stm32wbxx_hal.c ****   *
  27:Drivers/STM32WBxx_HAL_Driver/Src/stm32wbxx_hal.c ****   * This software component is licensed by ST under BSD 3-Clause license,
  28:Drivers/STM32WBxx_HAL_Driver/Src/stm32wbxx_hal.c ****   * the "License"; You may not use this file except in compliance with the 
  29:Drivers/STM32WBxx_HAL_Driver/Src/stm32wbxx_hal.c ****   * License. You may obtain a copy of the License at:
  30:Drivers/STM32WBxx_HAL_Driver/Src/stm32wbxx_hal.c ****   *                        opensource.org/licenses/BSD-3-Clause
ARM GAS  /tmp/ccFx4qIG.s 			page 2


  31:Drivers/STM32WBxx_HAL_Driver/Src/stm32wbxx_hal.c ****   *
  32:Drivers/STM32WBxx_HAL_Driver/Src/stm32wbxx_hal.c ****   ******************************************************************************
  33:Drivers/STM32WBxx_HAL_Driver/Src/stm32wbxx_hal.c ****   */
  34:Drivers/STM32WBxx_HAL_Driver/Src/stm32wbxx_hal.c **** 
  35:Drivers/STM32WBxx_HAL_Driver/Src/stm32wbxx_hal.c **** /* Includes ------------------------------------------------------------------*/
  36:Drivers/STM32WBxx_HAL_Driver/Src/stm32wbxx_hal.c **** #include "stm32wbxx_hal.h"
  37:Drivers/STM32WBxx_HAL_Driver/Src/stm32wbxx_hal.c **** 
  38:Drivers/STM32WBxx_HAL_Driver/Src/stm32wbxx_hal.c **** /** @addtogroup STM32WBxx_HAL_Driver
  39:Drivers/STM32WBxx_HAL_Driver/Src/stm32wbxx_hal.c ****   * @{
  40:Drivers/STM32WBxx_HAL_Driver/Src/stm32wbxx_hal.c ****   */
  41:Drivers/STM32WBxx_HAL_Driver/Src/stm32wbxx_hal.c **** 
  42:Drivers/STM32WBxx_HAL_Driver/Src/stm32wbxx_hal.c **** /** @addtogroup HAL
  43:Drivers/STM32WBxx_HAL_Driver/Src/stm32wbxx_hal.c ****   * @brief HAL module driver
  44:Drivers/STM32WBxx_HAL_Driver/Src/stm32wbxx_hal.c ****   * @{
  45:Drivers/STM32WBxx_HAL_Driver/Src/stm32wbxx_hal.c ****   */
  46:Drivers/STM32WBxx_HAL_Driver/Src/stm32wbxx_hal.c **** 
  47:Drivers/STM32WBxx_HAL_Driver/Src/stm32wbxx_hal.c **** #ifdef HAL_MODULE_ENABLED
  48:Drivers/STM32WBxx_HAL_Driver/Src/stm32wbxx_hal.c **** 
  49:Drivers/STM32WBxx_HAL_Driver/Src/stm32wbxx_hal.c **** /* Private typedef -----------------------------------------------------------*/
  50:Drivers/STM32WBxx_HAL_Driver/Src/stm32wbxx_hal.c **** /* Private define ------------------------------------------------------------*/
  51:Drivers/STM32WBxx_HAL_Driver/Src/stm32wbxx_hal.c **** 
  52:Drivers/STM32WBxx_HAL_Driver/Src/stm32wbxx_hal.c **** /** @defgroup HAL_Private_Constants HAL Private Constants
  53:Drivers/STM32WBxx_HAL_Driver/Src/stm32wbxx_hal.c ****   * @{
  54:Drivers/STM32WBxx_HAL_Driver/Src/stm32wbxx_hal.c ****   */
  55:Drivers/STM32WBxx_HAL_Driver/Src/stm32wbxx_hal.c **** /**
  56:Drivers/STM32WBxx_HAL_Driver/Src/stm32wbxx_hal.c ****  * @brief STM32WBxx HAL Driver version number
  57:Drivers/STM32WBxx_HAL_Driver/Src/stm32wbxx_hal.c ****    */
  58:Drivers/STM32WBxx_HAL_Driver/Src/stm32wbxx_hal.c **** #define __STM32WBxx_HAL_VERSION_MAIN   (0x01U) /*!< [31:24] main version */
  59:Drivers/STM32WBxx_HAL_Driver/Src/stm32wbxx_hal.c **** #define __STM32WBxx_HAL_VERSION_SUB1   (0x03U) /*!< [23:16] sub1 version */
  60:Drivers/STM32WBxx_HAL_Driver/Src/stm32wbxx_hal.c **** #define __STM32WBxx_HAL_VERSION_SUB2   (0x00U) /*!< [15:8]  sub2 version */
  61:Drivers/STM32WBxx_HAL_Driver/Src/stm32wbxx_hal.c **** #define __STM32WBxx_HAL_VERSION_RC     (0x00U) /*!< [7:0]  release candidate */
  62:Drivers/STM32WBxx_HAL_Driver/Src/stm32wbxx_hal.c **** #define __STM32WBxx_HAL_VERSION         ((__STM32WBxx_HAL_VERSION_MAIN << 24U)\
  63:Drivers/STM32WBxx_HAL_Driver/Src/stm32wbxx_hal.c ****                                         |(__STM32WBxx_HAL_VERSION_SUB1 << 16U)\
  64:Drivers/STM32WBxx_HAL_Driver/Src/stm32wbxx_hal.c ****                                         |(__STM32WBxx_HAL_VERSION_SUB2 << 8U )\
  65:Drivers/STM32WBxx_HAL_Driver/Src/stm32wbxx_hal.c ****                                         |(__STM32WBxx_HAL_VERSION_RC))
  66:Drivers/STM32WBxx_HAL_Driver/Src/stm32wbxx_hal.c **** 
  67:Drivers/STM32WBxx_HAL_Driver/Src/stm32wbxx_hal.c **** #if defined(VREFBUF)
  68:Drivers/STM32WBxx_HAL_Driver/Src/stm32wbxx_hal.c **** #define VREFBUF_TIMEOUT_VALUE     10U   /* 10 ms */
  69:Drivers/STM32WBxx_HAL_Driver/Src/stm32wbxx_hal.c **** #endif
  70:Drivers/STM32WBxx_HAL_Driver/Src/stm32wbxx_hal.c **** 
  71:Drivers/STM32WBxx_HAL_Driver/Src/stm32wbxx_hal.c **** /**
  72:Drivers/STM32WBxx_HAL_Driver/Src/stm32wbxx_hal.c ****   * @}
  73:Drivers/STM32WBxx_HAL_Driver/Src/stm32wbxx_hal.c ****   */
  74:Drivers/STM32WBxx_HAL_Driver/Src/stm32wbxx_hal.c **** 
  75:Drivers/STM32WBxx_HAL_Driver/Src/stm32wbxx_hal.c **** /* Private macro -------------------------------------------------------------*/
  76:Drivers/STM32WBxx_HAL_Driver/Src/stm32wbxx_hal.c **** /* Exported variables ---------------------------------------------------------*/
  77:Drivers/STM32WBxx_HAL_Driver/Src/stm32wbxx_hal.c **** /** @defgroup HAL_Exported_Variables HAL Exported Variables
  78:Drivers/STM32WBxx_HAL_Driver/Src/stm32wbxx_hal.c ****   * @{
  79:Drivers/STM32WBxx_HAL_Driver/Src/stm32wbxx_hal.c ****   */
  80:Drivers/STM32WBxx_HAL_Driver/Src/stm32wbxx_hal.c **** __IO uint32_t uwTick;
  81:Drivers/STM32WBxx_HAL_Driver/Src/stm32wbxx_hal.c **** uint32_t uwTickPrio = (1UL << __NVIC_PRIO_BITS); /* Invalid PRIO */
  82:Drivers/STM32WBxx_HAL_Driver/Src/stm32wbxx_hal.c **** uint32_t uwTickFreq = HAL_TICK_FREQ_DEFAULT;  /* 1KHz */
  83:Drivers/STM32WBxx_HAL_Driver/Src/stm32wbxx_hal.c **** /**
  84:Drivers/STM32WBxx_HAL_Driver/Src/stm32wbxx_hal.c ****   * @}
  85:Drivers/STM32WBxx_HAL_Driver/Src/stm32wbxx_hal.c ****   */
  86:Drivers/STM32WBxx_HAL_Driver/Src/stm32wbxx_hal.c **** 
  87:Drivers/STM32WBxx_HAL_Driver/Src/stm32wbxx_hal.c **** /* Private function prototypes -----------------------------------------------*/
ARM GAS  /tmp/ccFx4qIG.s 			page 3


  88:Drivers/STM32WBxx_HAL_Driver/Src/stm32wbxx_hal.c **** /* Exported functions --------------------------------------------------------*/
  89:Drivers/STM32WBxx_HAL_Driver/Src/stm32wbxx_hal.c **** 
  90:Drivers/STM32WBxx_HAL_Driver/Src/stm32wbxx_hal.c **** /** @addtogroup HAL_Exported_Functions
  91:Drivers/STM32WBxx_HAL_Driver/Src/stm32wbxx_hal.c ****   * @{
  92:Drivers/STM32WBxx_HAL_Driver/Src/stm32wbxx_hal.c ****   */
  93:Drivers/STM32WBxx_HAL_Driver/Src/stm32wbxx_hal.c **** 
  94:Drivers/STM32WBxx_HAL_Driver/Src/stm32wbxx_hal.c **** /** @addtogroup HAL_Exported_Functions_Group1
  95:Drivers/STM32WBxx_HAL_Driver/Src/stm32wbxx_hal.c ****  *  @brief    HAL Initialization and Configuration functions
  96:Drivers/STM32WBxx_HAL_Driver/Src/stm32wbxx_hal.c ****  *
  97:Drivers/STM32WBxx_HAL_Driver/Src/stm32wbxx_hal.c **** @verbatim
  98:Drivers/STM32WBxx_HAL_Driver/Src/stm32wbxx_hal.c ****  ===============================================================================
  99:Drivers/STM32WBxx_HAL_Driver/Src/stm32wbxx_hal.c ****            ##### HAL Initialization and Configuration functions #####
 100:Drivers/STM32WBxx_HAL_Driver/Src/stm32wbxx_hal.c ****  ===============================================================================
 101:Drivers/STM32WBxx_HAL_Driver/Src/stm32wbxx_hal.c ****     [..]  This section provides functions allowing to:
 102:Drivers/STM32WBxx_HAL_Driver/Src/stm32wbxx_hal.c ****       (+) Initialize the Flash interface the NVIC allocation and initial time base
 103:Drivers/STM32WBxx_HAL_Driver/Src/stm32wbxx_hal.c ****           clock configuration.
 104:Drivers/STM32WBxx_HAL_Driver/Src/stm32wbxx_hal.c ****       (+) De-initialize common part of the HAL.
 105:Drivers/STM32WBxx_HAL_Driver/Src/stm32wbxx_hal.c ****       (+) Configure the time base source to have 1ms time base with a dedicated
 106:Drivers/STM32WBxx_HAL_Driver/Src/stm32wbxx_hal.c ****           Tick interrupt priority.
 107:Drivers/STM32WBxx_HAL_Driver/Src/stm32wbxx_hal.c ****         (++) SysTick timer is used by default as source of time base, but user
 108:Drivers/STM32WBxx_HAL_Driver/Src/stm32wbxx_hal.c ****              can eventually implement his proper time base source (a general purpose
 109:Drivers/STM32WBxx_HAL_Driver/Src/stm32wbxx_hal.c ****              timer for example or other time source), keeping in mind that Time base
 110:Drivers/STM32WBxx_HAL_Driver/Src/stm32wbxx_hal.c ****              duration should be kept 1ms since PPP_TIMEOUT_VALUEs are defined and
 111:Drivers/STM32WBxx_HAL_Driver/Src/stm32wbxx_hal.c ****              handled in milliseconds basis.
 112:Drivers/STM32WBxx_HAL_Driver/Src/stm32wbxx_hal.c ****         (++) Time base configuration function (HAL_InitTick ()) is called automatically
 113:Drivers/STM32WBxx_HAL_Driver/Src/stm32wbxx_hal.c ****              at the beginning of the program after reset by HAL_Init() or at any time
 114:Drivers/STM32WBxx_HAL_Driver/Src/stm32wbxx_hal.c ****              when clock is configured, by HAL_RCC_ClockConfig().
 115:Drivers/STM32WBxx_HAL_Driver/Src/stm32wbxx_hal.c ****         (++) Source of time base is configured  to generate interrupts at regular
 116:Drivers/STM32WBxx_HAL_Driver/Src/stm32wbxx_hal.c ****              time intervals. Care must be taken if HAL_Delay() is called from a
 117:Drivers/STM32WBxx_HAL_Driver/Src/stm32wbxx_hal.c ****              peripheral ISR process, the Tick interrupt line must have higher priority
 118:Drivers/STM32WBxx_HAL_Driver/Src/stm32wbxx_hal.c ****             (numerically lower) than the peripheral interrupt. Otherwise the caller
 119:Drivers/STM32WBxx_HAL_Driver/Src/stm32wbxx_hal.c ****             ISR process will be blocked.
 120:Drivers/STM32WBxx_HAL_Driver/Src/stm32wbxx_hal.c ****        (++) functions affecting time base configurations are declared as __weak
 121:Drivers/STM32WBxx_HAL_Driver/Src/stm32wbxx_hal.c ****              to make  override possible  in case of other  implementations in user file.
 122:Drivers/STM32WBxx_HAL_Driver/Src/stm32wbxx_hal.c **** @endverbatim
 123:Drivers/STM32WBxx_HAL_Driver/Src/stm32wbxx_hal.c ****   * @{
 124:Drivers/STM32WBxx_HAL_Driver/Src/stm32wbxx_hal.c ****   */
 125:Drivers/STM32WBxx_HAL_Driver/Src/stm32wbxx_hal.c **** 
 126:Drivers/STM32WBxx_HAL_Driver/Src/stm32wbxx_hal.c **** /**
 127:Drivers/STM32WBxx_HAL_Driver/Src/stm32wbxx_hal.c ****   * @brief  This function is used to initialize the HAL Library; it must be the first
 128:Drivers/STM32WBxx_HAL_Driver/Src/stm32wbxx_hal.c ****   *         instruction to be executed in the main program (before to call any other
 129:Drivers/STM32WBxx_HAL_Driver/Src/stm32wbxx_hal.c ****   *         HAL function), it performs the following:
 130:Drivers/STM32WBxx_HAL_Driver/Src/stm32wbxx_hal.c ****   *           Configure the Flash prefetch, instruction and Data caches.
 131:Drivers/STM32WBxx_HAL_Driver/Src/stm32wbxx_hal.c ****   *           Configures the SysTick to generate an interrupt each 1 millisecond,
 132:Drivers/STM32WBxx_HAL_Driver/Src/stm32wbxx_hal.c ****   *           which is clocked by the MSI (at this stage, the clock is not yet
 133:Drivers/STM32WBxx_HAL_Driver/Src/stm32wbxx_hal.c ****   *           configured and thus the system is running from the internal MSI at 4 MHz).
 134:Drivers/STM32WBxx_HAL_Driver/Src/stm32wbxx_hal.c ****   *           Set NVIC Group Priority to 4.
 135:Drivers/STM32WBxx_HAL_Driver/Src/stm32wbxx_hal.c ****   *           Calls the HAL_MspInit() callback function defined in user file
 136:Drivers/STM32WBxx_HAL_Driver/Src/stm32wbxx_hal.c ****   *           "stm32wbxx_hal_msp.c" to do the global low level hardware initialization
 137:Drivers/STM32WBxx_HAL_Driver/Src/stm32wbxx_hal.c ****   *
 138:Drivers/STM32WBxx_HAL_Driver/Src/stm32wbxx_hal.c ****   * @note   SysTick is used as time base for the HAL_Delay() function, the application
 139:Drivers/STM32WBxx_HAL_Driver/Src/stm32wbxx_hal.c ****   *         need to ensure that the SysTick time base is always set to 1 millisecond
 140:Drivers/STM32WBxx_HAL_Driver/Src/stm32wbxx_hal.c ****   *         to have correct HAL operation.
 141:Drivers/STM32WBxx_HAL_Driver/Src/stm32wbxx_hal.c ****   * @retval HAL status
 142:Drivers/STM32WBxx_HAL_Driver/Src/stm32wbxx_hal.c ****   */
 143:Drivers/STM32WBxx_HAL_Driver/Src/stm32wbxx_hal.c **** HAL_StatusTypeDef HAL_Init(void)
 144:Drivers/STM32WBxx_HAL_Driver/Src/stm32wbxx_hal.c **** {
ARM GAS  /tmp/ccFx4qIG.s 			page 4


 145:Drivers/STM32WBxx_HAL_Driver/Src/stm32wbxx_hal.c ****   HAL_StatusTypeDef  status = HAL_OK;
 146:Drivers/STM32WBxx_HAL_Driver/Src/stm32wbxx_hal.c ****   /* Configure Flash prefetch, Instruction cache, Data cache */
 147:Drivers/STM32WBxx_HAL_Driver/Src/stm32wbxx_hal.c ****   /* Default configuration at reset is:                      */
 148:Drivers/STM32WBxx_HAL_Driver/Src/stm32wbxx_hal.c ****   /* - Prefetch disabled                                     */
 149:Drivers/STM32WBxx_HAL_Driver/Src/stm32wbxx_hal.c ****   /* - Instruction cache enabled                             */
 150:Drivers/STM32WBxx_HAL_Driver/Src/stm32wbxx_hal.c ****   /* - Data cache enabled                                    */
 151:Drivers/STM32WBxx_HAL_Driver/Src/stm32wbxx_hal.c **** #if (INSTRUCTION_CACHE_ENABLE == 0U)
 152:Drivers/STM32WBxx_HAL_Driver/Src/stm32wbxx_hal.c ****    __HAL_FLASH_INSTRUCTION_CACHE_DISABLE();
 153:Drivers/STM32WBxx_HAL_Driver/Src/stm32wbxx_hal.c **** #endif /* INSTRUCTION_CACHE_ENABLE */
 154:Drivers/STM32WBxx_HAL_Driver/Src/stm32wbxx_hal.c **** 
 155:Drivers/STM32WBxx_HAL_Driver/Src/stm32wbxx_hal.c **** #if (DATA_CACHE_ENABLE == 0U)
 156:Drivers/STM32WBxx_HAL_Driver/Src/stm32wbxx_hal.c ****    __HAL_FLASH_DATA_CACHE_DISABLE();
 157:Drivers/STM32WBxx_HAL_Driver/Src/stm32wbxx_hal.c **** #endif /* DATA_CACHE_ENABLE */
 158:Drivers/STM32WBxx_HAL_Driver/Src/stm32wbxx_hal.c **** 
 159:Drivers/STM32WBxx_HAL_Driver/Src/stm32wbxx_hal.c **** #if (PREFETCH_ENABLE != 0U)
 160:Drivers/STM32WBxx_HAL_Driver/Src/stm32wbxx_hal.c ****   __HAL_FLASH_PREFETCH_BUFFER_ENABLE();
 161:Drivers/STM32WBxx_HAL_Driver/Src/stm32wbxx_hal.c **** #endif /* PREFETCH_ENABLE */
 162:Drivers/STM32WBxx_HAL_Driver/Src/stm32wbxx_hal.c **** 
 163:Drivers/STM32WBxx_HAL_Driver/Src/stm32wbxx_hal.c ****   /* Set Interrupt Group Priority */
 164:Drivers/STM32WBxx_HAL_Driver/Src/stm32wbxx_hal.c ****   HAL_NVIC_SetPriorityGrouping(NVIC_PRIORITYGROUP_4);
 165:Drivers/STM32WBxx_HAL_Driver/Src/stm32wbxx_hal.c ****   
 166:Drivers/STM32WBxx_HAL_Driver/Src/stm32wbxx_hal.c ****   /* Use SysTick as time base source and configure 1ms tick (default clock after Reset is MSI) */
 167:Drivers/STM32WBxx_HAL_Driver/Src/stm32wbxx_hal.c ****   if (HAL_InitTick(TICK_INT_PRIORITY) != HAL_OK)
 168:Drivers/STM32WBxx_HAL_Driver/Src/stm32wbxx_hal.c ****   {
 169:Drivers/STM32WBxx_HAL_Driver/Src/stm32wbxx_hal.c ****     status = HAL_ERROR;
 170:Drivers/STM32WBxx_HAL_Driver/Src/stm32wbxx_hal.c ****   }
 171:Drivers/STM32WBxx_HAL_Driver/Src/stm32wbxx_hal.c ****   else
 172:Drivers/STM32WBxx_HAL_Driver/Src/stm32wbxx_hal.c ****   {
 173:Drivers/STM32WBxx_HAL_Driver/Src/stm32wbxx_hal.c ****     /* Init the low level hardware */
 174:Drivers/STM32WBxx_HAL_Driver/Src/stm32wbxx_hal.c ****     HAL_MspInit();
 175:Drivers/STM32WBxx_HAL_Driver/Src/stm32wbxx_hal.c ****   }
 176:Drivers/STM32WBxx_HAL_Driver/Src/stm32wbxx_hal.c **** 
 177:Drivers/STM32WBxx_HAL_Driver/Src/stm32wbxx_hal.c ****   /* Return function status */
 178:Drivers/STM32WBxx_HAL_Driver/Src/stm32wbxx_hal.c ****   return status;
 179:Drivers/STM32WBxx_HAL_Driver/Src/stm32wbxx_hal.c **** }
 180:Drivers/STM32WBxx_HAL_Driver/Src/stm32wbxx_hal.c **** 
 181:Drivers/STM32WBxx_HAL_Driver/Src/stm32wbxx_hal.c **** /**
 182:Drivers/STM32WBxx_HAL_Driver/Src/stm32wbxx_hal.c ****   * @brief  This function de-Initializes common part of the HAL and stops the source of time base.
 183:Drivers/STM32WBxx_HAL_Driver/Src/stm32wbxx_hal.c ****   * @note   This function is optional.
 184:Drivers/STM32WBxx_HAL_Driver/Src/stm32wbxx_hal.c ****   * @retval HAL status
 185:Drivers/STM32WBxx_HAL_Driver/Src/stm32wbxx_hal.c ****   */
 186:Drivers/STM32WBxx_HAL_Driver/Src/stm32wbxx_hal.c **** HAL_StatusTypeDef HAL_DeInit(void)
 187:Drivers/STM32WBxx_HAL_Driver/Src/stm32wbxx_hal.c **** {
 188:Drivers/STM32WBxx_HAL_Driver/Src/stm32wbxx_hal.c ****   /* Reset of all peripherals */
 189:Drivers/STM32WBxx_HAL_Driver/Src/stm32wbxx_hal.c ****   __HAL_RCC_APB1_FORCE_RESET();
 190:Drivers/STM32WBxx_HAL_Driver/Src/stm32wbxx_hal.c ****   __HAL_RCC_APB1_RELEASE_RESET();
 191:Drivers/STM32WBxx_HAL_Driver/Src/stm32wbxx_hal.c **** 
 192:Drivers/STM32WBxx_HAL_Driver/Src/stm32wbxx_hal.c ****   __HAL_RCC_APB2_FORCE_RESET();
 193:Drivers/STM32WBxx_HAL_Driver/Src/stm32wbxx_hal.c ****   __HAL_RCC_APB2_RELEASE_RESET();
 194:Drivers/STM32WBxx_HAL_Driver/Src/stm32wbxx_hal.c **** 
 195:Drivers/STM32WBxx_HAL_Driver/Src/stm32wbxx_hal.c ****   __HAL_RCC_APB3_FORCE_RESET();
 196:Drivers/STM32WBxx_HAL_Driver/Src/stm32wbxx_hal.c ****   __HAL_RCC_APB3_RELEASE_RESET();
 197:Drivers/STM32WBxx_HAL_Driver/Src/stm32wbxx_hal.c ****   
 198:Drivers/STM32WBxx_HAL_Driver/Src/stm32wbxx_hal.c ****   __HAL_RCC_AHB1_FORCE_RESET();
 199:Drivers/STM32WBxx_HAL_Driver/Src/stm32wbxx_hal.c ****   __HAL_RCC_AHB1_RELEASE_RESET();
 200:Drivers/STM32WBxx_HAL_Driver/Src/stm32wbxx_hal.c **** 
 201:Drivers/STM32WBxx_HAL_Driver/Src/stm32wbxx_hal.c ****   __HAL_RCC_AHB2_FORCE_RESET();
ARM GAS  /tmp/ccFx4qIG.s 			page 5


 202:Drivers/STM32WBxx_HAL_Driver/Src/stm32wbxx_hal.c ****   __HAL_RCC_AHB2_RELEASE_RESET();
 203:Drivers/STM32WBxx_HAL_Driver/Src/stm32wbxx_hal.c **** 
 204:Drivers/STM32WBxx_HAL_Driver/Src/stm32wbxx_hal.c ****   __HAL_RCC_AHB3_FORCE_RESET();
 205:Drivers/STM32WBxx_HAL_Driver/Src/stm32wbxx_hal.c ****   __HAL_RCC_AHB3_RELEASE_RESET();
 206:Drivers/STM32WBxx_HAL_Driver/Src/stm32wbxx_hal.c **** 
 207:Drivers/STM32WBxx_HAL_Driver/Src/stm32wbxx_hal.c ****   /* De-Init the low level hardware */
 208:Drivers/STM32WBxx_HAL_Driver/Src/stm32wbxx_hal.c ****   HAL_MspDeInit();
 209:Drivers/STM32WBxx_HAL_Driver/Src/stm32wbxx_hal.c **** 
 210:Drivers/STM32WBxx_HAL_Driver/Src/stm32wbxx_hal.c ****   /* Return function status */
 211:Drivers/STM32WBxx_HAL_Driver/Src/stm32wbxx_hal.c ****   return HAL_OK;
 212:Drivers/STM32WBxx_HAL_Driver/Src/stm32wbxx_hal.c **** }
 213:Drivers/STM32WBxx_HAL_Driver/Src/stm32wbxx_hal.c **** 
 214:Drivers/STM32WBxx_HAL_Driver/Src/stm32wbxx_hal.c **** /**
 215:Drivers/STM32WBxx_HAL_Driver/Src/stm32wbxx_hal.c ****   * @brief  Initialize the MSP.
 216:Drivers/STM32WBxx_HAL_Driver/Src/stm32wbxx_hal.c ****   * @retval None
 217:Drivers/STM32WBxx_HAL_Driver/Src/stm32wbxx_hal.c ****   */
 218:Drivers/STM32WBxx_HAL_Driver/Src/stm32wbxx_hal.c **** __weak void HAL_MspInit(void)
 219:Drivers/STM32WBxx_HAL_Driver/Src/stm32wbxx_hal.c **** {   
  29              		.loc 1 219 1 view -0
  30              		.cfi_startproc
  31              		@ args = 0, pretend = 0, frame = 0
  32              		@ frame_needed = 0, uses_anonymous_args = 0
  33              		@ link register save eliminated.
 220:Drivers/STM32WBxx_HAL_Driver/Src/stm32wbxx_hal.c ****   /* NOTE : This function should not be modified, when the callback is needed,
 221:Drivers/STM32WBxx_HAL_Driver/Src/stm32wbxx_hal.c ****             the HAL_MspInit could be implemented in the user file
 222:Drivers/STM32WBxx_HAL_Driver/Src/stm32wbxx_hal.c ****    */
 223:Drivers/STM32WBxx_HAL_Driver/Src/stm32wbxx_hal.c **** }
  34              		.loc 1 223 1 view .LVU1
  35 0000 7047     		bx	lr
  36              		.cfi_endproc
  37              	.LFE943:
  39              		.section	.text.HAL_MspDeInit,"ax",%progbits
  40              		.align	1
  41              		.weak	HAL_MspDeInit
  42              		.syntax unified
  43              		.thumb
  44              		.thumb_func
  45              		.fpu fpv4-sp-d16
  47              	HAL_MspDeInit:
  48              	.LFB944:
 224:Drivers/STM32WBxx_HAL_Driver/Src/stm32wbxx_hal.c **** 
 225:Drivers/STM32WBxx_HAL_Driver/Src/stm32wbxx_hal.c **** /**
 226:Drivers/STM32WBxx_HAL_Driver/Src/stm32wbxx_hal.c ****   * @brief  DeInitializes the MSP.
 227:Drivers/STM32WBxx_HAL_Driver/Src/stm32wbxx_hal.c ****   * @retval None
 228:Drivers/STM32WBxx_HAL_Driver/Src/stm32wbxx_hal.c ****   */
 229:Drivers/STM32WBxx_HAL_Driver/Src/stm32wbxx_hal.c **** __weak void HAL_MspDeInit(void)
 230:Drivers/STM32WBxx_HAL_Driver/Src/stm32wbxx_hal.c **** {     
  49              		.loc 1 230 1 view -0
  50              		.cfi_startproc
  51              		@ args = 0, pretend = 0, frame = 0
  52              		@ frame_needed = 0, uses_anonymous_args = 0
  53              		@ link register save eliminated.
 231:Drivers/STM32WBxx_HAL_Driver/Src/stm32wbxx_hal.c ****   /* NOTE : This function should not be modified, when the callback is needed,
 232:Drivers/STM32WBxx_HAL_Driver/Src/stm32wbxx_hal.c ****             the HAL_MspDeInit could be implemented in the user file
 233:Drivers/STM32WBxx_HAL_Driver/Src/stm32wbxx_hal.c ****    */
 234:Drivers/STM32WBxx_HAL_Driver/Src/stm32wbxx_hal.c **** }
  54              		.loc 1 234 1 view .LVU3
ARM GAS  /tmp/ccFx4qIG.s 			page 6


  55 0000 7047     		bx	lr
  56              		.cfi_endproc
  57              	.LFE944:
  59              		.section	.text.HAL_DeInit,"ax",%progbits
  60              		.align	1
  61              		.global	HAL_DeInit
  62              		.syntax unified
  63              		.thumb
  64              		.thumb_func
  65              		.fpu fpv4-sp-d16
  67              	HAL_DeInit:
  68              	.LFB942:
 187:Drivers/STM32WBxx_HAL_Driver/Src/stm32wbxx_hal.c ****   /* Reset of all peripherals */
  69              		.loc 1 187 1 view -0
  70              		.cfi_startproc
  71              		@ args = 0, pretend = 0, frame = 0
  72              		@ frame_needed = 0, uses_anonymous_args = 0
  73 0000 10B5     		push	{r4, lr}
  74              	.LCFI0:
  75              		.cfi_def_cfa_offset 8
  76              		.cfi_offset 4, -8
  77              		.cfi_offset 14, -4
 189:Drivers/STM32WBxx_HAL_Driver/Src/stm32wbxx_hal.c ****   __HAL_RCC_APB1_RELEASE_RESET();
  78              		.loc 1 189 3 view .LVU5
 189:Drivers/STM32WBxx_HAL_Driver/Src/stm32wbxx_hal.c ****   __HAL_RCC_APB1_RELEASE_RESET();
  79              		.loc 1 189 3 view .LVU6
  80              	.LVL0:
  81              	.LBB76:
  82              	.LBI76:
  83              		.file 2 "Drivers/STM32WBxx_HAL_Driver/Inc/stm32wbxx_ll_bus.h"
   1:Drivers/STM32WBxx_HAL_Driver/Inc/stm32wbxx_ll_bus.h **** /**
   2:Drivers/STM32WBxx_HAL_Driver/Inc/stm32wbxx_ll_bus.h ****   ******************************************************************************
   3:Drivers/STM32WBxx_HAL_Driver/Inc/stm32wbxx_ll_bus.h ****   * @file    stm32wbxx_ll_bus.h
   4:Drivers/STM32WBxx_HAL_Driver/Inc/stm32wbxx_ll_bus.h ****   * @author  MCD Application Team
   5:Drivers/STM32WBxx_HAL_Driver/Inc/stm32wbxx_ll_bus.h ****   * @brief   Header file of BUS LL module.
   6:Drivers/STM32WBxx_HAL_Driver/Inc/stm32wbxx_ll_bus.h **** 
   7:Drivers/STM32WBxx_HAL_Driver/Inc/stm32wbxx_ll_bus.h ****   @verbatim
   8:Drivers/STM32WBxx_HAL_Driver/Inc/stm32wbxx_ll_bus.h ****                       ##### RCC Limitations #####
   9:Drivers/STM32WBxx_HAL_Driver/Inc/stm32wbxx_ll_bus.h ****   ==============================================================================
  10:Drivers/STM32WBxx_HAL_Driver/Inc/stm32wbxx_ll_bus.h ****     [..]
  11:Drivers/STM32WBxx_HAL_Driver/Inc/stm32wbxx_ll_bus.h ****       A delay between an RCC peripheral clock enable and the effective peripheral
  12:Drivers/STM32WBxx_HAL_Driver/Inc/stm32wbxx_ll_bus.h ****       enabling should be taken into account in order to manage the peripheral read/write
  13:Drivers/STM32WBxx_HAL_Driver/Inc/stm32wbxx_ll_bus.h ****       from/to registers.
  14:Drivers/STM32WBxx_HAL_Driver/Inc/stm32wbxx_ll_bus.h ****       (+) This delay depends on the peripheral mapping.
  15:Drivers/STM32WBxx_HAL_Driver/Inc/stm32wbxx_ll_bus.h ****         (++) AHB & APB peripherals, 1 dummy read is necessary
  16:Drivers/STM32WBxx_HAL_Driver/Inc/stm32wbxx_ll_bus.h **** 
  17:Drivers/STM32WBxx_HAL_Driver/Inc/stm32wbxx_ll_bus.h ****     [..]
  18:Drivers/STM32WBxx_HAL_Driver/Inc/stm32wbxx_ll_bus.h ****       Workarounds:
  19:Drivers/STM32WBxx_HAL_Driver/Inc/stm32wbxx_ll_bus.h ****       (#) For AHB & APB peripherals, a dummy read to the peripheral register has been
  20:Drivers/STM32WBxx_HAL_Driver/Inc/stm32wbxx_ll_bus.h ****           inserted in each LL_{BUS}_GRP{x}_EnableClock() function.
  21:Drivers/STM32WBxx_HAL_Driver/Inc/stm32wbxx_ll_bus.h **** 
  22:Drivers/STM32WBxx_HAL_Driver/Inc/stm32wbxx_ll_bus.h ****   @endverbatim
  23:Drivers/STM32WBxx_HAL_Driver/Inc/stm32wbxx_ll_bus.h ****   ******************************************************************************
  24:Drivers/STM32WBxx_HAL_Driver/Inc/stm32wbxx_ll_bus.h ****   * @attention
  25:Drivers/STM32WBxx_HAL_Driver/Inc/stm32wbxx_ll_bus.h ****   *
  26:Drivers/STM32WBxx_HAL_Driver/Inc/stm32wbxx_ll_bus.h ****   * <h2><center>&copy; Copyright (c) 2019 STMicroelectronics.
  27:Drivers/STM32WBxx_HAL_Driver/Inc/stm32wbxx_ll_bus.h ****   * All rights reserved.</center></h2>
ARM GAS  /tmp/ccFx4qIG.s 			page 7


  28:Drivers/STM32WBxx_HAL_Driver/Inc/stm32wbxx_ll_bus.h ****   *
  29:Drivers/STM32WBxx_HAL_Driver/Inc/stm32wbxx_ll_bus.h ****   * This software component is licensed by ST under BSD 3-Clause license,
  30:Drivers/STM32WBxx_HAL_Driver/Inc/stm32wbxx_ll_bus.h ****   * the "License"; You may not use this file except in compliance with the
  31:Drivers/STM32WBxx_HAL_Driver/Inc/stm32wbxx_ll_bus.h ****   * License. You may obtain a copy of the License at:
  32:Drivers/STM32WBxx_HAL_Driver/Inc/stm32wbxx_ll_bus.h ****   *                        opensource.org/licenses/BSD-3-Clause
  33:Drivers/STM32WBxx_HAL_Driver/Inc/stm32wbxx_ll_bus.h ****   *
  34:Drivers/STM32WBxx_HAL_Driver/Inc/stm32wbxx_ll_bus.h ****   ******************************************************************************
  35:Drivers/STM32WBxx_HAL_Driver/Inc/stm32wbxx_ll_bus.h ****   */
  36:Drivers/STM32WBxx_HAL_Driver/Inc/stm32wbxx_ll_bus.h **** 
  37:Drivers/STM32WBxx_HAL_Driver/Inc/stm32wbxx_ll_bus.h **** /* Define to prevent recursive inclusion -------------------------------------*/
  38:Drivers/STM32WBxx_HAL_Driver/Inc/stm32wbxx_ll_bus.h **** #ifndef STM32WBxx_LL_BUS_H
  39:Drivers/STM32WBxx_HAL_Driver/Inc/stm32wbxx_ll_bus.h **** #define STM32WBxx_LL_BUS_H
  40:Drivers/STM32WBxx_HAL_Driver/Inc/stm32wbxx_ll_bus.h **** 
  41:Drivers/STM32WBxx_HAL_Driver/Inc/stm32wbxx_ll_bus.h **** #ifdef __cplusplus
  42:Drivers/STM32WBxx_HAL_Driver/Inc/stm32wbxx_ll_bus.h **** extern "C" {
  43:Drivers/STM32WBxx_HAL_Driver/Inc/stm32wbxx_ll_bus.h **** #endif
  44:Drivers/STM32WBxx_HAL_Driver/Inc/stm32wbxx_ll_bus.h **** 
  45:Drivers/STM32WBxx_HAL_Driver/Inc/stm32wbxx_ll_bus.h **** /* Includes ------------------------------------------------------------------*/
  46:Drivers/STM32WBxx_HAL_Driver/Inc/stm32wbxx_ll_bus.h **** #include "stm32wbxx.h"
  47:Drivers/STM32WBxx_HAL_Driver/Inc/stm32wbxx_ll_bus.h **** 
  48:Drivers/STM32WBxx_HAL_Driver/Inc/stm32wbxx_ll_bus.h **** /** @addtogroup STM32WBxx_LL_Driver
  49:Drivers/STM32WBxx_HAL_Driver/Inc/stm32wbxx_ll_bus.h ****   * @{
  50:Drivers/STM32WBxx_HAL_Driver/Inc/stm32wbxx_ll_bus.h ****   */
  51:Drivers/STM32WBxx_HAL_Driver/Inc/stm32wbxx_ll_bus.h **** 
  52:Drivers/STM32WBxx_HAL_Driver/Inc/stm32wbxx_ll_bus.h **** #if defined(RCC)
  53:Drivers/STM32WBxx_HAL_Driver/Inc/stm32wbxx_ll_bus.h **** 
  54:Drivers/STM32WBxx_HAL_Driver/Inc/stm32wbxx_ll_bus.h **** /** @defgroup BUS_LL BUS
  55:Drivers/STM32WBxx_HAL_Driver/Inc/stm32wbxx_ll_bus.h ****   * @{
  56:Drivers/STM32WBxx_HAL_Driver/Inc/stm32wbxx_ll_bus.h ****   */
  57:Drivers/STM32WBxx_HAL_Driver/Inc/stm32wbxx_ll_bus.h **** 
  58:Drivers/STM32WBxx_HAL_Driver/Inc/stm32wbxx_ll_bus.h **** /* Private types -------------------------------------------------------------*/
  59:Drivers/STM32WBxx_HAL_Driver/Inc/stm32wbxx_ll_bus.h **** /* Private variables ---------------------------------------------------------*/
  60:Drivers/STM32WBxx_HAL_Driver/Inc/stm32wbxx_ll_bus.h **** 
  61:Drivers/STM32WBxx_HAL_Driver/Inc/stm32wbxx_ll_bus.h **** /* Private constants ---------------------------------------------------------*/
  62:Drivers/STM32WBxx_HAL_Driver/Inc/stm32wbxx_ll_bus.h **** 
  63:Drivers/STM32WBxx_HAL_Driver/Inc/stm32wbxx_ll_bus.h **** /* Private macros ------------------------------------------------------------*/
  64:Drivers/STM32WBxx_HAL_Driver/Inc/stm32wbxx_ll_bus.h **** 
  65:Drivers/STM32WBxx_HAL_Driver/Inc/stm32wbxx_ll_bus.h **** /* Exported types ------------------------------------------------------------*/
  66:Drivers/STM32WBxx_HAL_Driver/Inc/stm32wbxx_ll_bus.h **** 
  67:Drivers/STM32WBxx_HAL_Driver/Inc/stm32wbxx_ll_bus.h **** /* Exported constants --------------------------------------------------------*/
  68:Drivers/STM32WBxx_HAL_Driver/Inc/stm32wbxx_ll_bus.h **** /** @defgroup BUS_LL_Exported_Constants BUS Exported Constants
  69:Drivers/STM32WBxx_HAL_Driver/Inc/stm32wbxx_ll_bus.h ****   * @{
  70:Drivers/STM32WBxx_HAL_Driver/Inc/stm32wbxx_ll_bus.h ****   */
  71:Drivers/STM32WBxx_HAL_Driver/Inc/stm32wbxx_ll_bus.h **** 
  72:Drivers/STM32WBxx_HAL_Driver/Inc/stm32wbxx_ll_bus.h **** /** @defgroup BUS_LL_EC_AHB1_GRP1_PERIPH  AHB1 GRP1 PERIPH
  73:Drivers/STM32WBxx_HAL_Driver/Inc/stm32wbxx_ll_bus.h ****   * @{
  74:Drivers/STM32WBxx_HAL_Driver/Inc/stm32wbxx_ll_bus.h ****   */
  75:Drivers/STM32WBxx_HAL_Driver/Inc/stm32wbxx_ll_bus.h **** #define LL_AHB1_GRP1_PERIPH_ALL            (0xFFFFFFFFU)
  76:Drivers/STM32WBxx_HAL_Driver/Inc/stm32wbxx_ll_bus.h **** 
  77:Drivers/STM32WBxx_HAL_Driver/Inc/stm32wbxx_ll_bus.h **** #define LL_AHB1_GRP1_PERIPH_DMA1           RCC_AHB1ENR_DMA1EN
  78:Drivers/STM32WBxx_HAL_Driver/Inc/stm32wbxx_ll_bus.h **** #if defined(DMA2)
  79:Drivers/STM32WBxx_HAL_Driver/Inc/stm32wbxx_ll_bus.h **** #define LL_AHB1_GRP1_PERIPH_DMA2           RCC_AHB1ENR_DMA2EN
  80:Drivers/STM32WBxx_HAL_Driver/Inc/stm32wbxx_ll_bus.h **** #endif
  81:Drivers/STM32WBxx_HAL_Driver/Inc/stm32wbxx_ll_bus.h **** #define LL_AHB1_GRP1_PERIPH_DMAMUX1        RCC_AHB1ENR_DMAMUX1EN
  82:Drivers/STM32WBxx_HAL_Driver/Inc/stm32wbxx_ll_bus.h **** #define LL_AHB1_GRP1_PERIPH_SRAM1          RCC_AHB1SMENR_SRAM1SMEN
  83:Drivers/STM32WBxx_HAL_Driver/Inc/stm32wbxx_ll_bus.h **** #define LL_AHB1_GRP1_PERIPH_CRC            RCC_AHB1ENR_CRCEN
  84:Drivers/STM32WBxx_HAL_Driver/Inc/stm32wbxx_ll_bus.h **** #define LL_AHB1_GRP1_PERIPH_TSC            RCC_AHB1ENR_TSCEN
ARM GAS  /tmp/ccFx4qIG.s 			page 8


  85:Drivers/STM32WBxx_HAL_Driver/Inc/stm32wbxx_ll_bus.h **** /**
  86:Drivers/STM32WBxx_HAL_Driver/Inc/stm32wbxx_ll_bus.h ****   * @}
  87:Drivers/STM32WBxx_HAL_Driver/Inc/stm32wbxx_ll_bus.h ****   */
  88:Drivers/STM32WBxx_HAL_Driver/Inc/stm32wbxx_ll_bus.h **** 
  89:Drivers/STM32WBxx_HAL_Driver/Inc/stm32wbxx_ll_bus.h **** /** @defgroup BUS_LL_EC_AHB2_GRP1_PERIPH  AHB2 GRP1 PERIPH
  90:Drivers/STM32WBxx_HAL_Driver/Inc/stm32wbxx_ll_bus.h ****   * @{
  91:Drivers/STM32WBxx_HAL_Driver/Inc/stm32wbxx_ll_bus.h ****   */
  92:Drivers/STM32WBxx_HAL_Driver/Inc/stm32wbxx_ll_bus.h **** #define LL_AHB2_GRP1_PERIPH_ALL            (0xFFFFFFFFU)
  93:Drivers/STM32WBxx_HAL_Driver/Inc/stm32wbxx_ll_bus.h **** 
  94:Drivers/STM32WBxx_HAL_Driver/Inc/stm32wbxx_ll_bus.h **** #define LL_AHB2_GRP1_PERIPH_GPIOA          RCC_AHB2ENR_GPIOAEN
  95:Drivers/STM32WBxx_HAL_Driver/Inc/stm32wbxx_ll_bus.h **** #define LL_AHB2_GRP1_PERIPH_GPIOB          RCC_AHB2ENR_GPIOBEN
  96:Drivers/STM32WBxx_HAL_Driver/Inc/stm32wbxx_ll_bus.h **** #define LL_AHB2_GRP1_PERIPH_GPIOC          RCC_AHB2ENR_GPIOCEN
  97:Drivers/STM32WBxx_HAL_Driver/Inc/stm32wbxx_ll_bus.h **** #if defined(GPIOD)
  98:Drivers/STM32WBxx_HAL_Driver/Inc/stm32wbxx_ll_bus.h **** #define LL_AHB2_GRP1_PERIPH_GPIOD          RCC_AHB2ENR_GPIODEN
  99:Drivers/STM32WBxx_HAL_Driver/Inc/stm32wbxx_ll_bus.h **** #endif
 100:Drivers/STM32WBxx_HAL_Driver/Inc/stm32wbxx_ll_bus.h **** #define LL_AHB2_GRP1_PERIPH_GPIOE          RCC_AHB2ENR_GPIOEEN
 101:Drivers/STM32WBxx_HAL_Driver/Inc/stm32wbxx_ll_bus.h **** #define LL_AHB2_GRP1_PERIPH_GPIOH          RCC_AHB2ENR_GPIOHEN
 102:Drivers/STM32WBxx_HAL_Driver/Inc/stm32wbxx_ll_bus.h **** #define LL_AHB2_GRP1_PERIPH_ADC            RCC_AHB2ENR_ADCEN
 103:Drivers/STM32WBxx_HAL_Driver/Inc/stm32wbxx_ll_bus.h **** #if defined(AES1)
 104:Drivers/STM32WBxx_HAL_Driver/Inc/stm32wbxx_ll_bus.h **** #define LL_AHB2_GRP1_PERIPH_AES1           RCC_AHB2ENR_AES1EN
 105:Drivers/STM32WBxx_HAL_Driver/Inc/stm32wbxx_ll_bus.h **** #endif
 106:Drivers/STM32WBxx_HAL_Driver/Inc/stm32wbxx_ll_bus.h **** /**
 107:Drivers/STM32WBxx_HAL_Driver/Inc/stm32wbxx_ll_bus.h ****   * @}
 108:Drivers/STM32WBxx_HAL_Driver/Inc/stm32wbxx_ll_bus.h ****   */
 109:Drivers/STM32WBxx_HAL_Driver/Inc/stm32wbxx_ll_bus.h **** 
 110:Drivers/STM32WBxx_HAL_Driver/Inc/stm32wbxx_ll_bus.h **** /** @defgroup BUS_LL_EC_AHB3_GRP1_PERIPH  AHB3 GRP1 PERIPH
 111:Drivers/STM32WBxx_HAL_Driver/Inc/stm32wbxx_ll_bus.h ****   * @{
 112:Drivers/STM32WBxx_HAL_Driver/Inc/stm32wbxx_ll_bus.h ****   */
 113:Drivers/STM32WBxx_HAL_Driver/Inc/stm32wbxx_ll_bus.h **** #define LL_AHB3_GRP1_PERIPH_ALL            (0xFFFFFFFFU)
 114:Drivers/STM32WBxx_HAL_Driver/Inc/stm32wbxx_ll_bus.h **** #if defined(QUADSPI)
 115:Drivers/STM32WBxx_HAL_Driver/Inc/stm32wbxx_ll_bus.h **** #define LL_AHB3_GRP1_PERIPH_QUADSPI        RCC_AHB3ENR_QUADSPIEN
 116:Drivers/STM32WBxx_HAL_Driver/Inc/stm32wbxx_ll_bus.h **** #endif
 117:Drivers/STM32WBxx_HAL_Driver/Inc/stm32wbxx_ll_bus.h **** #define LL_AHB3_GRP1_PERIPH_PKA            RCC_AHB3ENR_PKAEN
 118:Drivers/STM32WBxx_HAL_Driver/Inc/stm32wbxx_ll_bus.h **** #define LL_AHB3_GRP1_PERIPH_AES2           RCC_AHB3ENR_AES2EN
 119:Drivers/STM32WBxx_HAL_Driver/Inc/stm32wbxx_ll_bus.h **** #define LL_AHB3_GRP1_PERIPH_RNG            RCC_AHB3ENR_RNGEN
 120:Drivers/STM32WBxx_HAL_Driver/Inc/stm32wbxx_ll_bus.h **** #define LL_AHB3_GRP1_PERIPH_HSEM           RCC_AHB3ENR_HSEMEN
 121:Drivers/STM32WBxx_HAL_Driver/Inc/stm32wbxx_ll_bus.h **** #define LL_AHB3_GRP1_PERIPH_IPCC           RCC_AHB3ENR_IPCCEN
 122:Drivers/STM32WBxx_HAL_Driver/Inc/stm32wbxx_ll_bus.h **** #define LL_AHB3_GRP1_PERIPH_SRAM2          RCC_AHB3SMENR_SRAM2SMEN
 123:Drivers/STM32WBxx_HAL_Driver/Inc/stm32wbxx_ll_bus.h **** #define LL_AHB3_GRP1_PERIPH_FLASH          RCC_AHB3ENR_FLASHEN
 124:Drivers/STM32WBxx_HAL_Driver/Inc/stm32wbxx_ll_bus.h **** /**
 125:Drivers/STM32WBxx_HAL_Driver/Inc/stm32wbxx_ll_bus.h ****   * @}
 126:Drivers/STM32WBxx_HAL_Driver/Inc/stm32wbxx_ll_bus.h ****   */
 127:Drivers/STM32WBxx_HAL_Driver/Inc/stm32wbxx_ll_bus.h **** 
 128:Drivers/STM32WBxx_HAL_Driver/Inc/stm32wbxx_ll_bus.h **** /** @defgroup BUS_LL_EC_APB1_GRP1_PERIPH  APB1 GRP1 PERIPH
 129:Drivers/STM32WBxx_HAL_Driver/Inc/stm32wbxx_ll_bus.h ****   * @{
 130:Drivers/STM32WBxx_HAL_Driver/Inc/stm32wbxx_ll_bus.h ****   */
 131:Drivers/STM32WBxx_HAL_Driver/Inc/stm32wbxx_ll_bus.h **** #define LL_APB1_GRP1_PERIPH_ALL            (0xFFFFFFFFU)
 132:Drivers/STM32WBxx_HAL_Driver/Inc/stm32wbxx_ll_bus.h **** #define LL_APB1_GRP1_PERIPH_TIM2           RCC_APB1ENR1_TIM2EN
 133:Drivers/STM32WBxx_HAL_Driver/Inc/stm32wbxx_ll_bus.h **** #if defined(LCD)
 134:Drivers/STM32WBxx_HAL_Driver/Inc/stm32wbxx_ll_bus.h **** #define LL_APB1_GRP1_PERIPH_LCD            RCC_APB1ENR1_LCDEN
 135:Drivers/STM32WBxx_HAL_Driver/Inc/stm32wbxx_ll_bus.h **** #endif
 136:Drivers/STM32WBxx_HAL_Driver/Inc/stm32wbxx_ll_bus.h **** #define LL_APB1_GRP1_PERIPH_RTCAPB         RCC_APB1ENR1_RTCAPBEN
 137:Drivers/STM32WBxx_HAL_Driver/Inc/stm32wbxx_ll_bus.h **** #define LL_APB1_GRP1_PERIPH_WWDG           RCC_APB1ENR1_WWDGEN
 138:Drivers/STM32WBxx_HAL_Driver/Inc/stm32wbxx_ll_bus.h **** #if defined(SPI2)
 139:Drivers/STM32WBxx_HAL_Driver/Inc/stm32wbxx_ll_bus.h **** #define LL_APB1_GRP1_PERIPH_SPI2           RCC_APB1ENR1_SPI2EN
 140:Drivers/STM32WBxx_HAL_Driver/Inc/stm32wbxx_ll_bus.h **** #endif
 141:Drivers/STM32WBxx_HAL_Driver/Inc/stm32wbxx_ll_bus.h **** #define LL_APB1_GRP1_PERIPH_I2C1           RCC_APB1ENR1_I2C1EN
ARM GAS  /tmp/ccFx4qIG.s 			page 9


 142:Drivers/STM32WBxx_HAL_Driver/Inc/stm32wbxx_ll_bus.h **** #if defined(I2C3)
 143:Drivers/STM32WBxx_HAL_Driver/Inc/stm32wbxx_ll_bus.h **** #define LL_APB1_GRP1_PERIPH_I2C3           RCC_APB1ENR1_I2C3EN
 144:Drivers/STM32WBxx_HAL_Driver/Inc/stm32wbxx_ll_bus.h **** #endif
 145:Drivers/STM32WBxx_HAL_Driver/Inc/stm32wbxx_ll_bus.h **** #if defined(CRS)
 146:Drivers/STM32WBxx_HAL_Driver/Inc/stm32wbxx_ll_bus.h **** #define LL_APB1_GRP1_PERIPH_CRS            RCC_APB1ENR1_CRSEN
 147:Drivers/STM32WBxx_HAL_Driver/Inc/stm32wbxx_ll_bus.h **** #endif
 148:Drivers/STM32WBxx_HAL_Driver/Inc/stm32wbxx_ll_bus.h **** #if defined(USB)
 149:Drivers/STM32WBxx_HAL_Driver/Inc/stm32wbxx_ll_bus.h **** #define LL_APB1_GRP1_PERIPH_USB            RCC_APB1ENR1_USBEN
 150:Drivers/STM32WBxx_HAL_Driver/Inc/stm32wbxx_ll_bus.h **** #endif
 151:Drivers/STM32WBxx_HAL_Driver/Inc/stm32wbxx_ll_bus.h **** #define LL_APB1_GRP1_PERIPH_LPTIM1         RCC_APB1ENR1_LPTIM1EN
 152:Drivers/STM32WBxx_HAL_Driver/Inc/stm32wbxx_ll_bus.h **** /**
 153:Drivers/STM32WBxx_HAL_Driver/Inc/stm32wbxx_ll_bus.h ****   * @}
 154:Drivers/STM32WBxx_HAL_Driver/Inc/stm32wbxx_ll_bus.h ****   */
 155:Drivers/STM32WBxx_HAL_Driver/Inc/stm32wbxx_ll_bus.h **** 
 156:Drivers/STM32WBxx_HAL_Driver/Inc/stm32wbxx_ll_bus.h **** 
 157:Drivers/STM32WBxx_HAL_Driver/Inc/stm32wbxx_ll_bus.h **** /** @defgroup BUS_LL_EC_APB1_GRP2_PERIPH  APB1 GRP2 PERIPH
 158:Drivers/STM32WBxx_HAL_Driver/Inc/stm32wbxx_ll_bus.h ****   * @{
 159:Drivers/STM32WBxx_HAL_Driver/Inc/stm32wbxx_ll_bus.h ****   */
 160:Drivers/STM32WBxx_HAL_Driver/Inc/stm32wbxx_ll_bus.h **** #define LL_APB1_GRP2_PERIPH_ALL            (0xFFFFFFFFU)
 161:Drivers/STM32WBxx_HAL_Driver/Inc/stm32wbxx_ll_bus.h **** 
 162:Drivers/STM32WBxx_HAL_Driver/Inc/stm32wbxx_ll_bus.h **** #if defined(LPUART1)
 163:Drivers/STM32WBxx_HAL_Driver/Inc/stm32wbxx_ll_bus.h **** #define LL_APB1_GRP2_PERIPH_LPUART1        RCC_APB1ENR2_LPUART1EN
 164:Drivers/STM32WBxx_HAL_Driver/Inc/stm32wbxx_ll_bus.h **** #endif
 165:Drivers/STM32WBxx_HAL_Driver/Inc/stm32wbxx_ll_bus.h **** #define LL_APB1_GRP2_PERIPH_LPTIM2         RCC_APB1ENR2_LPTIM2EN
 166:Drivers/STM32WBxx_HAL_Driver/Inc/stm32wbxx_ll_bus.h **** /**
 167:Drivers/STM32WBxx_HAL_Driver/Inc/stm32wbxx_ll_bus.h ****   * @}
 168:Drivers/STM32WBxx_HAL_Driver/Inc/stm32wbxx_ll_bus.h ****   */
 169:Drivers/STM32WBxx_HAL_Driver/Inc/stm32wbxx_ll_bus.h **** 
 170:Drivers/STM32WBxx_HAL_Driver/Inc/stm32wbxx_ll_bus.h **** /** @defgroup BUS_LL_EC_APB2_GRP1_PERIPH  APB2 GRP1 PERIPH
 171:Drivers/STM32WBxx_HAL_Driver/Inc/stm32wbxx_ll_bus.h ****   * @{
 172:Drivers/STM32WBxx_HAL_Driver/Inc/stm32wbxx_ll_bus.h ****   */
 173:Drivers/STM32WBxx_HAL_Driver/Inc/stm32wbxx_ll_bus.h **** #define LL_APB2_GRP1_PERIPH_ALL            (0xFFFFFFFFU)
 174:Drivers/STM32WBxx_HAL_Driver/Inc/stm32wbxx_ll_bus.h **** 
 175:Drivers/STM32WBxx_HAL_Driver/Inc/stm32wbxx_ll_bus.h **** #define LL_APB2_GRP1_PERIPH_TIM1           RCC_APB2ENR_TIM1EN
 176:Drivers/STM32WBxx_HAL_Driver/Inc/stm32wbxx_ll_bus.h **** #define LL_APB2_GRP1_PERIPH_SPI1           RCC_APB2ENR_SPI1EN
 177:Drivers/STM32WBxx_HAL_Driver/Inc/stm32wbxx_ll_bus.h **** #define LL_APB2_GRP1_PERIPH_USART1         RCC_APB2ENR_USART1EN
 178:Drivers/STM32WBxx_HAL_Driver/Inc/stm32wbxx_ll_bus.h **** #define LL_APB2_GRP1_PERIPH_TIM16          RCC_APB2ENR_TIM16EN
 179:Drivers/STM32WBxx_HAL_Driver/Inc/stm32wbxx_ll_bus.h **** #define LL_APB2_GRP1_PERIPH_TIM17          RCC_APB2ENR_TIM17EN
 180:Drivers/STM32WBxx_HAL_Driver/Inc/stm32wbxx_ll_bus.h **** #if defined(SAI1)
 181:Drivers/STM32WBxx_HAL_Driver/Inc/stm32wbxx_ll_bus.h **** #define LL_APB2_GRP1_PERIPH_SAI1           RCC_APB2ENR_SAI1EN
 182:Drivers/STM32WBxx_HAL_Driver/Inc/stm32wbxx_ll_bus.h **** #endif
 183:Drivers/STM32WBxx_HAL_Driver/Inc/stm32wbxx_ll_bus.h **** /**
 184:Drivers/STM32WBxx_HAL_Driver/Inc/stm32wbxx_ll_bus.h ****   * @}
 185:Drivers/STM32WBxx_HAL_Driver/Inc/stm32wbxx_ll_bus.h ****   */
 186:Drivers/STM32WBxx_HAL_Driver/Inc/stm32wbxx_ll_bus.h **** 
 187:Drivers/STM32WBxx_HAL_Driver/Inc/stm32wbxx_ll_bus.h **** /** @defgroup BUS_LL_EC_APB3_GRP1_PERIPH  APB3 GRP1 PERIPH
 188:Drivers/STM32WBxx_HAL_Driver/Inc/stm32wbxx_ll_bus.h ****   * @{
 189:Drivers/STM32WBxx_HAL_Driver/Inc/stm32wbxx_ll_bus.h ****   */
 190:Drivers/STM32WBxx_HAL_Driver/Inc/stm32wbxx_ll_bus.h **** #define LL_APB3_GRP1_PERIPH_ALL            (0xFFFFFFFFU)
 191:Drivers/STM32WBxx_HAL_Driver/Inc/stm32wbxx_ll_bus.h **** #define LL_APB3_GRP1_PERIPH_RF             RCC_APB3RSTR_RFRST
 192:Drivers/STM32WBxx_HAL_Driver/Inc/stm32wbxx_ll_bus.h **** /**
 193:Drivers/STM32WBxx_HAL_Driver/Inc/stm32wbxx_ll_bus.h ****   * @}
 194:Drivers/STM32WBxx_HAL_Driver/Inc/stm32wbxx_ll_bus.h ****   */
 195:Drivers/STM32WBxx_HAL_Driver/Inc/stm32wbxx_ll_bus.h **** 
 196:Drivers/STM32WBxx_HAL_Driver/Inc/stm32wbxx_ll_bus.h **** 
 197:Drivers/STM32WBxx_HAL_Driver/Inc/stm32wbxx_ll_bus.h **** /** @defgroup BUS_LL_EC_C2_AHB1_GRP1_PERIPH  C2 AHB1 GRP1 PERIPH
 198:Drivers/STM32WBxx_HAL_Driver/Inc/stm32wbxx_ll_bus.h ****   * @{
ARM GAS  /tmp/ccFx4qIG.s 			page 10


 199:Drivers/STM32WBxx_HAL_Driver/Inc/stm32wbxx_ll_bus.h ****   */
 200:Drivers/STM32WBxx_HAL_Driver/Inc/stm32wbxx_ll_bus.h **** #define LL_C2_AHB1_GRP1_PERIPH_DMA1         RCC_C2AHB1ENR_DMA1EN
 201:Drivers/STM32WBxx_HAL_Driver/Inc/stm32wbxx_ll_bus.h **** #if defined(DMA2)
 202:Drivers/STM32WBxx_HAL_Driver/Inc/stm32wbxx_ll_bus.h **** #define LL_C2_AHB1_GRP1_PERIPH_DMA2         RCC_C2AHB1ENR_DMA2EN
 203:Drivers/STM32WBxx_HAL_Driver/Inc/stm32wbxx_ll_bus.h **** #endif
 204:Drivers/STM32WBxx_HAL_Driver/Inc/stm32wbxx_ll_bus.h **** #define LL_C2_AHB1_GRP1_PERIPH_DMAMUX1      RCC_C2AHB1ENR_DMAMUX1EN
 205:Drivers/STM32WBxx_HAL_Driver/Inc/stm32wbxx_ll_bus.h **** #define LL_C2_AHB1_GRP1_PERIPH_SRAM1        RCC_C2AHB1ENR_SRAM1EN
 206:Drivers/STM32WBxx_HAL_Driver/Inc/stm32wbxx_ll_bus.h **** #define LL_C2_AHB1_GRP1_PERIPH_CRC          RCC_C2AHB1ENR_CRCEN
 207:Drivers/STM32WBxx_HAL_Driver/Inc/stm32wbxx_ll_bus.h **** #define LL_C2_AHB1_GRP1_PERIPH_TSC          RCC_C2AHB1ENR_TSCEN
 208:Drivers/STM32WBxx_HAL_Driver/Inc/stm32wbxx_ll_bus.h **** /**
 209:Drivers/STM32WBxx_HAL_Driver/Inc/stm32wbxx_ll_bus.h ****   * @}
 210:Drivers/STM32WBxx_HAL_Driver/Inc/stm32wbxx_ll_bus.h ****   */
 211:Drivers/STM32WBxx_HAL_Driver/Inc/stm32wbxx_ll_bus.h **** 
 212:Drivers/STM32WBxx_HAL_Driver/Inc/stm32wbxx_ll_bus.h **** 
 213:Drivers/STM32WBxx_HAL_Driver/Inc/stm32wbxx_ll_bus.h **** /** @defgroup BUS_LL_EC_C2_AHB2_GRP1_PERIPH  C2 AHB2 GRP1 PERIPH
 214:Drivers/STM32WBxx_HAL_Driver/Inc/stm32wbxx_ll_bus.h ****   * @{
 215:Drivers/STM32WBxx_HAL_Driver/Inc/stm32wbxx_ll_bus.h ****   */
 216:Drivers/STM32WBxx_HAL_Driver/Inc/stm32wbxx_ll_bus.h **** #define LL_C2_AHB2_GRP1_PERIPH_GPIOA        RCC_C2AHB2ENR_GPIOAEN
 217:Drivers/STM32WBxx_HAL_Driver/Inc/stm32wbxx_ll_bus.h **** #define LL_C2_AHB2_GRP1_PERIPH_GPIOB        RCC_C2AHB2ENR_GPIOBEN
 218:Drivers/STM32WBxx_HAL_Driver/Inc/stm32wbxx_ll_bus.h **** #define LL_C2_AHB2_GRP1_PERIPH_GPIOC        RCC_C2AHB2ENR_GPIOCEN
 219:Drivers/STM32WBxx_HAL_Driver/Inc/stm32wbxx_ll_bus.h **** #if defined(GPIOD)
 220:Drivers/STM32WBxx_HAL_Driver/Inc/stm32wbxx_ll_bus.h **** #define LL_C2_AHB2_GRP1_PERIPH_GPIOD        RCC_C2AHB2ENR_GPIODEN
 221:Drivers/STM32WBxx_HAL_Driver/Inc/stm32wbxx_ll_bus.h **** #endif
 222:Drivers/STM32WBxx_HAL_Driver/Inc/stm32wbxx_ll_bus.h **** #define LL_C2_AHB2_GRP1_PERIPH_GPIOE        RCC_C2AHB2ENR_GPIOEEN
 223:Drivers/STM32WBxx_HAL_Driver/Inc/stm32wbxx_ll_bus.h **** #define LL_C2_AHB2_GRP1_PERIPH_GPIOH        RCC_C2AHB2ENR_GPIOHEN
 224:Drivers/STM32WBxx_HAL_Driver/Inc/stm32wbxx_ll_bus.h **** #define LL_C2_AHB2_GRP1_PERIPH_ADC          RCC_C2AHB2ENR_ADCEN
 225:Drivers/STM32WBxx_HAL_Driver/Inc/stm32wbxx_ll_bus.h **** #if defined(AES1)
 226:Drivers/STM32WBxx_HAL_Driver/Inc/stm32wbxx_ll_bus.h **** #define LL_C2_AHB2_GRP1_PERIPH_AES1         RCC_C2AHB2ENR_AES1EN
 227:Drivers/STM32WBxx_HAL_Driver/Inc/stm32wbxx_ll_bus.h **** #endif
 228:Drivers/STM32WBxx_HAL_Driver/Inc/stm32wbxx_ll_bus.h **** /**
 229:Drivers/STM32WBxx_HAL_Driver/Inc/stm32wbxx_ll_bus.h ****   * @}
 230:Drivers/STM32WBxx_HAL_Driver/Inc/stm32wbxx_ll_bus.h ****   */
 231:Drivers/STM32WBxx_HAL_Driver/Inc/stm32wbxx_ll_bus.h **** 
 232:Drivers/STM32WBxx_HAL_Driver/Inc/stm32wbxx_ll_bus.h **** 
 233:Drivers/STM32WBxx_HAL_Driver/Inc/stm32wbxx_ll_bus.h **** /** @defgroup BUS_LL_EC_C2_AHB3_GRP1_PERIPH  C2 AHB3 GRP1 PERIPH
 234:Drivers/STM32WBxx_HAL_Driver/Inc/stm32wbxx_ll_bus.h ****   * @{
 235:Drivers/STM32WBxx_HAL_Driver/Inc/stm32wbxx_ll_bus.h ****   */
 236:Drivers/STM32WBxx_HAL_Driver/Inc/stm32wbxx_ll_bus.h **** #define LL_C2_AHB3_GRP1_PERIPH_PKA          RCC_C2AHB3ENR_PKAEN
 237:Drivers/STM32WBxx_HAL_Driver/Inc/stm32wbxx_ll_bus.h **** #define LL_C2_AHB3_GRP1_PERIPH_AES2         RCC_C2AHB3ENR_AES2EN
 238:Drivers/STM32WBxx_HAL_Driver/Inc/stm32wbxx_ll_bus.h **** #define LL_C2_AHB3_GRP1_PERIPH_RNG          RCC_C2AHB3ENR_RNGEN
 239:Drivers/STM32WBxx_HAL_Driver/Inc/stm32wbxx_ll_bus.h **** #define LL_C2_AHB3_GRP1_PERIPH_HSEM         RCC_C2AHB3ENR_HSEMEN
 240:Drivers/STM32WBxx_HAL_Driver/Inc/stm32wbxx_ll_bus.h **** #define LL_C2_AHB3_GRP1_PERIPH_IPCC         RCC_C2AHB3ENR_IPCCEN
 241:Drivers/STM32WBxx_HAL_Driver/Inc/stm32wbxx_ll_bus.h **** #define LL_C2_AHB3_GRP1_PERIPH_FLASH        RCC_C2AHB3ENR_FLASHEN
 242:Drivers/STM32WBxx_HAL_Driver/Inc/stm32wbxx_ll_bus.h **** #define LL_C2_AHB3_GRP1_PERIPH_SRAM2        RCC_C2AHB3SMENR_SRAM2SMEN
 243:Drivers/STM32WBxx_HAL_Driver/Inc/stm32wbxx_ll_bus.h **** /**
 244:Drivers/STM32WBxx_HAL_Driver/Inc/stm32wbxx_ll_bus.h ****   * @}
 245:Drivers/STM32WBxx_HAL_Driver/Inc/stm32wbxx_ll_bus.h ****   */
 246:Drivers/STM32WBxx_HAL_Driver/Inc/stm32wbxx_ll_bus.h **** 
 247:Drivers/STM32WBxx_HAL_Driver/Inc/stm32wbxx_ll_bus.h **** 
 248:Drivers/STM32WBxx_HAL_Driver/Inc/stm32wbxx_ll_bus.h **** /** @defgroup BUS_LL_EC_C2_APB1_GRP1_PERIPH  C2 APB1 GRP1 PERIPH
 249:Drivers/STM32WBxx_HAL_Driver/Inc/stm32wbxx_ll_bus.h ****   * @{
 250:Drivers/STM32WBxx_HAL_Driver/Inc/stm32wbxx_ll_bus.h ****   */
 251:Drivers/STM32WBxx_HAL_Driver/Inc/stm32wbxx_ll_bus.h **** #define LL_C2_APB1_GRP1_PERIPH_TIM2         RCC_C2APB1ENR1_TIM2EN
 252:Drivers/STM32WBxx_HAL_Driver/Inc/stm32wbxx_ll_bus.h **** #if defined(LCD)
 253:Drivers/STM32WBxx_HAL_Driver/Inc/stm32wbxx_ll_bus.h **** #define LL_C2_APB1_GRP1_PERIPH_LCD          RCC_C2APB1ENR1_LCDEN
 254:Drivers/STM32WBxx_HAL_Driver/Inc/stm32wbxx_ll_bus.h **** #endif
 255:Drivers/STM32WBxx_HAL_Driver/Inc/stm32wbxx_ll_bus.h **** #define LL_C2_APB1_GRP1_PERIPH_RTCAPB       RCC_C2APB1ENR1_RTCAPBEN
ARM GAS  /tmp/ccFx4qIG.s 			page 11


 256:Drivers/STM32WBxx_HAL_Driver/Inc/stm32wbxx_ll_bus.h **** #if defined(SPI2)
 257:Drivers/STM32WBxx_HAL_Driver/Inc/stm32wbxx_ll_bus.h **** #define LL_C2_APB1_GRP1_PERIPH_SPI2         RCC_C2APB1ENR1_SPI2EN
 258:Drivers/STM32WBxx_HAL_Driver/Inc/stm32wbxx_ll_bus.h **** #endif
 259:Drivers/STM32WBxx_HAL_Driver/Inc/stm32wbxx_ll_bus.h **** #define LL_C2_APB1_GRP1_PERIPH_I2C1         RCC_C2APB1ENR1_I2C1EN
 260:Drivers/STM32WBxx_HAL_Driver/Inc/stm32wbxx_ll_bus.h **** #if defined(I2C3)
 261:Drivers/STM32WBxx_HAL_Driver/Inc/stm32wbxx_ll_bus.h **** #define LL_C2_APB1_GRP1_PERIPH_I2C3         RCC_C2APB1ENR1_I2C3EN
 262:Drivers/STM32WBxx_HAL_Driver/Inc/stm32wbxx_ll_bus.h **** #define LL_C2_APB1_GRP1_PERIPH_CRS          RCC_C2APB1ENR1_CRSEN
 263:Drivers/STM32WBxx_HAL_Driver/Inc/stm32wbxx_ll_bus.h **** #define LL_C2_APB1_GRP1_PERIPH_USB          RCC_C2APB1ENR1_USBEN
 264:Drivers/STM32WBxx_HAL_Driver/Inc/stm32wbxx_ll_bus.h **** #endif
 265:Drivers/STM32WBxx_HAL_Driver/Inc/stm32wbxx_ll_bus.h **** #define LL_C2_APB1_GRP1_PERIPH_LPTIM1       RCC_C2APB1ENR1_LPTIM1EN
 266:Drivers/STM32WBxx_HAL_Driver/Inc/stm32wbxx_ll_bus.h **** /**
 267:Drivers/STM32WBxx_HAL_Driver/Inc/stm32wbxx_ll_bus.h ****   * @}
 268:Drivers/STM32WBxx_HAL_Driver/Inc/stm32wbxx_ll_bus.h ****   */
 269:Drivers/STM32WBxx_HAL_Driver/Inc/stm32wbxx_ll_bus.h **** 
 270:Drivers/STM32WBxx_HAL_Driver/Inc/stm32wbxx_ll_bus.h **** 
 271:Drivers/STM32WBxx_HAL_Driver/Inc/stm32wbxx_ll_bus.h **** /** @defgroup BUS_LL_EC_C2_APB1_GRP2_PERIPH  C2 APB1 GRP2 PERIPH
 272:Drivers/STM32WBxx_HAL_Driver/Inc/stm32wbxx_ll_bus.h ****   * @{
 273:Drivers/STM32WBxx_HAL_Driver/Inc/stm32wbxx_ll_bus.h ****   */
 274:Drivers/STM32WBxx_HAL_Driver/Inc/stm32wbxx_ll_bus.h **** #if defined(LPUART1)
 275:Drivers/STM32WBxx_HAL_Driver/Inc/stm32wbxx_ll_bus.h **** #define LL_C2_APB1_GRP2_PERIPH_LPUART1      RCC_C2APB1ENR2_LPUART1EN
 276:Drivers/STM32WBxx_HAL_Driver/Inc/stm32wbxx_ll_bus.h **** #endif
 277:Drivers/STM32WBxx_HAL_Driver/Inc/stm32wbxx_ll_bus.h **** #define LL_C2_APB1_GRP2_PERIPH_LPTIM2       RCC_C2APB1ENR2_LPTIM2EN
 278:Drivers/STM32WBxx_HAL_Driver/Inc/stm32wbxx_ll_bus.h **** /**
 279:Drivers/STM32WBxx_HAL_Driver/Inc/stm32wbxx_ll_bus.h ****   * @}
 280:Drivers/STM32WBxx_HAL_Driver/Inc/stm32wbxx_ll_bus.h ****   */
 281:Drivers/STM32WBxx_HAL_Driver/Inc/stm32wbxx_ll_bus.h **** 
 282:Drivers/STM32WBxx_HAL_Driver/Inc/stm32wbxx_ll_bus.h **** 
 283:Drivers/STM32WBxx_HAL_Driver/Inc/stm32wbxx_ll_bus.h **** /** @defgroup BUS_LL_EC_C2_APB2_GRP1_PERIPH  C2 APB2 GRP1 PERIPH
 284:Drivers/STM32WBxx_HAL_Driver/Inc/stm32wbxx_ll_bus.h ****   * @{
 285:Drivers/STM32WBxx_HAL_Driver/Inc/stm32wbxx_ll_bus.h ****   */
 286:Drivers/STM32WBxx_HAL_Driver/Inc/stm32wbxx_ll_bus.h **** #define LL_C2_APB2_GRP1_PERIPH_TIM1         RCC_C2APB2ENR_TIM1EN
 287:Drivers/STM32WBxx_HAL_Driver/Inc/stm32wbxx_ll_bus.h **** #define LL_C2_APB2_GRP1_PERIPH_SPI1         RCC_C2APB2ENR_SPI1EN
 288:Drivers/STM32WBxx_HAL_Driver/Inc/stm32wbxx_ll_bus.h **** #define LL_C2_APB2_GRP1_PERIPH_USART1       RCC_C2APB2ENR_USART1EN
 289:Drivers/STM32WBxx_HAL_Driver/Inc/stm32wbxx_ll_bus.h **** #define LL_C2_APB2_GRP1_PERIPH_TIM16        RCC_C2APB2ENR_TIM16EN
 290:Drivers/STM32WBxx_HAL_Driver/Inc/stm32wbxx_ll_bus.h **** #define LL_C2_APB2_GRP1_PERIPH_TIM17        RCC_C2APB2ENR_TIM17EN
 291:Drivers/STM32WBxx_HAL_Driver/Inc/stm32wbxx_ll_bus.h **** #if defined(SAI1)
 292:Drivers/STM32WBxx_HAL_Driver/Inc/stm32wbxx_ll_bus.h **** #define LL_C2_APB2_GRP1_PERIPH_SAI1         RCC_C2APB2ENR_SAI1EN
 293:Drivers/STM32WBxx_HAL_Driver/Inc/stm32wbxx_ll_bus.h **** #endif
 294:Drivers/STM32WBxx_HAL_Driver/Inc/stm32wbxx_ll_bus.h **** /**
 295:Drivers/STM32WBxx_HAL_Driver/Inc/stm32wbxx_ll_bus.h ****   * @}
 296:Drivers/STM32WBxx_HAL_Driver/Inc/stm32wbxx_ll_bus.h ****   */
 297:Drivers/STM32WBxx_HAL_Driver/Inc/stm32wbxx_ll_bus.h **** 
 298:Drivers/STM32WBxx_HAL_Driver/Inc/stm32wbxx_ll_bus.h **** 
 299:Drivers/STM32WBxx_HAL_Driver/Inc/stm32wbxx_ll_bus.h **** /** @defgroup BUS_LL_EC_C2_APB3_GRP1_PERIPH  C2 APB3 GRP1 PERIPH
 300:Drivers/STM32WBxx_HAL_Driver/Inc/stm32wbxx_ll_bus.h ****   * @{
 301:Drivers/STM32WBxx_HAL_Driver/Inc/stm32wbxx_ll_bus.h ****   */
 302:Drivers/STM32WBxx_HAL_Driver/Inc/stm32wbxx_ll_bus.h **** #define LL_C2_APB3_GRP1_PERIPH_BLE          RCC_C2APB3ENR_BLEEN
 303:Drivers/STM32WBxx_HAL_Driver/Inc/stm32wbxx_ll_bus.h **** #define LL_C2_APB3_GRP1_PERIPH_802          RCC_C2APB3ENR_802EN
 304:Drivers/STM32WBxx_HAL_Driver/Inc/stm32wbxx_ll_bus.h **** /**
 305:Drivers/STM32WBxx_HAL_Driver/Inc/stm32wbxx_ll_bus.h ****   * @}
 306:Drivers/STM32WBxx_HAL_Driver/Inc/stm32wbxx_ll_bus.h ****   */
 307:Drivers/STM32WBxx_HAL_Driver/Inc/stm32wbxx_ll_bus.h **** 
 308:Drivers/STM32WBxx_HAL_Driver/Inc/stm32wbxx_ll_bus.h **** 
 309:Drivers/STM32WBxx_HAL_Driver/Inc/stm32wbxx_ll_bus.h **** /**
 310:Drivers/STM32WBxx_HAL_Driver/Inc/stm32wbxx_ll_bus.h ****   * @}
 311:Drivers/STM32WBxx_HAL_Driver/Inc/stm32wbxx_ll_bus.h ****   */
 312:Drivers/STM32WBxx_HAL_Driver/Inc/stm32wbxx_ll_bus.h **** 
ARM GAS  /tmp/ccFx4qIG.s 			page 12


 313:Drivers/STM32WBxx_HAL_Driver/Inc/stm32wbxx_ll_bus.h **** /* Exported macro ------------------------------------------------------------*/
 314:Drivers/STM32WBxx_HAL_Driver/Inc/stm32wbxx_ll_bus.h **** 
 315:Drivers/STM32WBxx_HAL_Driver/Inc/stm32wbxx_ll_bus.h **** /* Exported functions --------------------------------------------------------*/
 316:Drivers/STM32WBxx_HAL_Driver/Inc/stm32wbxx_ll_bus.h **** 
 317:Drivers/STM32WBxx_HAL_Driver/Inc/stm32wbxx_ll_bus.h **** /** @defgroup BUS_LL_Exported_Functions BUS Exported Functions
 318:Drivers/STM32WBxx_HAL_Driver/Inc/stm32wbxx_ll_bus.h ****   * @{
 319:Drivers/STM32WBxx_HAL_Driver/Inc/stm32wbxx_ll_bus.h ****   */
 320:Drivers/STM32WBxx_HAL_Driver/Inc/stm32wbxx_ll_bus.h **** 
 321:Drivers/STM32WBxx_HAL_Driver/Inc/stm32wbxx_ll_bus.h **** /** @defgroup BUS_LL_EF_AHB1 AHB1
 322:Drivers/STM32WBxx_HAL_Driver/Inc/stm32wbxx_ll_bus.h ****   * @{
 323:Drivers/STM32WBxx_HAL_Driver/Inc/stm32wbxx_ll_bus.h ****   */
 324:Drivers/STM32WBxx_HAL_Driver/Inc/stm32wbxx_ll_bus.h **** 
 325:Drivers/STM32WBxx_HAL_Driver/Inc/stm32wbxx_ll_bus.h **** /**
 326:Drivers/STM32WBxx_HAL_Driver/Inc/stm32wbxx_ll_bus.h ****   * @brief  Enable AHB1 peripherals clock.
 327:Drivers/STM32WBxx_HAL_Driver/Inc/stm32wbxx_ll_bus.h ****   * @rmtoll AHB1ENR      DMA1EN        LL_AHB1_GRP1_EnableClock\n
 328:Drivers/STM32WBxx_HAL_Driver/Inc/stm32wbxx_ll_bus.h ****   *         AHB1ENR      DMA2EN        LL_AHB1_GRP1_EnableClock\n
 329:Drivers/STM32WBxx_HAL_Driver/Inc/stm32wbxx_ll_bus.h ****   *         AHB1ENR      DMAMUX1EN      LL_AHB1_GRP1_EnableClock\n
 330:Drivers/STM32WBxx_HAL_Driver/Inc/stm32wbxx_ll_bus.h ****   *         AHB1ENR      CRCEN         LL_AHB1_GRP1_EnableClock\n
 331:Drivers/STM32WBxx_HAL_Driver/Inc/stm32wbxx_ll_bus.h ****   *         AHB1ENR      TSCEN         LL_AHB1_GRP1_EnableClock
 332:Drivers/STM32WBxx_HAL_Driver/Inc/stm32wbxx_ll_bus.h ****   * @param  Periphs This parameter can be a combination of the following values:
 333:Drivers/STM32WBxx_HAL_Driver/Inc/stm32wbxx_ll_bus.h ****   *         @arg @ref LL_AHB1_GRP1_PERIPH_DMA1
 334:Drivers/STM32WBxx_HAL_Driver/Inc/stm32wbxx_ll_bus.h ****   *         @arg @ref LL_AHB1_GRP1_PERIPH_DMA2
 335:Drivers/STM32WBxx_HAL_Driver/Inc/stm32wbxx_ll_bus.h ****   *         @arg @ref LL_AHB1_GRP1_PERIPH_DMAMUX1
 336:Drivers/STM32WBxx_HAL_Driver/Inc/stm32wbxx_ll_bus.h ****   *         @arg @ref LL_AHB1_GRP1_PERIPH_CRC
 337:Drivers/STM32WBxx_HAL_Driver/Inc/stm32wbxx_ll_bus.h ****   *         @arg @ref LL_AHB1_GRP1_PERIPH_TSC
 338:Drivers/STM32WBxx_HAL_Driver/Inc/stm32wbxx_ll_bus.h ****   * @retval None
 339:Drivers/STM32WBxx_HAL_Driver/Inc/stm32wbxx_ll_bus.h **** */
 340:Drivers/STM32WBxx_HAL_Driver/Inc/stm32wbxx_ll_bus.h **** __STATIC_INLINE void LL_AHB1_GRP1_EnableClock(uint32_t Periphs)
 341:Drivers/STM32WBxx_HAL_Driver/Inc/stm32wbxx_ll_bus.h **** {
 342:Drivers/STM32WBxx_HAL_Driver/Inc/stm32wbxx_ll_bus.h ****   __IO uint32_t tmpreg;
 343:Drivers/STM32WBxx_HAL_Driver/Inc/stm32wbxx_ll_bus.h ****   SET_BIT(RCC->AHB1ENR, Periphs);
 344:Drivers/STM32WBxx_HAL_Driver/Inc/stm32wbxx_ll_bus.h ****   /* Delay after an RCC peripheral clock enabling */
 345:Drivers/STM32WBxx_HAL_Driver/Inc/stm32wbxx_ll_bus.h ****   tmpreg = READ_BIT(RCC->AHB1ENR, Periphs);
 346:Drivers/STM32WBxx_HAL_Driver/Inc/stm32wbxx_ll_bus.h ****   (void)tmpreg;
 347:Drivers/STM32WBxx_HAL_Driver/Inc/stm32wbxx_ll_bus.h **** }
 348:Drivers/STM32WBxx_HAL_Driver/Inc/stm32wbxx_ll_bus.h **** 
 349:Drivers/STM32WBxx_HAL_Driver/Inc/stm32wbxx_ll_bus.h **** /**
 350:Drivers/STM32WBxx_HAL_Driver/Inc/stm32wbxx_ll_bus.h ****   * @brief  Check if AHB1 peripheral clock is enabled or not
 351:Drivers/STM32WBxx_HAL_Driver/Inc/stm32wbxx_ll_bus.h ****   * @rmtoll AHB1ENR      DMA1EN        LL_AHB1_GRP1_IsEnabledClock\n
 352:Drivers/STM32WBxx_HAL_Driver/Inc/stm32wbxx_ll_bus.h ****   *         AHB1ENR      DMA2EN        LL_AHB1_GRP1_IsEnabledClock\n
 353:Drivers/STM32WBxx_HAL_Driver/Inc/stm32wbxx_ll_bus.h ****   *         AHB1ENR      DMAMUX1EN      LL_AHB1_GRP1_IsEnabledClock\n
 354:Drivers/STM32WBxx_HAL_Driver/Inc/stm32wbxx_ll_bus.h ****   *         AHB1ENR      CRCEN         LL_AHB1_GRP1_IsEnabledClock\n
 355:Drivers/STM32WBxx_HAL_Driver/Inc/stm32wbxx_ll_bus.h ****   *         AHB1ENR      TSCEN         LL_AHB1_GRP1_IsEnabledClock
 356:Drivers/STM32WBxx_HAL_Driver/Inc/stm32wbxx_ll_bus.h ****   * @param  Periphs This parameter can be a combination of the following values:
 357:Drivers/STM32WBxx_HAL_Driver/Inc/stm32wbxx_ll_bus.h ****   *         @arg @ref LL_AHB1_GRP1_PERIPH_DMA1
 358:Drivers/STM32WBxx_HAL_Driver/Inc/stm32wbxx_ll_bus.h ****   *         @arg @ref LL_AHB1_GRP1_PERIPH_DMA2
 359:Drivers/STM32WBxx_HAL_Driver/Inc/stm32wbxx_ll_bus.h ****   *         @arg @ref LL_AHB1_GRP1_PERIPH_DMAMUX1
 360:Drivers/STM32WBxx_HAL_Driver/Inc/stm32wbxx_ll_bus.h ****   *         @arg @ref LL_AHB1_GRP1_PERIPH_CRC
 361:Drivers/STM32WBxx_HAL_Driver/Inc/stm32wbxx_ll_bus.h ****   *         @arg @ref LL_AHB1_GRP1_PERIPH_TSC
 362:Drivers/STM32WBxx_HAL_Driver/Inc/stm32wbxx_ll_bus.h ****   * @retval uint32_t
 363:Drivers/STM32WBxx_HAL_Driver/Inc/stm32wbxx_ll_bus.h **** */
 364:Drivers/STM32WBxx_HAL_Driver/Inc/stm32wbxx_ll_bus.h **** __STATIC_INLINE uint32_t LL_AHB1_GRP1_IsEnabledClock(uint32_t Periphs)
 365:Drivers/STM32WBxx_HAL_Driver/Inc/stm32wbxx_ll_bus.h **** {
 366:Drivers/STM32WBxx_HAL_Driver/Inc/stm32wbxx_ll_bus.h ****   return ((READ_BIT(RCC->AHB1ENR, Periphs) == (Periphs)) ? 1UL : 0UL);
 367:Drivers/STM32WBxx_HAL_Driver/Inc/stm32wbxx_ll_bus.h **** }
 368:Drivers/STM32WBxx_HAL_Driver/Inc/stm32wbxx_ll_bus.h **** 
 369:Drivers/STM32WBxx_HAL_Driver/Inc/stm32wbxx_ll_bus.h **** /**
ARM GAS  /tmp/ccFx4qIG.s 			page 13


 370:Drivers/STM32WBxx_HAL_Driver/Inc/stm32wbxx_ll_bus.h ****   * @brief  Disable AHB1 peripherals clock.
 371:Drivers/STM32WBxx_HAL_Driver/Inc/stm32wbxx_ll_bus.h ****   * @rmtoll AHB1ENR      DMA1EN        LL_AHB1_GRP1_DisableClock\n
 372:Drivers/STM32WBxx_HAL_Driver/Inc/stm32wbxx_ll_bus.h ****   *         AHB1ENR      DMA2EN        LL_AHB1_GRP1_DisableClock\n
 373:Drivers/STM32WBxx_HAL_Driver/Inc/stm32wbxx_ll_bus.h ****   *         AHB1ENR      DMAMUX1EN      LL_AHB1_GRP1_DisableClock\n
 374:Drivers/STM32WBxx_HAL_Driver/Inc/stm32wbxx_ll_bus.h ****   *         AHB1ENR      CRCEN         LL_AHB1_GRP1_DisableClock\n
 375:Drivers/STM32WBxx_HAL_Driver/Inc/stm32wbxx_ll_bus.h ****   *         AHB1ENR      TSCEN         LL_AHB1_GRP1_DisableClock
 376:Drivers/STM32WBxx_HAL_Driver/Inc/stm32wbxx_ll_bus.h ****   * @param  Periphs This parameter can be a combination of the following values:
 377:Drivers/STM32WBxx_HAL_Driver/Inc/stm32wbxx_ll_bus.h ****   *         @arg @ref LL_AHB1_GRP1_PERIPH_DMA1
 378:Drivers/STM32WBxx_HAL_Driver/Inc/stm32wbxx_ll_bus.h ****   *         @arg @ref LL_AHB1_GRP1_PERIPH_DMA2
 379:Drivers/STM32WBxx_HAL_Driver/Inc/stm32wbxx_ll_bus.h ****   *         @arg @ref LL_AHB1_GRP1_PERIPH_DMAMUX1
 380:Drivers/STM32WBxx_HAL_Driver/Inc/stm32wbxx_ll_bus.h ****   *         @arg @ref LL_AHB1_GRP1_PERIPH_CRC
 381:Drivers/STM32WBxx_HAL_Driver/Inc/stm32wbxx_ll_bus.h ****   *         @arg @ref LL_AHB1_GRP1_PERIPH_TSC
 382:Drivers/STM32WBxx_HAL_Driver/Inc/stm32wbxx_ll_bus.h ****   * @retval None
 383:Drivers/STM32WBxx_HAL_Driver/Inc/stm32wbxx_ll_bus.h **** */
 384:Drivers/STM32WBxx_HAL_Driver/Inc/stm32wbxx_ll_bus.h **** __STATIC_INLINE void LL_AHB1_GRP1_DisableClock(uint32_t Periphs)
 385:Drivers/STM32WBxx_HAL_Driver/Inc/stm32wbxx_ll_bus.h **** {
 386:Drivers/STM32WBxx_HAL_Driver/Inc/stm32wbxx_ll_bus.h ****   CLEAR_BIT(RCC->AHB1ENR, Periphs);
 387:Drivers/STM32WBxx_HAL_Driver/Inc/stm32wbxx_ll_bus.h **** }
 388:Drivers/STM32WBxx_HAL_Driver/Inc/stm32wbxx_ll_bus.h **** 
 389:Drivers/STM32WBxx_HAL_Driver/Inc/stm32wbxx_ll_bus.h **** /**
 390:Drivers/STM32WBxx_HAL_Driver/Inc/stm32wbxx_ll_bus.h ****   * @brief  Force AHB1 peripherals reset.
 391:Drivers/STM32WBxx_HAL_Driver/Inc/stm32wbxx_ll_bus.h ****   * @rmtoll AHB1RSTR     DMA1RST       LL_AHB1_GRP1_ForceReset\n
 392:Drivers/STM32WBxx_HAL_Driver/Inc/stm32wbxx_ll_bus.h ****   *         AHB1RSTR     DMA2RST       LL_AHB1_GRP1_ForceReset\n
 393:Drivers/STM32WBxx_HAL_Driver/Inc/stm32wbxx_ll_bus.h ****   *         AHB1RSTR     DMAMUX1RST     LL_AHB1_GRP1_ForceReset\n
 394:Drivers/STM32WBxx_HAL_Driver/Inc/stm32wbxx_ll_bus.h ****   *         AHB1RSTR     CRCRST        LL_AHB1_GRP1_ForceReset\n
 395:Drivers/STM32WBxx_HAL_Driver/Inc/stm32wbxx_ll_bus.h ****   *         AHB1RSTR     TSCRST        LL_AHB1_GRP1_ForceReset
 396:Drivers/STM32WBxx_HAL_Driver/Inc/stm32wbxx_ll_bus.h ****   * @param  Periphs This parameter can be a combination of the following values:
 397:Drivers/STM32WBxx_HAL_Driver/Inc/stm32wbxx_ll_bus.h ****   *         @arg @ref LL_AHB1_GRP1_PERIPH_ALL
 398:Drivers/STM32WBxx_HAL_Driver/Inc/stm32wbxx_ll_bus.h ****   *         @arg @ref LL_AHB1_GRP1_PERIPH_DMA1
 399:Drivers/STM32WBxx_HAL_Driver/Inc/stm32wbxx_ll_bus.h ****   *         @arg @ref LL_AHB1_GRP1_PERIPH_DMA2
 400:Drivers/STM32WBxx_HAL_Driver/Inc/stm32wbxx_ll_bus.h ****   *         @arg @ref LL_AHB1_GRP1_PERIPH_DMAMUX1
 401:Drivers/STM32WBxx_HAL_Driver/Inc/stm32wbxx_ll_bus.h ****   *         @arg @ref LL_AHB1_GRP1_PERIPH_CRC
 402:Drivers/STM32WBxx_HAL_Driver/Inc/stm32wbxx_ll_bus.h ****   *         @arg @ref LL_AHB1_GRP1_PERIPH_TSC
 403:Drivers/STM32WBxx_HAL_Driver/Inc/stm32wbxx_ll_bus.h ****   * @retval None
 404:Drivers/STM32WBxx_HAL_Driver/Inc/stm32wbxx_ll_bus.h **** */
 405:Drivers/STM32WBxx_HAL_Driver/Inc/stm32wbxx_ll_bus.h **** __STATIC_INLINE void LL_AHB1_GRP1_ForceReset(uint32_t Periphs)
 406:Drivers/STM32WBxx_HAL_Driver/Inc/stm32wbxx_ll_bus.h **** {
 407:Drivers/STM32WBxx_HAL_Driver/Inc/stm32wbxx_ll_bus.h ****   SET_BIT(RCC->AHB1RSTR, Periphs);
 408:Drivers/STM32WBxx_HAL_Driver/Inc/stm32wbxx_ll_bus.h **** }
 409:Drivers/STM32WBxx_HAL_Driver/Inc/stm32wbxx_ll_bus.h **** 
 410:Drivers/STM32WBxx_HAL_Driver/Inc/stm32wbxx_ll_bus.h **** /**
 411:Drivers/STM32WBxx_HAL_Driver/Inc/stm32wbxx_ll_bus.h ****   * @brief  Release AHB1 peripherals reset.
 412:Drivers/STM32WBxx_HAL_Driver/Inc/stm32wbxx_ll_bus.h ****   * @rmtoll AHB1RSTR     DMA1RST       LL_AHB1_GRP1_ReleaseReset\n
 413:Drivers/STM32WBxx_HAL_Driver/Inc/stm32wbxx_ll_bus.h ****   *         AHB1RSTR     DMA2RST       LL_AHB1_GRP1_ReleaseReset\n
 414:Drivers/STM32WBxx_HAL_Driver/Inc/stm32wbxx_ll_bus.h ****   *         AHB1RSTR     DMAMUX1RST     LL_AHB1_GRP1_ReleaseReset\n
 415:Drivers/STM32WBxx_HAL_Driver/Inc/stm32wbxx_ll_bus.h ****   *         AHB1RSTR     CRCRST        LL_AHB1_GRP1_ReleaseReset\n
 416:Drivers/STM32WBxx_HAL_Driver/Inc/stm32wbxx_ll_bus.h ****   *         AHB1RSTR     TSCRST        LL_AHB1_GRP1_ReleaseReset
 417:Drivers/STM32WBxx_HAL_Driver/Inc/stm32wbxx_ll_bus.h ****   * @param  Periphs This parameter can be a combination of the following values:
 418:Drivers/STM32WBxx_HAL_Driver/Inc/stm32wbxx_ll_bus.h ****   *         @arg @ref LL_AHB1_GRP1_PERIPH_ALL
 419:Drivers/STM32WBxx_HAL_Driver/Inc/stm32wbxx_ll_bus.h ****   *         @arg @ref LL_AHB1_GRP1_PERIPH_DMA1
 420:Drivers/STM32WBxx_HAL_Driver/Inc/stm32wbxx_ll_bus.h ****   *         @arg @ref LL_AHB1_GRP1_PERIPH_DMA2
 421:Drivers/STM32WBxx_HAL_Driver/Inc/stm32wbxx_ll_bus.h ****   *         @arg @ref LL_AHB1_GRP1_PERIPH_DMAMUX1
 422:Drivers/STM32WBxx_HAL_Driver/Inc/stm32wbxx_ll_bus.h ****   *         @arg @ref LL_AHB1_GRP1_PERIPH_CRC
 423:Drivers/STM32WBxx_HAL_Driver/Inc/stm32wbxx_ll_bus.h ****   *         @arg @ref LL_AHB1_GRP1_PERIPH_TSC
 424:Drivers/STM32WBxx_HAL_Driver/Inc/stm32wbxx_ll_bus.h ****   * @retval None
 425:Drivers/STM32WBxx_HAL_Driver/Inc/stm32wbxx_ll_bus.h **** */
 426:Drivers/STM32WBxx_HAL_Driver/Inc/stm32wbxx_ll_bus.h **** __STATIC_INLINE void LL_AHB1_GRP1_ReleaseReset(uint32_t Periphs)
ARM GAS  /tmp/ccFx4qIG.s 			page 14


 427:Drivers/STM32WBxx_HAL_Driver/Inc/stm32wbxx_ll_bus.h **** {
 428:Drivers/STM32WBxx_HAL_Driver/Inc/stm32wbxx_ll_bus.h ****   CLEAR_BIT(RCC->AHB1RSTR, Periphs);
 429:Drivers/STM32WBxx_HAL_Driver/Inc/stm32wbxx_ll_bus.h **** }
 430:Drivers/STM32WBxx_HAL_Driver/Inc/stm32wbxx_ll_bus.h **** 
 431:Drivers/STM32WBxx_HAL_Driver/Inc/stm32wbxx_ll_bus.h **** /**
 432:Drivers/STM32WBxx_HAL_Driver/Inc/stm32wbxx_ll_bus.h ****   * @brief  Enable AHB1 peripherals clock during Low Power (Sleep) mode.
 433:Drivers/STM32WBxx_HAL_Driver/Inc/stm32wbxx_ll_bus.h ****   * @rmtoll AHB1SMENR    DMA1SMEN      LL_AHB1_GRP1_EnableClockSleep\n
 434:Drivers/STM32WBxx_HAL_Driver/Inc/stm32wbxx_ll_bus.h ****   *         AHB1SMENR    DMA2SMEN      LL_AHB1_GRP1_EnableClockSleep\n
 435:Drivers/STM32WBxx_HAL_Driver/Inc/stm32wbxx_ll_bus.h ****   *         AHB1SMENR    DMAMUX1SMEN    LL_AHB1_GRP1_EnableClockSleep\n
 436:Drivers/STM32WBxx_HAL_Driver/Inc/stm32wbxx_ll_bus.h ****   *         AHB1SMENR    SRAM1SMEN     LL_AHB1_GRP1_EnableClockSleep\n
 437:Drivers/STM32WBxx_HAL_Driver/Inc/stm32wbxx_ll_bus.h ****   *         AHB1SMENR    CRCSMEN       LL_AHB1_GRP1_EnableClockSleep\n
 438:Drivers/STM32WBxx_HAL_Driver/Inc/stm32wbxx_ll_bus.h ****   *         AHB1SMENR    TSCSMEN       LL_AHB1_GRP1_EnableClockSleep
 439:Drivers/STM32WBxx_HAL_Driver/Inc/stm32wbxx_ll_bus.h ****   * @param  Periphs This parameter can be a combination of the following values:
 440:Drivers/STM32WBxx_HAL_Driver/Inc/stm32wbxx_ll_bus.h ****   *         @arg @ref LL_AHB1_GRP1_PERIPH_DMA1
 441:Drivers/STM32WBxx_HAL_Driver/Inc/stm32wbxx_ll_bus.h ****   *         @arg @ref LL_AHB1_GRP1_PERIPH_DMA2
 442:Drivers/STM32WBxx_HAL_Driver/Inc/stm32wbxx_ll_bus.h ****   *         @arg @ref LL_AHB1_GRP1_PERIPH_DMAMUX1
 443:Drivers/STM32WBxx_HAL_Driver/Inc/stm32wbxx_ll_bus.h ****   *         @arg @ref LL_AHB1_GRP1_PERIPH_SRAM1
 444:Drivers/STM32WBxx_HAL_Driver/Inc/stm32wbxx_ll_bus.h ****   *         @arg @ref LL_AHB1_GRP1_PERIPH_CRC
 445:Drivers/STM32WBxx_HAL_Driver/Inc/stm32wbxx_ll_bus.h ****   *         @arg @ref LL_AHB1_GRP1_PERIPH_TSC
 446:Drivers/STM32WBxx_HAL_Driver/Inc/stm32wbxx_ll_bus.h ****   * @retval None
 447:Drivers/STM32WBxx_HAL_Driver/Inc/stm32wbxx_ll_bus.h **** */
 448:Drivers/STM32WBxx_HAL_Driver/Inc/stm32wbxx_ll_bus.h **** __STATIC_INLINE void LL_AHB1_GRP1_EnableClockSleep(uint32_t Periphs)
 449:Drivers/STM32WBxx_HAL_Driver/Inc/stm32wbxx_ll_bus.h **** {
 450:Drivers/STM32WBxx_HAL_Driver/Inc/stm32wbxx_ll_bus.h ****   __IO uint32_t tmpreg;
 451:Drivers/STM32WBxx_HAL_Driver/Inc/stm32wbxx_ll_bus.h ****   SET_BIT(RCC->AHB1SMENR, Periphs);
 452:Drivers/STM32WBxx_HAL_Driver/Inc/stm32wbxx_ll_bus.h ****   /* Delay after an RCC peripheral clock enabling */
 453:Drivers/STM32WBxx_HAL_Driver/Inc/stm32wbxx_ll_bus.h ****   tmpreg = READ_BIT(RCC->AHB1SMENR, Periphs);
 454:Drivers/STM32WBxx_HAL_Driver/Inc/stm32wbxx_ll_bus.h ****   (void)tmpreg;
 455:Drivers/STM32WBxx_HAL_Driver/Inc/stm32wbxx_ll_bus.h **** }
 456:Drivers/STM32WBxx_HAL_Driver/Inc/stm32wbxx_ll_bus.h **** 
 457:Drivers/STM32WBxx_HAL_Driver/Inc/stm32wbxx_ll_bus.h **** /**
 458:Drivers/STM32WBxx_HAL_Driver/Inc/stm32wbxx_ll_bus.h ****   * @brief  Disable AHB1 peripherals clock during Low Power (Sleep) mode.
 459:Drivers/STM32WBxx_HAL_Driver/Inc/stm32wbxx_ll_bus.h ****   * @rmtoll AHB1SMENR    DMA1SMEN      LL_AHB1_GRP1_DisableClockSleep\n
 460:Drivers/STM32WBxx_HAL_Driver/Inc/stm32wbxx_ll_bus.h ****   *         AHB1SMENR    DMA2SMEN      LL_AHB1_GRP1_DisableClockSleep\n
 461:Drivers/STM32WBxx_HAL_Driver/Inc/stm32wbxx_ll_bus.h ****   *         AHB1SMENR    DMAMUX1SMEN    LL_AHB1_GRP1_DisableClockSleep\n
 462:Drivers/STM32WBxx_HAL_Driver/Inc/stm32wbxx_ll_bus.h ****   *         AHB1SMENR    SRAM1SMEN     LL_AHB1_GRP1_DisableClockSleep\n
 463:Drivers/STM32WBxx_HAL_Driver/Inc/stm32wbxx_ll_bus.h ****   *         AHB1SMENR    CRCSMEN       LL_AHB1_GRP1_DisableClockSleep\n
 464:Drivers/STM32WBxx_HAL_Driver/Inc/stm32wbxx_ll_bus.h ****   *         AHB1SMENR    TSCSMEN       LL_AHB1_GRP1_DisableClockSleep
 465:Drivers/STM32WBxx_HAL_Driver/Inc/stm32wbxx_ll_bus.h ****   * @param  Periphs This parameter can be a combination of the following values:
 466:Drivers/STM32WBxx_HAL_Driver/Inc/stm32wbxx_ll_bus.h ****   *         @arg @ref LL_AHB1_GRP1_PERIPH_DMA1
 467:Drivers/STM32WBxx_HAL_Driver/Inc/stm32wbxx_ll_bus.h ****   *         @arg @ref LL_AHB1_GRP1_PERIPH_DMA2
 468:Drivers/STM32WBxx_HAL_Driver/Inc/stm32wbxx_ll_bus.h ****   *         @arg @ref LL_AHB1_GRP1_PERIPH_DMAMUX1
 469:Drivers/STM32WBxx_HAL_Driver/Inc/stm32wbxx_ll_bus.h ****   *         @arg @ref LL_AHB1_GRP1_PERIPH_SRAM1
 470:Drivers/STM32WBxx_HAL_Driver/Inc/stm32wbxx_ll_bus.h ****   *         @arg @ref LL_AHB1_GRP1_PERIPH_CRC
 471:Drivers/STM32WBxx_HAL_Driver/Inc/stm32wbxx_ll_bus.h ****   *         @arg @ref LL_AHB1_GRP1_PERIPH_TSC
 472:Drivers/STM32WBxx_HAL_Driver/Inc/stm32wbxx_ll_bus.h ****   * @retval None
 473:Drivers/STM32WBxx_HAL_Driver/Inc/stm32wbxx_ll_bus.h **** */
 474:Drivers/STM32WBxx_HAL_Driver/Inc/stm32wbxx_ll_bus.h **** __STATIC_INLINE void LL_AHB1_GRP1_DisableClockSleep(uint32_t Periphs)
 475:Drivers/STM32WBxx_HAL_Driver/Inc/stm32wbxx_ll_bus.h **** {
 476:Drivers/STM32WBxx_HAL_Driver/Inc/stm32wbxx_ll_bus.h ****   CLEAR_BIT(RCC->AHB1SMENR, Periphs);
 477:Drivers/STM32WBxx_HAL_Driver/Inc/stm32wbxx_ll_bus.h **** }
 478:Drivers/STM32WBxx_HAL_Driver/Inc/stm32wbxx_ll_bus.h **** 
 479:Drivers/STM32WBxx_HAL_Driver/Inc/stm32wbxx_ll_bus.h **** /**
 480:Drivers/STM32WBxx_HAL_Driver/Inc/stm32wbxx_ll_bus.h ****   * @}
 481:Drivers/STM32WBxx_HAL_Driver/Inc/stm32wbxx_ll_bus.h ****   */
 482:Drivers/STM32WBxx_HAL_Driver/Inc/stm32wbxx_ll_bus.h **** 
 483:Drivers/STM32WBxx_HAL_Driver/Inc/stm32wbxx_ll_bus.h **** /** @defgroup BUS_LL_EF_AHB2 AHB2
ARM GAS  /tmp/ccFx4qIG.s 			page 15


 484:Drivers/STM32WBxx_HAL_Driver/Inc/stm32wbxx_ll_bus.h ****   * @{
 485:Drivers/STM32WBxx_HAL_Driver/Inc/stm32wbxx_ll_bus.h ****   */
 486:Drivers/STM32WBxx_HAL_Driver/Inc/stm32wbxx_ll_bus.h **** 
 487:Drivers/STM32WBxx_HAL_Driver/Inc/stm32wbxx_ll_bus.h **** /**
 488:Drivers/STM32WBxx_HAL_Driver/Inc/stm32wbxx_ll_bus.h ****   * @brief  Enable AHB2 peripherals clock.
 489:Drivers/STM32WBxx_HAL_Driver/Inc/stm32wbxx_ll_bus.h ****   * @rmtoll AHB2ENR      GPIOAEN       LL_AHB2_GRP1_EnableClock\n
 490:Drivers/STM32WBxx_HAL_Driver/Inc/stm32wbxx_ll_bus.h ****   *         AHB2ENR      GPIOBEN       LL_AHB2_GRP1_EnableClock\n
 491:Drivers/STM32WBxx_HAL_Driver/Inc/stm32wbxx_ll_bus.h ****   *         AHB2ENR      GPIOCEN       LL_AHB2_GRP1_EnableClock\n
 492:Drivers/STM32WBxx_HAL_Driver/Inc/stm32wbxx_ll_bus.h ****   *         AHB2ENR      GPIODEN       LL_AHB2_GRP1_EnableClock\n
 493:Drivers/STM32WBxx_HAL_Driver/Inc/stm32wbxx_ll_bus.h ****   *         AHB2ENR      GPIOEEN       LL_AHB2_GRP1_EnableClock\n
 494:Drivers/STM32WBxx_HAL_Driver/Inc/stm32wbxx_ll_bus.h ****   *         AHB2ENR      GPIOHEN       LL_AHB2_GRP1_EnableClock\n
 495:Drivers/STM32WBxx_HAL_Driver/Inc/stm32wbxx_ll_bus.h ****   *         AHB2ENR      ADCEN         LL_AHB2_GRP1_EnableClock\n
 496:Drivers/STM32WBxx_HAL_Driver/Inc/stm32wbxx_ll_bus.h ****   *         AHB2ENR      AES1EN        LL_AHB2_GRP1_EnableClock
 497:Drivers/STM32WBxx_HAL_Driver/Inc/stm32wbxx_ll_bus.h ****   * @param  Periphs This parameter can be a combination of the following values:
 498:Drivers/STM32WBxx_HAL_Driver/Inc/stm32wbxx_ll_bus.h ****   *         @arg @ref LL_AHB2_GRP1_PERIPH_GPIOA
 499:Drivers/STM32WBxx_HAL_Driver/Inc/stm32wbxx_ll_bus.h ****   *         @arg @ref LL_AHB2_GRP1_PERIPH_GPIOB
 500:Drivers/STM32WBxx_HAL_Driver/Inc/stm32wbxx_ll_bus.h ****   *         @arg @ref LL_AHB2_GRP1_PERIPH_GPIOC
 501:Drivers/STM32WBxx_HAL_Driver/Inc/stm32wbxx_ll_bus.h ****   *         @arg @ref LL_AHB2_GRP1_PERIPH_GPIOD
 502:Drivers/STM32WBxx_HAL_Driver/Inc/stm32wbxx_ll_bus.h ****   *         @arg @ref LL_AHB2_GRP1_PERIPH_GPIOE
 503:Drivers/STM32WBxx_HAL_Driver/Inc/stm32wbxx_ll_bus.h ****   *         @arg @ref LL_AHB2_GRP1_PERIPH_GPIOH
 504:Drivers/STM32WBxx_HAL_Driver/Inc/stm32wbxx_ll_bus.h ****   *         @arg @ref LL_AHB2_GRP1_PERIPH_ADC
 505:Drivers/STM32WBxx_HAL_Driver/Inc/stm32wbxx_ll_bus.h ****   *         @arg @ref LL_AHB2_GRP1_PERIPH_AES1
 506:Drivers/STM32WBxx_HAL_Driver/Inc/stm32wbxx_ll_bus.h ****   * @retval None
 507:Drivers/STM32WBxx_HAL_Driver/Inc/stm32wbxx_ll_bus.h **** */
 508:Drivers/STM32WBxx_HAL_Driver/Inc/stm32wbxx_ll_bus.h **** __STATIC_INLINE void LL_AHB2_GRP1_EnableClock(uint32_t Periphs)
 509:Drivers/STM32WBxx_HAL_Driver/Inc/stm32wbxx_ll_bus.h **** {
 510:Drivers/STM32WBxx_HAL_Driver/Inc/stm32wbxx_ll_bus.h ****   __IO uint32_t tmpreg;
 511:Drivers/STM32WBxx_HAL_Driver/Inc/stm32wbxx_ll_bus.h ****   SET_BIT(RCC->AHB2ENR, Periphs);
 512:Drivers/STM32WBxx_HAL_Driver/Inc/stm32wbxx_ll_bus.h ****   /* Delay after an RCC peripheral clock enabling */
 513:Drivers/STM32WBxx_HAL_Driver/Inc/stm32wbxx_ll_bus.h ****   tmpreg = READ_BIT(RCC->AHB2ENR, Periphs);
 514:Drivers/STM32WBxx_HAL_Driver/Inc/stm32wbxx_ll_bus.h ****   (void)tmpreg;
 515:Drivers/STM32WBxx_HAL_Driver/Inc/stm32wbxx_ll_bus.h **** }
 516:Drivers/STM32WBxx_HAL_Driver/Inc/stm32wbxx_ll_bus.h **** 
 517:Drivers/STM32WBxx_HAL_Driver/Inc/stm32wbxx_ll_bus.h **** /**
 518:Drivers/STM32WBxx_HAL_Driver/Inc/stm32wbxx_ll_bus.h ****   * @brief  Check if AHB2 peripheral clock is enabled or not
 519:Drivers/STM32WBxx_HAL_Driver/Inc/stm32wbxx_ll_bus.h ****   * @rmtoll AHB2ENR      GPIOAEN       LL_AHB2_GRP1_IsEnabledClock\n
 520:Drivers/STM32WBxx_HAL_Driver/Inc/stm32wbxx_ll_bus.h ****   *         AHB2ENR      GPIOBEN       LL_AHB2_GRP1_IsEnabledClock\n
 521:Drivers/STM32WBxx_HAL_Driver/Inc/stm32wbxx_ll_bus.h ****   *         AHB2ENR      GPIOCEN       LL_AHB2_GRP1_IsEnabledClock\n
 522:Drivers/STM32WBxx_HAL_Driver/Inc/stm32wbxx_ll_bus.h ****   *         AHB2ENR      GPIODEN       LL_AHB2_GRP1_IsEnabledClock\n
 523:Drivers/STM32WBxx_HAL_Driver/Inc/stm32wbxx_ll_bus.h ****   *         AHB2ENR      GPIOEEN       LL_AHB2_GRP1_IsEnabledClock\n
 524:Drivers/STM32WBxx_HAL_Driver/Inc/stm32wbxx_ll_bus.h ****   *         AHB2ENR      GPIOHEN       LL_AHB2_GRP1_IsEnabledClock\n
 525:Drivers/STM32WBxx_HAL_Driver/Inc/stm32wbxx_ll_bus.h ****   *         AHB2ENR      ADCEN         LL_AHB2_GRP1_IsEnabledClock\n
 526:Drivers/STM32WBxx_HAL_Driver/Inc/stm32wbxx_ll_bus.h ****   *         AHB2ENR      AES1EN        LL_AHB2_GRP1_IsEnabledClock
 527:Drivers/STM32WBxx_HAL_Driver/Inc/stm32wbxx_ll_bus.h ****   * @param  Periphs This parameter can be a combination of the following values:
 528:Drivers/STM32WBxx_HAL_Driver/Inc/stm32wbxx_ll_bus.h ****   *         @arg @ref LL_AHB2_GRP1_PERIPH_GPIOA
 529:Drivers/STM32WBxx_HAL_Driver/Inc/stm32wbxx_ll_bus.h ****   *         @arg @ref LL_AHB2_GRP1_PERIPH_GPIOB
 530:Drivers/STM32WBxx_HAL_Driver/Inc/stm32wbxx_ll_bus.h ****   *         @arg @ref LL_AHB2_GRP1_PERIPH_GPIOC
 531:Drivers/STM32WBxx_HAL_Driver/Inc/stm32wbxx_ll_bus.h ****   *         @arg @ref LL_AHB2_GRP1_PERIPH_GPIOD
 532:Drivers/STM32WBxx_HAL_Driver/Inc/stm32wbxx_ll_bus.h ****   *         @arg @ref LL_AHB2_GRP1_PERIPH_GPIOE
 533:Drivers/STM32WBxx_HAL_Driver/Inc/stm32wbxx_ll_bus.h ****   *         @arg @ref LL_AHB2_GRP1_PERIPH_GPIOH
 534:Drivers/STM32WBxx_HAL_Driver/Inc/stm32wbxx_ll_bus.h ****   *         @arg @ref LL_AHB2_GRP1_PERIPH_ADC
 535:Drivers/STM32WBxx_HAL_Driver/Inc/stm32wbxx_ll_bus.h ****   *         @arg @ref LL_AHB2_GRP1_PERIPH_AES1
 536:Drivers/STM32WBxx_HAL_Driver/Inc/stm32wbxx_ll_bus.h ****   * @retval uint32_t
 537:Drivers/STM32WBxx_HAL_Driver/Inc/stm32wbxx_ll_bus.h **** */
 538:Drivers/STM32WBxx_HAL_Driver/Inc/stm32wbxx_ll_bus.h **** __STATIC_INLINE uint32_t LL_AHB2_GRP1_IsEnabledClock(uint32_t Periphs)
 539:Drivers/STM32WBxx_HAL_Driver/Inc/stm32wbxx_ll_bus.h **** {
 540:Drivers/STM32WBxx_HAL_Driver/Inc/stm32wbxx_ll_bus.h ****   return ((READ_BIT(RCC->AHB2ENR, Periphs) == (Periphs)) ? 1UL : 0UL);
ARM GAS  /tmp/ccFx4qIG.s 			page 16


 541:Drivers/STM32WBxx_HAL_Driver/Inc/stm32wbxx_ll_bus.h **** }
 542:Drivers/STM32WBxx_HAL_Driver/Inc/stm32wbxx_ll_bus.h **** 
 543:Drivers/STM32WBxx_HAL_Driver/Inc/stm32wbxx_ll_bus.h **** /**
 544:Drivers/STM32WBxx_HAL_Driver/Inc/stm32wbxx_ll_bus.h ****   * @brief  Disable AHB2 peripherals clock.
 545:Drivers/STM32WBxx_HAL_Driver/Inc/stm32wbxx_ll_bus.h ****   * @rmtoll AHB2ENR      GPIOAEN       LL_AHB2_GRP1_DisableClock\n
 546:Drivers/STM32WBxx_HAL_Driver/Inc/stm32wbxx_ll_bus.h ****   *         AHB2ENR      GPIOBEN       LL_AHB2_GRP1_DisableClock\n
 547:Drivers/STM32WBxx_HAL_Driver/Inc/stm32wbxx_ll_bus.h ****   *         AHB2ENR      GPIOCEN       LL_AHB2_GRP1_DisableClock\n
 548:Drivers/STM32WBxx_HAL_Driver/Inc/stm32wbxx_ll_bus.h ****   *         AHB2ENR      GPIODEN       LL_AHB2_GRP1_DisableClock\n
 549:Drivers/STM32WBxx_HAL_Driver/Inc/stm32wbxx_ll_bus.h ****   *         AHB2ENR      GPIOEEN       LL_AHB2_GRP1_DisableClock\n
 550:Drivers/STM32WBxx_HAL_Driver/Inc/stm32wbxx_ll_bus.h ****   *         AHB2ENR      GPIOHEN       LL_AHB2_GRP1_DisableClock\n
 551:Drivers/STM32WBxx_HAL_Driver/Inc/stm32wbxx_ll_bus.h ****   *         AHB2ENR      ADCEN         LL_AHB2_GRP1_DisableClock\n
 552:Drivers/STM32WBxx_HAL_Driver/Inc/stm32wbxx_ll_bus.h ****   *         AHB2ENR      AES1EN        LL_AHB2_GRP1_DisableClock
 553:Drivers/STM32WBxx_HAL_Driver/Inc/stm32wbxx_ll_bus.h ****   * @param  Periphs This parameter can be a combination of the following values:
 554:Drivers/STM32WBxx_HAL_Driver/Inc/stm32wbxx_ll_bus.h ****   *         @arg @ref LL_AHB2_GRP1_PERIPH_GPIOA
 555:Drivers/STM32WBxx_HAL_Driver/Inc/stm32wbxx_ll_bus.h ****   *         @arg @ref LL_AHB2_GRP1_PERIPH_GPIOB
 556:Drivers/STM32WBxx_HAL_Driver/Inc/stm32wbxx_ll_bus.h ****   *         @arg @ref LL_AHB2_GRP1_PERIPH_GPIOC
 557:Drivers/STM32WBxx_HAL_Driver/Inc/stm32wbxx_ll_bus.h ****   *         @arg @ref LL_AHB2_GRP1_PERIPH_GPIOD
 558:Drivers/STM32WBxx_HAL_Driver/Inc/stm32wbxx_ll_bus.h ****   *         @arg @ref LL_AHB2_GRP1_PERIPH_GPIOE
 559:Drivers/STM32WBxx_HAL_Driver/Inc/stm32wbxx_ll_bus.h ****   *         @arg @ref LL_AHB2_GRP1_PERIPH_GPIOH
 560:Drivers/STM32WBxx_HAL_Driver/Inc/stm32wbxx_ll_bus.h ****   *         @arg @ref LL_AHB2_GRP1_PERIPH_ADC
 561:Drivers/STM32WBxx_HAL_Driver/Inc/stm32wbxx_ll_bus.h ****   *         @arg @ref LL_AHB2_GRP1_PERIPH_AES1
 562:Drivers/STM32WBxx_HAL_Driver/Inc/stm32wbxx_ll_bus.h ****   * @retval None
 563:Drivers/STM32WBxx_HAL_Driver/Inc/stm32wbxx_ll_bus.h **** */
 564:Drivers/STM32WBxx_HAL_Driver/Inc/stm32wbxx_ll_bus.h **** __STATIC_INLINE void LL_AHB2_GRP1_DisableClock(uint32_t Periphs)
 565:Drivers/STM32WBxx_HAL_Driver/Inc/stm32wbxx_ll_bus.h **** {
 566:Drivers/STM32WBxx_HAL_Driver/Inc/stm32wbxx_ll_bus.h ****   CLEAR_BIT(RCC->AHB2ENR, Periphs);
 567:Drivers/STM32WBxx_HAL_Driver/Inc/stm32wbxx_ll_bus.h **** }
 568:Drivers/STM32WBxx_HAL_Driver/Inc/stm32wbxx_ll_bus.h **** 
 569:Drivers/STM32WBxx_HAL_Driver/Inc/stm32wbxx_ll_bus.h **** /**
 570:Drivers/STM32WBxx_HAL_Driver/Inc/stm32wbxx_ll_bus.h ****   * @brief  Force AHB2 peripherals reset.
 571:Drivers/STM32WBxx_HAL_Driver/Inc/stm32wbxx_ll_bus.h ****   * @rmtoll AHB2RSTR     GPIOARST      LL_AHB2_GRP1_ForceReset\n
 572:Drivers/STM32WBxx_HAL_Driver/Inc/stm32wbxx_ll_bus.h ****   *         AHB2RSTR     GPIOBRST      LL_AHB2_GRP1_ForceReset\n
 573:Drivers/STM32WBxx_HAL_Driver/Inc/stm32wbxx_ll_bus.h ****   *         AHB2RSTR     GPIOCRST      LL_AHB2_GRP1_ForceReset\n
 574:Drivers/STM32WBxx_HAL_Driver/Inc/stm32wbxx_ll_bus.h ****   *         AHB2RSTR     GPIODRST      LL_AHB2_GRP1_ForceReset\n
 575:Drivers/STM32WBxx_HAL_Driver/Inc/stm32wbxx_ll_bus.h ****   *         AHB2RSTR     GPIOERST      LL_AHB2_GRP1_ForceReset\n
 576:Drivers/STM32WBxx_HAL_Driver/Inc/stm32wbxx_ll_bus.h ****   *         AHB2RSTR     GPIOHRST      LL_AHB2_GRP1_ForceReset\n
 577:Drivers/STM32WBxx_HAL_Driver/Inc/stm32wbxx_ll_bus.h ****   *         AHB2RSTR     ADCRST        LL_AHB2_GRP1_ForceReset\n
 578:Drivers/STM32WBxx_HAL_Driver/Inc/stm32wbxx_ll_bus.h ****   *         AHB2RSTR     AES1RST       LL_AHB2_GRP1_ForceReset
 579:Drivers/STM32WBxx_HAL_Driver/Inc/stm32wbxx_ll_bus.h ****   * @param  Periphs This parameter can be a combination of the following values:
 580:Drivers/STM32WBxx_HAL_Driver/Inc/stm32wbxx_ll_bus.h ****   *         @arg @ref LL_AHB2_GRP1_PERIPH_ALL
 581:Drivers/STM32WBxx_HAL_Driver/Inc/stm32wbxx_ll_bus.h ****   *         @arg @ref LL_AHB2_GRP1_PERIPH_GPIOA
 582:Drivers/STM32WBxx_HAL_Driver/Inc/stm32wbxx_ll_bus.h ****   *         @arg @ref LL_AHB2_GRP1_PERIPH_GPIOB
 583:Drivers/STM32WBxx_HAL_Driver/Inc/stm32wbxx_ll_bus.h ****   *         @arg @ref LL_AHB2_GRP1_PERIPH_GPIOC
 584:Drivers/STM32WBxx_HAL_Driver/Inc/stm32wbxx_ll_bus.h ****   *         @arg @ref LL_AHB2_GRP1_PERIPH_GPIOD
 585:Drivers/STM32WBxx_HAL_Driver/Inc/stm32wbxx_ll_bus.h ****   *         @arg @ref LL_AHB2_GRP1_PERIPH_GPIOE
 586:Drivers/STM32WBxx_HAL_Driver/Inc/stm32wbxx_ll_bus.h ****   *         @arg @ref LL_AHB2_GRP1_PERIPH_GPIOH
 587:Drivers/STM32WBxx_HAL_Driver/Inc/stm32wbxx_ll_bus.h ****   *         @arg @ref LL_AHB2_GRP1_PERIPH_ADC
 588:Drivers/STM32WBxx_HAL_Driver/Inc/stm32wbxx_ll_bus.h ****   *         @arg @ref LL_AHB2_GRP1_PERIPH_AES1
 589:Drivers/STM32WBxx_HAL_Driver/Inc/stm32wbxx_ll_bus.h ****   * @retval None
 590:Drivers/STM32WBxx_HAL_Driver/Inc/stm32wbxx_ll_bus.h **** */
 591:Drivers/STM32WBxx_HAL_Driver/Inc/stm32wbxx_ll_bus.h **** __STATIC_INLINE void LL_AHB2_GRP1_ForceReset(uint32_t Periphs)
 592:Drivers/STM32WBxx_HAL_Driver/Inc/stm32wbxx_ll_bus.h **** {
 593:Drivers/STM32WBxx_HAL_Driver/Inc/stm32wbxx_ll_bus.h ****   SET_BIT(RCC->AHB2RSTR, Periphs);
 594:Drivers/STM32WBxx_HAL_Driver/Inc/stm32wbxx_ll_bus.h **** }
 595:Drivers/STM32WBxx_HAL_Driver/Inc/stm32wbxx_ll_bus.h **** 
 596:Drivers/STM32WBxx_HAL_Driver/Inc/stm32wbxx_ll_bus.h **** /**
 597:Drivers/STM32WBxx_HAL_Driver/Inc/stm32wbxx_ll_bus.h ****   * @brief  Release AHB2 peripherals reset.
ARM GAS  /tmp/ccFx4qIG.s 			page 17


 598:Drivers/STM32WBxx_HAL_Driver/Inc/stm32wbxx_ll_bus.h ****   * @rmtoll AHB2RSTR     GPIOARST      LL_AHB2_GRP1_ReleaseReset\n
 599:Drivers/STM32WBxx_HAL_Driver/Inc/stm32wbxx_ll_bus.h ****   *         AHB2RSTR     GPIOBRST      LL_AHB2_GRP1_ReleaseReset\n
 600:Drivers/STM32WBxx_HAL_Driver/Inc/stm32wbxx_ll_bus.h ****   *         AHB2RSTR     GPIOCRST      LL_AHB2_GRP1_ReleaseReset\n
 601:Drivers/STM32WBxx_HAL_Driver/Inc/stm32wbxx_ll_bus.h ****   *         AHB2RSTR     GPIODRST      LL_AHB2_GRP1_ReleaseReset\n
 602:Drivers/STM32WBxx_HAL_Driver/Inc/stm32wbxx_ll_bus.h ****   *         AHB2RSTR     GPIOERST      LL_AHB2_GRP1_ReleaseReset\n
 603:Drivers/STM32WBxx_HAL_Driver/Inc/stm32wbxx_ll_bus.h ****   *         AHB2RSTR     GPIOHRST      LL_AHB2_GRP1_ReleaseReset\n
 604:Drivers/STM32WBxx_HAL_Driver/Inc/stm32wbxx_ll_bus.h ****   *         AHB2RSTR     ADCRST        LL_AHB2_GRP1_ReleaseReset\n
 605:Drivers/STM32WBxx_HAL_Driver/Inc/stm32wbxx_ll_bus.h ****   *         AHB2RSTR     AES1RST       LL_AHB2_GRP1_ReleaseReset
 606:Drivers/STM32WBxx_HAL_Driver/Inc/stm32wbxx_ll_bus.h ****   * @param  Periphs This parameter can be a combination of the following values:
 607:Drivers/STM32WBxx_HAL_Driver/Inc/stm32wbxx_ll_bus.h ****   *         @arg @ref LL_AHB2_GRP1_PERIPH_ALL
 608:Drivers/STM32WBxx_HAL_Driver/Inc/stm32wbxx_ll_bus.h ****   *         @arg @ref LL_AHB2_GRP1_PERIPH_GPIOA
 609:Drivers/STM32WBxx_HAL_Driver/Inc/stm32wbxx_ll_bus.h ****   *         @arg @ref LL_AHB2_GRP1_PERIPH_GPIOB
 610:Drivers/STM32WBxx_HAL_Driver/Inc/stm32wbxx_ll_bus.h ****   *         @arg @ref LL_AHB2_GRP1_PERIPH_GPIOC
 611:Drivers/STM32WBxx_HAL_Driver/Inc/stm32wbxx_ll_bus.h ****   *         @arg @ref LL_AHB2_GRP1_PERIPH_GPIOD
 612:Drivers/STM32WBxx_HAL_Driver/Inc/stm32wbxx_ll_bus.h ****   *         @arg @ref LL_AHB2_GRP1_PERIPH_GPIOE
 613:Drivers/STM32WBxx_HAL_Driver/Inc/stm32wbxx_ll_bus.h ****   *         @arg @ref LL_AHB2_GRP1_PERIPH_GPIOH
 614:Drivers/STM32WBxx_HAL_Driver/Inc/stm32wbxx_ll_bus.h ****   *         @arg @ref LL_AHB2_GRP1_PERIPH_ADC
 615:Drivers/STM32WBxx_HAL_Driver/Inc/stm32wbxx_ll_bus.h ****   *         @arg @ref LL_AHB2_GRP1_PERIPH_AES1
 616:Drivers/STM32WBxx_HAL_Driver/Inc/stm32wbxx_ll_bus.h ****   * @retval None
 617:Drivers/STM32WBxx_HAL_Driver/Inc/stm32wbxx_ll_bus.h **** */
 618:Drivers/STM32WBxx_HAL_Driver/Inc/stm32wbxx_ll_bus.h **** __STATIC_INLINE void LL_AHB2_GRP1_ReleaseReset(uint32_t Periphs)
 619:Drivers/STM32WBxx_HAL_Driver/Inc/stm32wbxx_ll_bus.h **** {
 620:Drivers/STM32WBxx_HAL_Driver/Inc/stm32wbxx_ll_bus.h ****   CLEAR_BIT(RCC->AHB2RSTR, Periphs);
 621:Drivers/STM32WBxx_HAL_Driver/Inc/stm32wbxx_ll_bus.h **** }
 622:Drivers/STM32WBxx_HAL_Driver/Inc/stm32wbxx_ll_bus.h **** 
 623:Drivers/STM32WBxx_HAL_Driver/Inc/stm32wbxx_ll_bus.h **** /**
 624:Drivers/STM32WBxx_HAL_Driver/Inc/stm32wbxx_ll_bus.h ****   * @brief  Enable AHB2 peripherals clock during Low Power (Sleep) mode.
 625:Drivers/STM32WBxx_HAL_Driver/Inc/stm32wbxx_ll_bus.h ****   * @rmtoll AHB2SMENR    GPIOASMEN     LL_AHB2_GRP1_EnableClockSleep\n
 626:Drivers/STM32WBxx_HAL_Driver/Inc/stm32wbxx_ll_bus.h ****   *         AHB2SMENR    GPIOBSMEN     LL_AHB2_GRP1_EnableClockSleep\n
 627:Drivers/STM32WBxx_HAL_Driver/Inc/stm32wbxx_ll_bus.h ****   *         AHB2SMENR    GPIOCSMEN     LL_AHB2_GRP1_EnableClockSleep\n
 628:Drivers/STM32WBxx_HAL_Driver/Inc/stm32wbxx_ll_bus.h ****   *         AHB2SMENR    GPIODSMEN     LL_AHB2_GRP1_EnableClockSleep\n
 629:Drivers/STM32WBxx_HAL_Driver/Inc/stm32wbxx_ll_bus.h ****   *         AHB2SMENR    GPIOESMEN     LL_AHB2_GRP1_EnableClockSleep\n
 630:Drivers/STM32WBxx_HAL_Driver/Inc/stm32wbxx_ll_bus.h ****   *         AHB2SMENR    GPIOHSMEN     LL_AHB2_GRP1_EnableClockSleep\n
 631:Drivers/STM32WBxx_HAL_Driver/Inc/stm32wbxx_ll_bus.h ****   *         AHB2SMENR    ADCSMEN       LL_AHB2_GRP1_EnableClockSleep\n
 632:Drivers/STM32WBxx_HAL_Driver/Inc/stm32wbxx_ll_bus.h ****   *         AHB2SMENR    AES1SMEN      LL_AHB2_GRP1_EnableClockSleep
 633:Drivers/STM32WBxx_HAL_Driver/Inc/stm32wbxx_ll_bus.h ****   * @param  Periphs This parameter can be a combination of the following values:
 634:Drivers/STM32WBxx_HAL_Driver/Inc/stm32wbxx_ll_bus.h ****   *         @arg @ref LL_AHB2_GRP1_PERIPH_GPIOA
 635:Drivers/STM32WBxx_HAL_Driver/Inc/stm32wbxx_ll_bus.h ****   *         @arg @ref LL_AHB2_GRP1_PERIPH_GPIOB
 636:Drivers/STM32WBxx_HAL_Driver/Inc/stm32wbxx_ll_bus.h ****   *         @arg @ref LL_AHB2_GRP1_PERIPH_GPIOC
 637:Drivers/STM32WBxx_HAL_Driver/Inc/stm32wbxx_ll_bus.h ****   *         @arg @ref LL_AHB2_GRP1_PERIPH_GPIOD
 638:Drivers/STM32WBxx_HAL_Driver/Inc/stm32wbxx_ll_bus.h ****   *         @arg @ref LL_AHB2_GRP1_PERIPH_GPIOE
 639:Drivers/STM32WBxx_HAL_Driver/Inc/stm32wbxx_ll_bus.h ****   *         @arg @ref LL_AHB2_GRP1_PERIPH_GPIOH
 640:Drivers/STM32WBxx_HAL_Driver/Inc/stm32wbxx_ll_bus.h ****   *         @arg @ref LL_AHB2_GRP1_PERIPH_ADC
 641:Drivers/STM32WBxx_HAL_Driver/Inc/stm32wbxx_ll_bus.h ****   *         @arg @ref LL_AHB2_GRP1_PERIPH_AES1
 642:Drivers/STM32WBxx_HAL_Driver/Inc/stm32wbxx_ll_bus.h ****   * @retval None
 643:Drivers/STM32WBxx_HAL_Driver/Inc/stm32wbxx_ll_bus.h **** */
 644:Drivers/STM32WBxx_HAL_Driver/Inc/stm32wbxx_ll_bus.h **** __STATIC_INLINE void LL_AHB2_GRP1_EnableClockSleep(uint32_t Periphs)
 645:Drivers/STM32WBxx_HAL_Driver/Inc/stm32wbxx_ll_bus.h **** {
 646:Drivers/STM32WBxx_HAL_Driver/Inc/stm32wbxx_ll_bus.h ****   __IO uint32_t tmpreg;
 647:Drivers/STM32WBxx_HAL_Driver/Inc/stm32wbxx_ll_bus.h ****   SET_BIT(RCC->AHB2SMENR, Periphs);
 648:Drivers/STM32WBxx_HAL_Driver/Inc/stm32wbxx_ll_bus.h ****   /* Delay after an RCC peripheral clock enabling */
 649:Drivers/STM32WBxx_HAL_Driver/Inc/stm32wbxx_ll_bus.h ****   tmpreg = READ_BIT(RCC->AHB2SMENR, Periphs);
 650:Drivers/STM32WBxx_HAL_Driver/Inc/stm32wbxx_ll_bus.h ****   (void)tmpreg;
 651:Drivers/STM32WBxx_HAL_Driver/Inc/stm32wbxx_ll_bus.h **** }
 652:Drivers/STM32WBxx_HAL_Driver/Inc/stm32wbxx_ll_bus.h **** 
 653:Drivers/STM32WBxx_HAL_Driver/Inc/stm32wbxx_ll_bus.h **** /**
 654:Drivers/STM32WBxx_HAL_Driver/Inc/stm32wbxx_ll_bus.h ****   * @brief  Disable AHB2 peripherals clock during Low Power (Sleep) mode.
ARM GAS  /tmp/ccFx4qIG.s 			page 18


 655:Drivers/STM32WBxx_HAL_Driver/Inc/stm32wbxx_ll_bus.h ****   * @rmtoll AHB2SMENR    GPIOASMEN     LL_AHB2_GRP1_DisableClockSleep\n
 656:Drivers/STM32WBxx_HAL_Driver/Inc/stm32wbxx_ll_bus.h ****   *         AHB2SMENR    GPIOBSMEN     LL_AHB2_GRP1_DisableClockSleep\n
 657:Drivers/STM32WBxx_HAL_Driver/Inc/stm32wbxx_ll_bus.h ****   *         AHB2SMENR    GPIOCSMEN     LL_AHB2_GRP1_DisableClockSleep\n
 658:Drivers/STM32WBxx_HAL_Driver/Inc/stm32wbxx_ll_bus.h ****   *         AHB2SMENR    GPIODSMEN     LL_AHB2_GRP1_DisableClockSleep\n
 659:Drivers/STM32WBxx_HAL_Driver/Inc/stm32wbxx_ll_bus.h ****   *         AHB2SMENR    GPIOESMEN     LL_AHB2_GRP1_DisableClockSleep\n
 660:Drivers/STM32WBxx_HAL_Driver/Inc/stm32wbxx_ll_bus.h ****   *         AHB2SMENR    GPIOHSMEN     LL_AHB2_GRP1_DisableClockSleep\n
 661:Drivers/STM32WBxx_HAL_Driver/Inc/stm32wbxx_ll_bus.h ****   *         AHB2SMENR    ADCSMEN       LL_AHB2_GRP1_DisableClockSleep\n
 662:Drivers/STM32WBxx_HAL_Driver/Inc/stm32wbxx_ll_bus.h ****   *         AHB2SMENR    AES1SMEN      LL_AHB2_GRP1_DisableClockSleep
 663:Drivers/STM32WBxx_HAL_Driver/Inc/stm32wbxx_ll_bus.h ****   * @param  Periphs This parameter can be a combination of the following values:
 664:Drivers/STM32WBxx_HAL_Driver/Inc/stm32wbxx_ll_bus.h ****   *         @arg @ref LL_AHB2_GRP1_PERIPH_GPIOA
 665:Drivers/STM32WBxx_HAL_Driver/Inc/stm32wbxx_ll_bus.h ****   *         @arg @ref LL_AHB2_GRP1_PERIPH_GPIOB
 666:Drivers/STM32WBxx_HAL_Driver/Inc/stm32wbxx_ll_bus.h ****   *         @arg @ref LL_AHB2_GRP1_PERIPH_GPIOC
 667:Drivers/STM32WBxx_HAL_Driver/Inc/stm32wbxx_ll_bus.h ****   *         @arg @ref LL_AHB2_GRP1_PERIPH_GPIOD
 668:Drivers/STM32WBxx_HAL_Driver/Inc/stm32wbxx_ll_bus.h ****   *         @arg @ref LL_AHB2_GRP1_PERIPH_GPIOE
 669:Drivers/STM32WBxx_HAL_Driver/Inc/stm32wbxx_ll_bus.h ****   *         @arg @ref LL_AHB2_GRP1_PERIPH_GPIOH
 670:Drivers/STM32WBxx_HAL_Driver/Inc/stm32wbxx_ll_bus.h ****   *         @arg @ref LL_AHB2_GRP1_PERIPH_ADC
 671:Drivers/STM32WBxx_HAL_Driver/Inc/stm32wbxx_ll_bus.h ****   *         @arg @ref LL_AHB2_GRP1_PERIPH_AES1
 672:Drivers/STM32WBxx_HAL_Driver/Inc/stm32wbxx_ll_bus.h ****   * @retval None
 673:Drivers/STM32WBxx_HAL_Driver/Inc/stm32wbxx_ll_bus.h **** */
 674:Drivers/STM32WBxx_HAL_Driver/Inc/stm32wbxx_ll_bus.h **** __STATIC_INLINE void LL_AHB2_GRP1_DisableClockSleep(uint32_t Periphs)
 675:Drivers/STM32WBxx_HAL_Driver/Inc/stm32wbxx_ll_bus.h **** {
 676:Drivers/STM32WBxx_HAL_Driver/Inc/stm32wbxx_ll_bus.h ****   CLEAR_BIT(RCC->AHB2SMENR, Periphs);
 677:Drivers/STM32WBxx_HAL_Driver/Inc/stm32wbxx_ll_bus.h **** }
 678:Drivers/STM32WBxx_HAL_Driver/Inc/stm32wbxx_ll_bus.h **** 
 679:Drivers/STM32WBxx_HAL_Driver/Inc/stm32wbxx_ll_bus.h **** /**
 680:Drivers/STM32WBxx_HAL_Driver/Inc/stm32wbxx_ll_bus.h ****   * @}
 681:Drivers/STM32WBxx_HAL_Driver/Inc/stm32wbxx_ll_bus.h ****   */
 682:Drivers/STM32WBxx_HAL_Driver/Inc/stm32wbxx_ll_bus.h **** 
 683:Drivers/STM32WBxx_HAL_Driver/Inc/stm32wbxx_ll_bus.h **** /** @defgroup BUS_LL_EF_AHB3 AHB3
 684:Drivers/STM32WBxx_HAL_Driver/Inc/stm32wbxx_ll_bus.h ****   * @{
 685:Drivers/STM32WBxx_HAL_Driver/Inc/stm32wbxx_ll_bus.h ****   */
 686:Drivers/STM32WBxx_HAL_Driver/Inc/stm32wbxx_ll_bus.h **** 
 687:Drivers/STM32WBxx_HAL_Driver/Inc/stm32wbxx_ll_bus.h **** /**
 688:Drivers/STM32WBxx_HAL_Driver/Inc/stm32wbxx_ll_bus.h ****   * @brief  Enable AHB3 peripherals clock.
 689:Drivers/STM32WBxx_HAL_Driver/Inc/stm32wbxx_ll_bus.h ****   * @rmtoll AHB3ENR      QUADSPIEN     LL_AHB3_GRP1_EnableClock\n
 690:Drivers/STM32WBxx_HAL_Driver/Inc/stm32wbxx_ll_bus.h ****   *         AHB3ENR      PKAEN         LL_AHB3_GRP1_EnableClock\n
 691:Drivers/STM32WBxx_HAL_Driver/Inc/stm32wbxx_ll_bus.h ****   *         AHB3ENR      AES2EN        LL_AHB3_GRP1_EnableClock\n
 692:Drivers/STM32WBxx_HAL_Driver/Inc/stm32wbxx_ll_bus.h ****   *         AHB3ENR      RNGEN         LL_AHB3_GRP1_EnableClock\n
 693:Drivers/STM32WBxx_HAL_Driver/Inc/stm32wbxx_ll_bus.h ****   *         AHB3ENR      HSEMEN        LL_AHB3_GRP1_EnableClock\n
 694:Drivers/STM32WBxx_HAL_Driver/Inc/stm32wbxx_ll_bus.h ****   *         AHB3ENR      IPCCEN        LL_AHB3_GRP1_EnableClock\n
 695:Drivers/STM32WBxx_HAL_Driver/Inc/stm32wbxx_ll_bus.h ****   *         AHB3ENR      FLASHEN       LL_AHB3_GRP1_EnableClock
 696:Drivers/STM32WBxx_HAL_Driver/Inc/stm32wbxx_ll_bus.h ****   * @param  Periphs This parameter can be a combination of the following values:
 697:Drivers/STM32WBxx_HAL_Driver/Inc/stm32wbxx_ll_bus.h ****   *         @arg @ref LL_AHB3_GRP1_PERIPH_QUADSPI
 698:Drivers/STM32WBxx_HAL_Driver/Inc/stm32wbxx_ll_bus.h ****   *         @arg @ref LL_AHB3_GRP1_PERIPH_PKA
 699:Drivers/STM32WBxx_HAL_Driver/Inc/stm32wbxx_ll_bus.h ****   *         @arg @ref LL_AHB3_GRP1_PERIPH_AES2
 700:Drivers/STM32WBxx_HAL_Driver/Inc/stm32wbxx_ll_bus.h ****   *         @arg @ref LL_AHB3_GRP1_PERIPH_RNG
 701:Drivers/STM32WBxx_HAL_Driver/Inc/stm32wbxx_ll_bus.h ****   *         @arg @ref LL_AHB3_GRP1_PERIPH_HSEM
 702:Drivers/STM32WBxx_HAL_Driver/Inc/stm32wbxx_ll_bus.h ****   *         @arg @ref LL_AHB3_GRP1_PERIPH_IPCC
 703:Drivers/STM32WBxx_HAL_Driver/Inc/stm32wbxx_ll_bus.h ****   *         @arg @ref LL_AHB3_GRP1_PERIPH_FLASH
 704:Drivers/STM32WBxx_HAL_Driver/Inc/stm32wbxx_ll_bus.h ****   * @retval None
 705:Drivers/STM32WBxx_HAL_Driver/Inc/stm32wbxx_ll_bus.h **** */
 706:Drivers/STM32WBxx_HAL_Driver/Inc/stm32wbxx_ll_bus.h **** __STATIC_INLINE void LL_AHB3_GRP1_EnableClock(uint32_t Periphs)
 707:Drivers/STM32WBxx_HAL_Driver/Inc/stm32wbxx_ll_bus.h **** {
 708:Drivers/STM32WBxx_HAL_Driver/Inc/stm32wbxx_ll_bus.h ****   __IO uint32_t tmpreg;
 709:Drivers/STM32WBxx_HAL_Driver/Inc/stm32wbxx_ll_bus.h ****   SET_BIT(RCC->AHB3ENR, Periphs);
 710:Drivers/STM32WBxx_HAL_Driver/Inc/stm32wbxx_ll_bus.h ****   /* Delay after an RCC peripheral clock enabling */
 711:Drivers/STM32WBxx_HAL_Driver/Inc/stm32wbxx_ll_bus.h ****   tmpreg = READ_BIT(RCC->AHB3ENR, Periphs);
ARM GAS  /tmp/ccFx4qIG.s 			page 19


 712:Drivers/STM32WBxx_HAL_Driver/Inc/stm32wbxx_ll_bus.h ****   (void)tmpreg;
 713:Drivers/STM32WBxx_HAL_Driver/Inc/stm32wbxx_ll_bus.h **** }
 714:Drivers/STM32WBxx_HAL_Driver/Inc/stm32wbxx_ll_bus.h **** 
 715:Drivers/STM32WBxx_HAL_Driver/Inc/stm32wbxx_ll_bus.h **** /**
 716:Drivers/STM32WBxx_HAL_Driver/Inc/stm32wbxx_ll_bus.h ****   * @brief  Check if AHB3 peripheral clock is enabled or not
 717:Drivers/STM32WBxx_HAL_Driver/Inc/stm32wbxx_ll_bus.h ****   * @rmtoll AHB3ENR      QUADSPIEN     LL_AHB3_GRP1_IsEnabledClock\n
 718:Drivers/STM32WBxx_HAL_Driver/Inc/stm32wbxx_ll_bus.h ****   *         AHB3ENR      PKAEN         LL_AHB3_GRP1_IsEnabledClock\n
 719:Drivers/STM32WBxx_HAL_Driver/Inc/stm32wbxx_ll_bus.h ****   *         AHB3ENR      AES2EN        LL_AHB3_GRP1_IsEnabledClock\n
 720:Drivers/STM32WBxx_HAL_Driver/Inc/stm32wbxx_ll_bus.h ****   *         AHB3ENR      RNGEN         LL_AHB3_GRP1_IsEnabledClock\n
 721:Drivers/STM32WBxx_HAL_Driver/Inc/stm32wbxx_ll_bus.h ****   *         AHB3ENR      HSEMEN        LL_AHB3_GRP1_IsEnabledClock\n
 722:Drivers/STM32WBxx_HAL_Driver/Inc/stm32wbxx_ll_bus.h ****   *         AHB3ENR      IPCCEN        LL_AHB3_GRP1_IsEnabledClock\n
 723:Drivers/STM32WBxx_HAL_Driver/Inc/stm32wbxx_ll_bus.h ****   *         AHB3ENR      FLASHEN       LL_AHB3_GRP1_IsEnabledClock
 724:Drivers/STM32WBxx_HAL_Driver/Inc/stm32wbxx_ll_bus.h ****   * @param  Periphs This parameter can be a combination of the following values:
 725:Drivers/STM32WBxx_HAL_Driver/Inc/stm32wbxx_ll_bus.h ****   *         @arg @ref LL_AHB3_GRP1_PERIPH_QUADSPI
 726:Drivers/STM32WBxx_HAL_Driver/Inc/stm32wbxx_ll_bus.h ****   *         @arg @ref LL_AHB3_GRP1_PERIPH_PKA
 727:Drivers/STM32WBxx_HAL_Driver/Inc/stm32wbxx_ll_bus.h ****   *         @arg @ref LL_AHB3_GRP1_PERIPH_AES2
 728:Drivers/STM32WBxx_HAL_Driver/Inc/stm32wbxx_ll_bus.h ****   *         @arg @ref LL_AHB3_GRP1_PERIPH_RNG
 729:Drivers/STM32WBxx_HAL_Driver/Inc/stm32wbxx_ll_bus.h ****   *         @arg @ref LL_AHB3_GRP1_PERIPH_HSEM
 730:Drivers/STM32WBxx_HAL_Driver/Inc/stm32wbxx_ll_bus.h ****   *         @arg @ref LL_AHB3_GRP1_PERIPH_IPCC
 731:Drivers/STM32WBxx_HAL_Driver/Inc/stm32wbxx_ll_bus.h ****   *         @arg @ref LL_AHB3_GRP1_PERIPH_FLASH
 732:Drivers/STM32WBxx_HAL_Driver/Inc/stm32wbxx_ll_bus.h ****   * @retval uint32_t
 733:Drivers/STM32WBxx_HAL_Driver/Inc/stm32wbxx_ll_bus.h **** */
 734:Drivers/STM32WBxx_HAL_Driver/Inc/stm32wbxx_ll_bus.h **** __STATIC_INLINE uint32_t LL_AHB3_GRP1_IsEnabledClock(uint32_t Periphs)
 735:Drivers/STM32WBxx_HAL_Driver/Inc/stm32wbxx_ll_bus.h **** {
 736:Drivers/STM32WBxx_HAL_Driver/Inc/stm32wbxx_ll_bus.h ****   return ((READ_BIT(RCC->AHB3ENR, Periphs) == (Periphs)) ? 1UL : 0UL);
 737:Drivers/STM32WBxx_HAL_Driver/Inc/stm32wbxx_ll_bus.h **** }
 738:Drivers/STM32WBxx_HAL_Driver/Inc/stm32wbxx_ll_bus.h **** 
 739:Drivers/STM32WBxx_HAL_Driver/Inc/stm32wbxx_ll_bus.h **** /**
 740:Drivers/STM32WBxx_HAL_Driver/Inc/stm32wbxx_ll_bus.h ****   * @brief  Disable AHB3 peripherals clock.
 741:Drivers/STM32WBxx_HAL_Driver/Inc/stm32wbxx_ll_bus.h ****   * @rmtoll AHB3ENR      QUADSPIEN     LL_AHB3_GRP1_DisableClock\n
 742:Drivers/STM32WBxx_HAL_Driver/Inc/stm32wbxx_ll_bus.h ****   *         AHB3ENR      PKAEN         LL_AHB3_GRP1_DisableClock\n
 743:Drivers/STM32WBxx_HAL_Driver/Inc/stm32wbxx_ll_bus.h ****   *         AHB3ENR      AES2EN        LL_AHB3_GRP1_DisableClock\n
 744:Drivers/STM32WBxx_HAL_Driver/Inc/stm32wbxx_ll_bus.h ****   *         AHB3ENR      RNGEN         LL_AHB3_GRP1_DisableClock\n
 745:Drivers/STM32WBxx_HAL_Driver/Inc/stm32wbxx_ll_bus.h ****   *         AHB3ENR      HSEMEN        LL_AHB3_GRP1_DisableClock\n
 746:Drivers/STM32WBxx_HAL_Driver/Inc/stm32wbxx_ll_bus.h ****   *         AHB3ENR      IPCCEN        LL_AHB3_GRP1_DisableClock\n
 747:Drivers/STM32WBxx_HAL_Driver/Inc/stm32wbxx_ll_bus.h ****   *         AHB3ENR      FLASHEN       LL_AHB3_GRP1_DisableClock
 748:Drivers/STM32WBxx_HAL_Driver/Inc/stm32wbxx_ll_bus.h ****   * @param  Periphs This parameter can be a combination of the following values:
 749:Drivers/STM32WBxx_HAL_Driver/Inc/stm32wbxx_ll_bus.h ****   *         @arg @ref LL_AHB3_GRP1_PERIPH_QUADSPI
 750:Drivers/STM32WBxx_HAL_Driver/Inc/stm32wbxx_ll_bus.h ****   *         @arg @ref LL_AHB3_GRP1_PERIPH_PKA
 751:Drivers/STM32WBxx_HAL_Driver/Inc/stm32wbxx_ll_bus.h ****   *         @arg @ref LL_AHB3_GRP1_PERIPH_AES2
 752:Drivers/STM32WBxx_HAL_Driver/Inc/stm32wbxx_ll_bus.h ****   *         @arg @ref LL_AHB3_GRP1_PERIPH_RNG
 753:Drivers/STM32WBxx_HAL_Driver/Inc/stm32wbxx_ll_bus.h ****   *         @arg @ref LL_AHB3_GRP1_PERIPH_HSEM
 754:Drivers/STM32WBxx_HAL_Driver/Inc/stm32wbxx_ll_bus.h ****   *         @arg @ref LL_AHB3_GRP1_PERIPH_IPCC
 755:Drivers/STM32WBxx_HAL_Driver/Inc/stm32wbxx_ll_bus.h ****   *         @arg @ref LL_AHB3_GRP1_PERIPH_FLASH
 756:Drivers/STM32WBxx_HAL_Driver/Inc/stm32wbxx_ll_bus.h ****   * @retval None
 757:Drivers/STM32WBxx_HAL_Driver/Inc/stm32wbxx_ll_bus.h **** */
 758:Drivers/STM32WBxx_HAL_Driver/Inc/stm32wbxx_ll_bus.h **** __STATIC_INLINE void LL_AHB3_GRP1_DisableClock(uint32_t Periphs)
 759:Drivers/STM32WBxx_HAL_Driver/Inc/stm32wbxx_ll_bus.h **** {
 760:Drivers/STM32WBxx_HAL_Driver/Inc/stm32wbxx_ll_bus.h ****   CLEAR_BIT(RCC->AHB3ENR, Periphs);
 761:Drivers/STM32WBxx_HAL_Driver/Inc/stm32wbxx_ll_bus.h **** }
 762:Drivers/STM32WBxx_HAL_Driver/Inc/stm32wbxx_ll_bus.h **** 
 763:Drivers/STM32WBxx_HAL_Driver/Inc/stm32wbxx_ll_bus.h **** /**
 764:Drivers/STM32WBxx_HAL_Driver/Inc/stm32wbxx_ll_bus.h ****   * @brief  Force AHB3 peripherals reset.
 765:Drivers/STM32WBxx_HAL_Driver/Inc/stm32wbxx_ll_bus.h ****   * @rmtoll AHB3RSTR     QUADSPIRST       LL_AHB3_GRP1_ForceReset\n
 766:Drivers/STM32WBxx_HAL_Driver/Inc/stm32wbxx_ll_bus.h ****   *         AHB3RSTR     PKARST        LL_AHB3_GRP1_ForceReset\n
 767:Drivers/STM32WBxx_HAL_Driver/Inc/stm32wbxx_ll_bus.h ****   *         AHB3RSTR     AES2RST       LL_AHB3_GRP1_ForceReset\n
 768:Drivers/STM32WBxx_HAL_Driver/Inc/stm32wbxx_ll_bus.h ****   *         AHB3RSTR     RNGRST        LL_AHB3_GRP1_ForceReset\n
ARM GAS  /tmp/ccFx4qIG.s 			page 20


 769:Drivers/STM32WBxx_HAL_Driver/Inc/stm32wbxx_ll_bus.h ****   *         AHB3RSTR     HSEMRST       LL_AHB3_GRP1_ForceReset\n
 770:Drivers/STM32WBxx_HAL_Driver/Inc/stm32wbxx_ll_bus.h ****   *         AHB3RSTR     IPCCRST       LL_AHB3_GRP1_ForceReset\n
 771:Drivers/STM32WBxx_HAL_Driver/Inc/stm32wbxx_ll_bus.h ****   *         AHB3RSTR     FLASHRST      LL_AHB3_GRP1_ForceReset
 772:Drivers/STM32WBxx_HAL_Driver/Inc/stm32wbxx_ll_bus.h ****   * @param  Periphs This parameter can be a combination of the following values:
 773:Drivers/STM32WBxx_HAL_Driver/Inc/stm32wbxx_ll_bus.h ****   *         @arg @ref LL_AHB3_GRP1_PERIPH_ALL
 774:Drivers/STM32WBxx_HAL_Driver/Inc/stm32wbxx_ll_bus.h ****   *         @arg @ref LL_AHB3_GRP1_PERIPH_QUADSPI
 775:Drivers/STM32WBxx_HAL_Driver/Inc/stm32wbxx_ll_bus.h ****   *         @arg @ref LL_AHB3_GRP1_PERIPH_PKA
 776:Drivers/STM32WBxx_HAL_Driver/Inc/stm32wbxx_ll_bus.h ****   *         @arg @ref LL_AHB3_GRP1_PERIPH_AES2
 777:Drivers/STM32WBxx_HAL_Driver/Inc/stm32wbxx_ll_bus.h ****   *         @arg @ref LL_AHB3_GRP1_PERIPH_RNG
 778:Drivers/STM32WBxx_HAL_Driver/Inc/stm32wbxx_ll_bus.h ****   *         @arg @ref LL_AHB3_GRP1_PERIPH_HSEM
 779:Drivers/STM32WBxx_HAL_Driver/Inc/stm32wbxx_ll_bus.h ****   *         @arg @ref LL_AHB3_GRP1_PERIPH_IPCC
 780:Drivers/STM32WBxx_HAL_Driver/Inc/stm32wbxx_ll_bus.h ****   *         @arg @ref LL_AHB3_GRP1_PERIPH_FLASH
 781:Drivers/STM32WBxx_HAL_Driver/Inc/stm32wbxx_ll_bus.h ****   * @retval None
 782:Drivers/STM32WBxx_HAL_Driver/Inc/stm32wbxx_ll_bus.h **** */
 783:Drivers/STM32WBxx_HAL_Driver/Inc/stm32wbxx_ll_bus.h **** __STATIC_INLINE void LL_AHB3_GRP1_ForceReset(uint32_t Periphs)
 784:Drivers/STM32WBxx_HAL_Driver/Inc/stm32wbxx_ll_bus.h **** {
 785:Drivers/STM32WBxx_HAL_Driver/Inc/stm32wbxx_ll_bus.h ****   SET_BIT(RCC->AHB3RSTR, Periphs);
 786:Drivers/STM32WBxx_HAL_Driver/Inc/stm32wbxx_ll_bus.h **** }
 787:Drivers/STM32WBxx_HAL_Driver/Inc/stm32wbxx_ll_bus.h **** 
 788:Drivers/STM32WBxx_HAL_Driver/Inc/stm32wbxx_ll_bus.h **** /**
 789:Drivers/STM32WBxx_HAL_Driver/Inc/stm32wbxx_ll_bus.h ****   * @brief  Release AHB3 peripherals reset.
 790:Drivers/STM32WBxx_HAL_Driver/Inc/stm32wbxx_ll_bus.h ****   * @rmtoll AHB3RSTR     QUADSPIRST    LL_AHB3_GRP1_ReleaseReset\n
 791:Drivers/STM32WBxx_HAL_Driver/Inc/stm32wbxx_ll_bus.h ****   *         AHB3RSTR     PKARST        LL_AHB3_GRP1_ReleaseReset\n
 792:Drivers/STM32WBxx_HAL_Driver/Inc/stm32wbxx_ll_bus.h ****   *         AHB3RSTR     AES2RST       LL_AHB3_GRP1_ReleaseReset\n
 793:Drivers/STM32WBxx_HAL_Driver/Inc/stm32wbxx_ll_bus.h ****   *         AHB3RSTR     RNGRST        LL_AHB3_GRP1_ReleaseReset\n
 794:Drivers/STM32WBxx_HAL_Driver/Inc/stm32wbxx_ll_bus.h ****   *         AHB3RSTR     HSEMRST       LL_AHB3_GRP1_ReleaseReset\n
 795:Drivers/STM32WBxx_HAL_Driver/Inc/stm32wbxx_ll_bus.h ****   *         AHB3RSTR     IPCCRST       LL_AHB3_GRP1_ReleaseReset\n
 796:Drivers/STM32WBxx_HAL_Driver/Inc/stm32wbxx_ll_bus.h ****   *         AHB3RSTR     FLASHRST      LL_AHB3_GRP1_ReleaseReset
 797:Drivers/STM32WBxx_HAL_Driver/Inc/stm32wbxx_ll_bus.h ****   * @param  Periphs This parameter can be a combination of the following values:
 798:Drivers/STM32WBxx_HAL_Driver/Inc/stm32wbxx_ll_bus.h ****   *         @arg @ref LL_AHB2_GRP1_PERIPH_ALL
 799:Drivers/STM32WBxx_HAL_Driver/Inc/stm32wbxx_ll_bus.h ****   *         @arg @ref LL_AHB3_GRP1_PERIPH_QUADSPI
 800:Drivers/STM32WBxx_HAL_Driver/Inc/stm32wbxx_ll_bus.h ****   *         @arg @ref LL_AHB3_GRP1_PERIPH_PKA
 801:Drivers/STM32WBxx_HAL_Driver/Inc/stm32wbxx_ll_bus.h ****   *         @arg @ref LL_AHB3_GRP1_PERIPH_AES2
 802:Drivers/STM32WBxx_HAL_Driver/Inc/stm32wbxx_ll_bus.h ****   *         @arg @ref LL_AHB3_GRP1_PERIPH_RNG
 803:Drivers/STM32WBxx_HAL_Driver/Inc/stm32wbxx_ll_bus.h ****   *         @arg @ref LL_AHB3_GRP1_PERIPH_HSEM
 804:Drivers/STM32WBxx_HAL_Driver/Inc/stm32wbxx_ll_bus.h ****   *         @arg @ref LL_AHB3_GRP1_PERIPH_IPCC
 805:Drivers/STM32WBxx_HAL_Driver/Inc/stm32wbxx_ll_bus.h ****   *         @arg @ref LL_AHB3_GRP1_PERIPH_FLASH
 806:Drivers/STM32WBxx_HAL_Driver/Inc/stm32wbxx_ll_bus.h ****   * @retval None
 807:Drivers/STM32WBxx_HAL_Driver/Inc/stm32wbxx_ll_bus.h **** */
 808:Drivers/STM32WBxx_HAL_Driver/Inc/stm32wbxx_ll_bus.h **** __STATIC_INLINE void LL_AHB3_GRP1_ReleaseReset(uint32_t Periphs)
 809:Drivers/STM32WBxx_HAL_Driver/Inc/stm32wbxx_ll_bus.h **** {
 810:Drivers/STM32WBxx_HAL_Driver/Inc/stm32wbxx_ll_bus.h ****   CLEAR_BIT(RCC->AHB3RSTR, Periphs);
 811:Drivers/STM32WBxx_HAL_Driver/Inc/stm32wbxx_ll_bus.h **** }
 812:Drivers/STM32WBxx_HAL_Driver/Inc/stm32wbxx_ll_bus.h **** 
 813:Drivers/STM32WBxx_HAL_Driver/Inc/stm32wbxx_ll_bus.h **** /**
 814:Drivers/STM32WBxx_HAL_Driver/Inc/stm32wbxx_ll_bus.h ****   * @brief  Enable AHB3 peripherals clock during Low Power (Sleep) mode.
 815:Drivers/STM32WBxx_HAL_Driver/Inc/stm32wbxx_ll_bus.h ****   * @rmtoll AHB3SMENR    QUADSPISMEN   LL_AHB3_GRP1_EnableClockSleep\n
 816:Drivers/STM32WBxx_HAL_Driver/Inc/stm32wbxx_ll_bus.h ****   *         AHB3SMENR    PKASMEN       LL_AHB3_GRP1_EnableClockSleep\n
 817:Drivers/STM32WBxx_HAL_Driver/Inc/stm32wbxx_ll_bus.h ****   *         AHB3SMENR    AES2SMEN      LL_AHB3_GRP1_EnableClockSleep\n
 818:Drivers/STM32WBxx_HAL_Driver/Inc/stm32wbxx_ll_bus.h ****   *         AHB3SMENR    RNGSMEN       LL_AHB3_GRP1_EnableClockSleep\n
 819:Drivers/STM32WBxx_HAL_Driver/Inc/stm32wbxx_ll_bus.h ****   *         AHB3SMENR    SRAM2SMEN     LL_AHB3_GRP1_EnableClockSleep\n
 820:Drivers/STM32WBxx_HAL_Driver/Inc/stm32wbxx_ll_bus.h ****   *         AHB3SMENR    FLASHSMEN     LL_AHB3_GRP1_EnableClockSleep
 821:Drivers/STM32WBxx_HAL_Driver/Inc/stm32wbxx_ll_bus.h ****   * @param  Periphs This parameter can be a combination of the following values:
 822:Drivers/STM32WBxx_HAL_Driver/Inc/stm32wbxx_ll_bus.h ****   *         @arg @ref LL_AHB3_GRP1_PERIPH_QUADSPI
 823:Drivers/STM32WBxx_HAL_Driver/Inc/stm32wbxx_ll_bus.h ****   *         @arg @ref LL_AHB3_GRP1_PERIPH_PKA
 824:Drivers/STM32WBxx_HAL_Driver/Inc/stm32wbxx_ll_bus.h ****   *         @arg @ref LL_AHB3_GRP1_PERIPH_AES2
 825:Drivers/STM32WBxx_HAL_Driver/Inc/stm32wbxx_ll_bus.h ****   *         @arg @ref LL_AHB3_GRP1_PERIPH_RNG
ARM GAS  /tmp/ccFx4qIG.s 			page 21


 826:Drivers/STM32WBxx_HAL_Driver/Inc/stm32wbxx_ll_bus.h ****   *         @arg @ref LL_AHB3_GRP1_PERIPH_SRAM2
 827:Drivers/STM32WBxx_HAL_Driver/Inc/stm32wbxx_ll_bus.h ****   *         @arg @ref LL_AHB3_GRP1_PERIPH_FLASH
 828:Drivers/STM32WBxx_HAL_Driver/Inc/stm32wbxx_ll_bus.h ****   * @retval None
 829:Drivers/STM32WBxx_HAL_Driver/Inc/stm32wbxx_ll_bus.h **** */
 830:Drivers/STM32WBxx_HAL_Driver/Inc/stm32wbxx_ll_bus.h **** __STATIC_INLINE void LL_AHB3_GRP1_EnableClockSleep(uint32_t Periphs)
 831:Drivers/STM32WBxx_HAL_Driver/Inc/stm32wbxx_ll_bus.h **** {
 832:Drivers/STM32WBxx_HAL_Driver/Inc/stm32wbxx_ll_bus.h ****   __IO uint32_t tmpreg;
 833:Drivers/STM32WBxx_HAL_Driver/Inc/stm32wbxx_ll_bus.h ****   SET_BIT(RCC->AHB3SMENR, Periphs);
 834:Drivers/STM32WBxx_HAL_Driver/Inc/stm32wbxx_ll_bus.h ****   /* Delay after an RCC peripheral clock enabling */
 835:Drivers/STM32WBxx_HAL_Driver/Inc/stm32wbxx_ll_bus.h ****   tmpreg = READ_BIT(RCC->AHB3SMENR, Periphs);
 836:Drivers/STM32WBxx_HAL_Driver/Inc/stm32wbxx_ll_bus.h ****   (void)tmpreg;
 837:Drivers/STM32WBxx_HAL_Driver/Inc/stm32wbxx_ll_bus.h **** }
 838:Drivers/STM32WBxx_HAL_Driver/Inc/stm32wbxx_ll_bus.h **** 
 839:Drivers/STM32WBxx_HAL_Driver/Inc/stm32wbxx_ll_bus.h **** /**
 840:Drivers/STM32WBxx_HAL_Driver/Inc/stm32wbxx_ll_bus.h ****   * @brief  Disable AHB3 peripherals clock during Low Power (Sleep) mode.
 841:Drivers/STM32WBxx_HAL_Driver/Inc/stm32wbxx_ll_bus.h ****   * @rmtoll AHB3SMENR    QUADSPISMEN   LL_AHB3_GRP1_DisableClockSleep\n
 842:Drivers/STM32WBxx_HAL_Driver/Inc/stm32wbxx_ll_bus.h ****   *         AHB3SMENR    PKASMEN       LL_AHB3_GRP1_DisableClockSleep\n
 843:Drivers/STM32WBxx_HAL_Driver/Inc/stm32wbxx_ll_bus.h ****   *         AHB3SMENR    AES2SMEN      LL_AHB3_GRP1_DisableClockSleep\n
 844:Drivers/STM32WBxx_HAL_Driver/Inc/stm32wbxx_ll_bus.h ****   *         AHB3SMENR    RNGSMEN       LL_AHB3_GRP1_DisableClockSleep\n
 845:Drivers/STM32WBxx_HAL_Driver/Inc/stm32wbxx_ll_bus.h ****   *         AHB3SMENR    SRAM2SMEN     LL_AHB3_GRP1_DisableClockSleep\n
 846:Drivers/STM32WBxx_HAL_Driver/Inc/stm32wbxx_ll_bus.h ****   *         AHB3SMENR    FLASHSMEN     LL_AHB3_GRP1_DisableClockSleep
 847:Drivers/STM32WBxx_HAL_Driver/Inc/stm32wbxx_ll_bus.h ****   * @param  Periphs This parameter can be a combination of the following values:
 848:Drivers/STM32WBxx_HAL_Driver/Inc/stm32wbxx_ll_bus.h ****   *         @arg @ref LL_AHB3_GRP1_PERIPH_QUADSPI
 849:Drivers/STM32WBxx_HAL_Driver/Inc/stm32wbxx_ll_bus.h ****   *         @arg @ref LL_AHB3_GRP1_PERIPH_PKA
 850:Drivers/STM32WBxx_HAL_Driver/Inc/stm32wbxx_ll_bus.h ****   *         @arg @ref LL_AHB3_GRP1_PERIPH_AES2
 851:Drivers/STM32WBxx_HAL_Driver/Inc/stm32wbxx_ll_bus.h ****   *         @arg @ref LL_AHB3_GRP1_PERIPH_RNG
 852:Drivers/STM32WBxx_HAL_Driver/Inc/stm32wbxx_ll_bus.h ****   *         @arg @ref LL_AHB3_GRP1_PERIPH_SRAM2
 853:Drivers/STM32WBxx_HAL_Driver/Inc/stm32wbxx_ll_bus.h ****   *         @arg @ref LL_AHB3_GRP1_PERIPH_FLASH
 854:Drivers/STM32WBxx_HAL_Driver/Inc/stm32wbxx_ll_bus.h ****   * @retval None
 855:Drivers/STM32WBxx_HAL_Driver/Inc/stm32wbxx_ll_bus.h **** */
 856:Drivers/STM32WBxx_HAL_Driver/Inc/stm32wbxx_ll_bus.h **** __STATIC_INLINE void LL_AHB3_GRP1_DisableClockSleep(uint32_t Periphs)
 857:Drivers/STM32WBxx_HAL_Driver/Inc/stm32wbxx_ll_bus.h **** {
 858:Drivers/STM32WBxx_HAL_Driver/Inc/stm32wbxx_ll_bus.h ****   CLEAR_BIT(RCC->AHB3SMENR, Periphs);
 859:Drivers/STM32WBxx_HAL_Driver/Inc/stm32wbxx_ll_bus.h **** }
 860:Drivers/STM32WBxx_HAL_Driver/Inc/stm32wbxx_ll_bus.h **** 
 861:Drivers/STM32WBxx_HAL_Driver/Inc/stm32wbxx_ll_bus.h **** /**
 862:Drivers/STM32WBxx_HAL_Driver/Inc/stm32wbxx_ll_bus.h ****   * @}
 863:Drivers/STM32WBxx_HAL_Driver/Inc/stm32wbxx_ll_bus.h ****   */
 864:Drivers/STM32WBxx_HAL_Driver/Inc/stm32wbxx_ll_bus.h **** 
 865:Drivers/STM32WBxx_HAL_Driver/Inc/stm32wbxx_ll_bus.h **** /** @defgroup BUS_LL_EF_APB1 APB1
 866:Drivers/STM32WBxx_HAL_Driver/Inc/stm32wbxx_ll_bus.h ****   * @{
 867:Drivers/STM32WBxx_HAL_Driver/Inc/stm32wbxx_ll_bus.h ****   */
 868:Drivers/STM32WBxx_HAL_Driver/Inc/stm32wbxx_ll_bus.h **** 
 869:Drivers/STM32WBxx_HAL_Driver/Inc/stm32wbxx_ll_bus.h **** /**
 870:Drivers/STM32WBxx_HAL_Driver/Inc/stm32wbxx_ll_bus.h ****   * @brief  Enable APB1 peripherals clock.
 871:Drivers/STM32WBxx_HAL_Driver/Inc/stm32wbxx_ll_bus.h ****   * @rmtoll APB1ENR1     TIM2EN        LL_APB1_GRP1_EnableClock\n
 872:Drivers/STM32WBxx_HAL_Driver/Inc/stm32wbxx_ll_bus.h ****   *         APB1ENR1     LCDEN         LL_APB1_GRP1_EnableClock\n
 873:Drivers/STM32WBxx_HAL_Driver/Inc/stm32wbxx_ll_bus.h ****   *         APB1ENR1     RTCAPBEN      LL_APB1_GRP1_EnableClock\n
 874:Drivers/STM32WBxx_HAL_Driver/Inc/stm32wbxx_ll_bus.h ****   *         APB1ENR1     WWDGEN        LL_APB1_GRP1_EnableClock\n
 875:Drivers/STM32WBxx_HAL_Driver/Inc/stm32wbxx_ll_bus.h ****   *         APB1ENR1     SPI2EN        LL_APB1_GRP1_EnableClock\n
 876:Drivers/STM32WBxx_HAL_Driver/Inc/stm32wbxx_ll_bus.h ****   *         APB1ENR1     I2C1EN        LL_APB1_GRP1_EnableClock\n
 877:Drivers/STM32WBxx_HAL_Driver/Inc/stm32wbxx_ll_bus.h ****   *         APB1ENR1     I2C3EN        LL_APB1_GRP1_EnableClock\n
 878:Drivers/STM32WBxx_HAL_Driver/Inc/stm32wbxx_ll_bus.h ****   *         APB1ENR1     CRSEN         LL_APB1_GRP1_EnableClock\n
 879:Drivers/STM32WBxx_HAL_Driver/Inc/stm32wbxx_ll_bus.h ****   *         APB1ENR1     USBEN         LL_APB1_GRP1_EnableClock\n
 880:Drivers/STM32WBxx_HAL_Driver/Inc/stm32wbxx_ll_bus.h ****   *         APB1ENR1     LPTIM1EN      LL_APB1_GRP1_EnableClock
 881:Drivers/STM32WBxx_HAL_Driver/Inc/stm32wbxx_ll_bus.h ****   * @param  Periphs This parameter can be a combination of the following values:
 882:Drivers/STM32WBxx_HAL_Driver/Inc/stm32wbxx_ll_bus.h ****   *         @arg @ref LL_APB1_GRP1_PERIPH_TIM2
ARM GAS  /tmp/ccFx4qIG.s 			page 22


 883:Drivers/STM32WBxx_HAL_Driver/Inc/stm32wbxx_ll_bus.h ****   *         @arg @ref LL_APB1_GRP1_PERIPH_LCD
 884:Drivers/STM32WBxx_HAL_Driver/Inc/stm32wbxx_ll_bus.h ****   *         @arg @ref LL_APB1_GRP1_PERIPH_RTCAPB
 885:Drivers/STM32WBxx_HAL_Driver/Inc/stm32wbxx_ll_bus.h ****   *         @arg @ref LL_APB1_GRP1_PERIPH_WWDG
 886:Drivers/STM32WBxx_HAL_Driver/Inc/stm32wbxx_ll_bus.h ****   *         @arg @ref LL_APB1_GRP1_PERIPH_SPI2
 887:Drivers/STM32WBxx_HAL_Driver/Inc/stm32wbxx_ll_bus.h ****   *         @arg @ref LL_APB1_GRP1_PERIPH_I2C1
 888:Drivers/STM32WBxx_HAL_Driver/Inc/stm32wbxx_ll_bus.h ****   *         @arg @ref LL_APB1_GRP1_PERIPH_I2C3
 889:Drivers/STM32WBxx_HAL_Driver/Inc/stm32wbxx_ll_bus.h ****   *         @arg @ref LL_APB1_GRP1_PERIPH_CRS
 890:Drivers/STM32WBxx_HAL_Driver/Inc/stm32wbxx_ll_bus.h ****   *         @arg @ref LL_APB1_GRP1_PERIPH_USB
 891:Drivers/STM32WBxx_HAL_Driver/Inc/stm32wbxx_ll_bus.h ****   *         @arg @ref LL_APB1_GRP1_PERIPH_LPTIM1
 892:Drivers/STM32WBxx_HAL_Driver/Inc/stm32wbxx_ll_bus.h ****   * @retval None
 893:Drivers/STM32WBxx_HAL_Driver/Inc/stm32wbxx_ll_bus.h **** */
 894:Drivers/STM32WBxx_HAL_Driver/Inc/stm32wbxx_ll_bus.h **** __STATIC_INLINE void LL_APB1_GRP1_EnableClock(uint32_t Periphs)
 895:Drivers/STM32WBxx_HAL_Driver/Inc/stm32wbxx_ll_bus.h **** {
 896:Drivers/STM32WBxx_HAL_Driver/Inc/stm32wbxx_ll_bus.h ****   __IO uint32_t tmpreg;
 897:Drivers/STM32WBxx_HAL_Driver/Inc/stm32wbxx_ll_bus.h ****   SET_BIT(RCC->APB1ENR1, Periphs);
 898:Drivers/STM32WBxx_HAL_Driver/Inc/stm32wbxx_ll_bus.h ****   /* Delay after an RCC peripheral clock enabling */
 899:Drivers/STM32WBxx_HAL_Driver/Inc/stm32wbxx_ll_bus.h ****   tmpreg = READ_BIT(RCC->APB1ENR1, Periphs);
 900:Drivers/STM32WBxx_HAL_Driver/Inc/stm32wbxx_ll_bus.h ****   (void)tmpreg;
 901:Drivers/STM32WBxx_HAL_Driver/Inc/stm32wbxx_ll_bus.h **** }
 902:Drivers/STM32WBxx_HAL_Driver/Inc/stm32wbxx_ll_bus.h **** 
 903:Drivers/STM32WBxx_HAL_Driver/Inc/stm32wbxx_ll_bus.h **** /**
 904:Drivers/STM32WBxx_HAL_Driver/Inc/stm32wbxx_ll_bus.h ****   * @brief  Enable APB1 peripherals clock.
 905:Drivers/STM32WBxx_HAL_Driver/Inc/stm32wbxx_ll_bus.h ****   * @rmtoll APB1ENR2     LPUART1EN     LL_APB1_GRP2_EnableClock\n
 906:Drivers/STM32WBxx_HAL_Driver/Inc/stm32wbxx_ll_bus.h ****   *         APB1ENR2     LPTIM2EN      LL_APB1_GRP2_EnableClock
 907:Drivers/STM32WBxx_HAL_Driver/Inc/stm32wbxx_ll_bus.h ****   * @param  Periphs This parameter can be a combination of the following values:
 908:Drivers/STM32WBxx_HAL_Driver/Inc/stm32wbxx_ll_bus.h ****   *         @arg @ref LL_APB1_GRP2_PERIPH_LPUART1
 909:Drivers/STM32WBxx_HAL_Driver/Inc/stm32wbxx_ll_bus.h ****   *         @arg @ref LL_APB1_GRP2_PERIPH_LPTIM2
 910:Drivers/STM32WBxx_HAL_Driver/Inc/stm32wbxx_ll_bus.h ****   * @retval None
 911:Drivers/STM32WBxx_HAL_Driver/Inc/stm32wbxx_ll_bus.h **** */
 912:Drivers/STM32WBxx_HAL_Driver/Inc/stm32wbxx_ll_bus.h **** __STATIC_INLINE void LL_APB1_GRP2_EnableClock(uint32_t Periphs)
 913:Drivers/STM32WBxx_HAL_Driver/Inc/stm32wbxx_ll_bus.h **** {
 914:Drivers/STM32WBxx_HAL_Driver/Inc/stm32wbxx_ll_bus.h ****   __IO uint32_t tmpreg;
 915:Drivers/STM32WBxx_HAL_Driver/Inc/stm32wbxx_ll_bus.h ****   SET_BIT(RCC->APB1ENR2, Periphs);
 916:Drivers/STM32WBxx_HAL_Driver/Inc/stm32wbxx_ll_bus.h ****   /* Delay after an RCC peripheral clock enabling */
 917:Drivers/STM32WBxx_HAL_Driver/Inc/stm32wbxx_ll_bus.h ****   tmpreg = READ_BIT(RCC->APB1ENR2, Periphs);
 918:Drivers/STM32WBxx_HAL_Driver/Inc/stm32wbxx_ll_bus.h ****   (void)tmpreg;
 919:Drivers/STM32WBxx_HAL_Driver/Inc/stm32wbxx_ll_bus.h **** }
 920:Drivers/STM32WBxx_HAL_Driver/Inc/stm32wbxx_ll_bus.h **** 
 921:Drivers/STM32WBxx_HAL_Driver/Inc/stm32wbxx_ll_bus.h **** /**
 922:Drivers/STM32WBxx_HAL_Driver/Inc/stm32wbxx_ll_bus.h ****   * @brief  Check if APB1 peripheral clock is enabled or not
 923:Drivers/STM32WBxx_HAL_Driver/Inc/stm32wbxx_ll_bus.h ****   * @rmtoll APB1ENR1     TIM2EN        LL_APB1_GRP1_IsEnabledClock\n
 924:Drivers/STM32WBxx_HAL_Driver/Inc/stm32wbxx_ll_bus.h ****   *         APB1ENR1     LCDEN         LL_APB1_GRP1_IsEnabledClock\n
 925:Drivers/STM32WBxx_HAL_Driver/Inc/stm32wbxx_ll_bus.h ****   *         APB1ENR1     RTCAPBEN      LL_APB1_GRP1_IsEnabledClock\n
 926:Drivers/STM32WBxx_HAL_Driver/Inc/stm32wbxx_ll_bus.h ****   *         APB1ENR1     WWDGEN        LL_APB1_GRP1_IsEnabledClock\n
 927:Drivers/STM32WBxx_HAL_Driver/Inc/stm32wbxx_ll_bus.h ****   *         APB1ENR1     SPI2EN        LL_APB1_GRP1_IsEnabledClock\n
 928:Drivers/STM32WBxx_HAL_Driver/Inc/stm32wbxx_ll_bus.h ****   *         APB1ENR1     I2C1EN        LL_APB1_GRP1_IsEnabledClock\n
 929:Drivers/STM32WBxx_HAL_Driver/Inc/stm32wbxx_ll_bus.h ****   *         APB1ENR1     I2C3EN        LL_APB1_GRP1_IsEnabledClock\n
 930:Drivers/STM32WBxx_HAL_Driver/Inc/stm32wbxx_ll_bus.h ****   *         APB1ENR1     CRSEN         LL_APB1_GRP1_IsEnabledClock\n
 931:Drivers/STM32WBxx_HAL_Driver/Inc/stm32wbxx_ll_bus.h ****   *         APB1ENR1     USBEN         LL_APB1_GRP1_IsEnabledClock\n
 932:Drivers/STM32WBxx_HAL_Driver/Inc/stm32wbxx_ll_bus.h ****   *         APB1ENR1     LPTIM1EN      LL_APB1_GRP1_IsEnabledClock
 933:Drivers/STM32WBxx_HAL_Driver/Inc/stm32wbxx_ll_bus.h ****   * @param  Periphs This parameter can be a combination of the following values:
 934:Drivers/STM32WBxx_HAL_Driver/Inc/stm32wbxx_ll_bus.h ****   *         @arg @ref LL_APB1_GRP1_PERIPH_TIM2
 935:Drivers/STM32WBxx_HAL_Driver/Inc/stm32wbxx_ll_bus.h ****   *         @arg @ref LL_APB1_GRP1_PERIPH_LCD
 936:Drivers/STM32WBxx_HAL_Driver/Inc/stm32wbxx_ll_bus.h ****   *         @arg @ref LL_APB1_GRP1_PERIPH_RTCAPB
 937:Drivers/STM32WBxx_HAL_Driver/Inc/stm32wbxx_ll_bus.h ****   *         @arg @ref LL_APB1_GRP1_PERIPH_WWDG
 938:Drivers/STM32WBxx_HAL_Driver/Inc/stm32wbxx_ll_bus.h ****   *         @arg @ref LL_APB1_GRP1_PERIPH_SPI2
 939:Drivers/STM32WBxx_HAL_Driver/Inc/stm32wbxx_ll_bus.h ****   *         @arg @ref LL_APB1_GRP1_PERIPH_I2C1
ARM GAS  /tmp/ccFx4qIG.s 			page 23


 940:Drivers/STM32WBxx_HAL_Driver/Inc/stm32wbxx_ll_bus.h ****   *         @arg @ref LL_APB1_GRP1_PERIPH_I2C3
 941:Drivers/STM32WBxx_HAL_Driver/Inc/stm32wbxx_ll_bus.h ****   *         @arg @ref LL_APB1_GRP1_PERIPH_CRS
 942:Drivers/STM32WBxx_HAL_Driver/Inc/stm32wbxx_ll_bus.h ****   *         @arg @ref LL_APB1_GRP1_PERIPH_USB
 943:Drivers/STM32WBxx_HAL_Driver/Inc/stm32wbxx_ll_bus.h ****   *         @arg @ref LL_APB1_GRP1_PERIPH_LPTIM1
 944:Drivers/STM32WBxx_HAL_Driver/Inc/stm32wbxx_ll_bus.h ****   * @retval uint32_t
 945:Drivers/STM32WBxx_HAL_Driver/Inc/stm32wbxx_ll_bus.h **** */
 946:Drivers/STM32WBxx_HAL_Driver/Inc/stm32wbxx_ll_bus.h **** __STATIC_INLINE uint32_t LL_APB1_GRP1_IsEnabledClock(uint32_t Periphs)
 947:Drivers/STM32WBxx_HAL_Driver/Inc/stm32wbxx_ll_bus.h **** {
 948:Drivers/STM32WBxx_HAL_Driver/Inc/stm32wbxx_ll_bus.h ****   return ((READ_BIT(RCC->APB1ENR1, Periphs) == (Periphs)) ? 1UL : 0UL);
 949:Drivers/STM32WBxx_HAL_Driver/Inc/stm32wbxx_ll_bus.h **** }
 950:Drivers/STM32WBxx_HAL_Driver/Inc/stm32wbxx_ll_bus.h **** 
 951:Drivers/STM32WBxx_HAL_Driver/Inc/stm32wbxx_ll_bus.h **** /**
 952:Drivers/STM32WBxx_HAL_Driver/Inc/stm32wbxx_ll_bus.h ****   * @brief  Check if APB1 peripheral clock is enabled or not
 953:Drivers/STM32WBxx_HAL_Driver/Inc/stm32wbxx_ll_bus.h ****   * @rmtoll APB1ENR2     LPUART1EN     LL_APB1_GRP2_IsEnabledClock\n
 954:Drivers/STM32WBxx_HAL_Driver/Inc/stm32wbxx_ll_bus.h ****   *         APB1ENR2     LPTIM2EN      LL_APB1_GRP2_IsEnabledClock
 955:Drivers/STM32WBxx_HAL_Driver/Inc/stm32wbxx_ll_bus.h ****   * @param  Periphs This parameter can be a combination of the following values:
 956:Drivers/STM32WBxx_HAL_Driver/Inc/stm32wbxx_ll_bus.h ****   *         @arg @ref LL_APB1_GRP2_PERIPH_LPUART1
 957:Drivers/STM32WBxx_HAL_Driver/Inc/stm32wbxx_ll_bus.h ****   *         @arg @ref LL_APB1_GRP2_PERIPH_LPTIM2
 958:Drivers/STM32WBxx_HAL_Driver/Inc/stm32wbxx_ll_bus.h ****   * @retval uint32_t
 959:Drivers/STM32WBxx_HAL_Driver/Inc/stm32wbxx_ll_bus.h **** */
 960:Drivers/STM32WBxx_HAL_Driver/Inc/stm32wbxx_ll_bus.h **** __STATIC_INLINE uint32_t LL_APB1_GRP2_IsEnabledClock(uint32_t Periphs)
 961:Drivers/STM32WBxx_HAL_Driver/Inc/stm32wbxx_ll_bus.h **** {
 962:Drivers/STM32WBxx_HAL_Driver/Inc/stm32wbxx_ll_bus.h ****   return ((READ_BIT(RCC->APB1ENR2, Periphs) == (Periphs)) ? 1UL : 0UL);
 963:Drivers/STM32WBxx_HAL_Driver/Inc/stm32wbxx_ll_bus.h **** }
 964:Drivers/STM32WBxx_HAL_Driver/Inc/stm32wbxx_ll_bus.h **** 
 965:Drivers/STM32WBxx_HAL_Driver/Inc/stm32wbxx_ll_bus.h **** /**
 966:Drivers/STM32WBxx_HAL_Driver/Inc/stm32wbxx_ll_bus.h ****   * @brief  Disable APB1 peripherals clock.
 967:Drivers/STM32WBxx_HAL_Driver/Inc/stm32wbxx_ll_bus.h ****   * @rmtoll APB1ENR1     TIM2EN        LL_APB1_GRP1_DisableClock\n
 968:Drivers/STM32WBxx_HAL_Driver/Inc/stm32wbxx_ll_bus.h ****   *         APB1ENR1     LCDEN         LL_APB1_GRP1_DisableClock\n
 969:Drivers/STM32WBxx_HAL_Driver/Inc/stm32wbxx_ll_bus.h ****   *         APB1ENR1     RTCAPBEN      LL_APB1_GRP1_DisableClock\n
 970:Drivers/STM32WBxx_HAL_Driver/Inc/stm32wbxx_ll_bus.h ****   *         APB1ENR1     SPI2EN        LL_APB1_GRP1_DisableClock\n
 971:Drivers/STM32WBxx_HAL_Driver/Inc/stm32wbxx_ll_bus.h ****   *         APB1ENR1     I2C1EN        LL_APB1_GRP1_DisableClock\n
 972:Drivers/STM32WBxx_HAL_Driver/Inc/stm32wbxx_ll_bus.h ****   *         APB1ENR1     I2C3EN        LL_APB1_GRP1_DisableClock\n
 973:Drivers/STM32WBxx_HAL_Driver/Inc/stm32wbxx_ll_bus.h ****   *         APB1ENR1     CRSEN         LL_APB1_GRP1_DisableClock\n
 974:Drivers/STM32WBxx_HAL_Driver/Inc/stm32wbxx_ll_bus.h ****   *         APB1ENR1     USBEN         LL_APB1_GRP1_DisableClock\n
 975:Drivers/STM32WBxx_HAL_Driver/Inc/stm32wbxx_ll_bus.h ****   *         APB1ENR1     LPTIM1EN      LL_APB1_GRP1_DisableClock
 976:Drivers/STM32WBxx_HAL_Driver/Inc/stm32wbxx_ll_bus.h ****   * @param  Periphs This parameter can be a combination of the following values:
 977:Drivers/STM32WBxx_HAL_Driver/Inc/stm32wbxx_ll_bus.h ****   *         @arg @ref LL_APB1_GRP1_PERIPH_TIM2
 978:Drivers/STM32WBxx_HAL_Driver/Inc/stm32wbxx_ll_bus.h ****   *         @arg @ref LL_APB1_GRP1_PERIPH_LCD
 979:Drivers/STM32WBxx_HAL_Driver/Inc/stm32wbxx_ll_bus.h ****   *         @arg @ref LL_APB1_GRP1_PERIPH_RTCAPB
 980:Drivers/STM32WBxx_HAL_Driver/Inc/stm32wbxx_ll_bus.h ****   *         @arg @ref LL_APB1_GRP1_PERIPH_WWDG
 981:Drivers/STM32WBxx_HAL_Driver/Inc/stm32wbxx_ll_bus.h ****   *         @arg @ref LL_APB1_GRP1_PERIPH_SPI2
 982:Drivers/STM32WBxx_HAL_Driver/Inc/stm32wbxx_ll_bus.h ****   *         @arg @ref LL_APB1_GRP1_PERIPH_I2C1
 983:Drivers/STM32WBxx_HAL_Driver/Inc/stm32wbxx_ll_bus.h ****   *         @arg @ref LL_APB1_GRP1_PERIPH_I2C3
 984:Drivers/STM32WBxx_HAL_Driver/Inc/stm32wbxx_ll_bus.h ****   *         @arg @ref LL_APB1_GRP1_PERIPH_CRS
 985:Drivers/STM32WBxx_HAL_Driver/Inc/stm32wbxx_ll_bus.h ****   *         @arg @ref LL_APB1_GRP1_PERIPH_USB
 986:Drivers/STM32WBxx_HAL_Driver/Inc/stm32wbxx_ll_bus.h ****   *         @arg @ref LL_APB1_GRP1_PERIPH_LPTIM1
 987:Drivers/STM32WBxx_HAL_Driver/Inc/stm32wbxx_ll_bus.h ****   * @retval None
 988:Drivers/STM32WBxx_HAL_Driver/Inc/stm32wbxx_ll_bus.h **** */
 989:Drivers/STM32WBxx_HAL_Driver/Inc/stm32wbxx_ll_bus.h **** __STATIC_INLINE void LL_APB1_GRP1_DisableClock(uint32_t Periphs)
 990:Drivers/STM32WBxx_HAL_Driver/Inc/stm32wbxx_ll_bus.h **** {
 991:Drivers/STM32WBxx_HAL_Driver/Inc/stm32wbxx_ll_bus.h ****   CLEAR_BIT(RCC->APB1ENR1, Periphs);
 992:Drivers/STM32WBxx_HAL_Driver/Inc/stm32wbxx_ll_bus.h **** }
 993:Drivers/STM32WBxx_HAL_Driver/Inc/stm32wbxx_ll_bus.h **** 
 994:Drivers/STM32WBxx_HAL_Driver/Inc/stm32wbxx_ll_bus.h **** /**
 995:Drivers/STM32WBxx_HAL_Driver/Inc/stm32wbxx_ll_bus.h ****   * @brief  Disable APB1 peripherals clock.
 996:Drivers/STM32WBxx_HAL_Driver/Inc/stm32wbxx_ll_bus.h ****   * @rmtoll APB1ENR2     LPUART1EN     LL_APB1_GRP2_DisableClock\n
ARM GAS  /tmp/ccFx4qIG.s 			page 24


 997:Drivers/STM32WBxx_HAL_Driver/Inc/stm32wbxx_ll_bus.h ****   *         APB1ENR2     LPTIM2EN      LL_APB1_GRP2_DisableClock
 998:Drivers/STM32WBxx_HAL_Driver/Inc/stm32wbxx_ll_bus.h ****   * @param  Periphs This parameter can be a combination of the following values:
 999:Drivers/STM32WBxx_HAL_Driver/Inc/stm32wbxx_ll_bus.h ****   *         @arg @ref LL_APB1_GRP2_PERIPH_LPUART1
1000:Drivers/STM32WBxx_HAL_Driver/Inc/stm32wbxx_ll_bus.h ****   *         @arg @ref LL_APB1_GRP2_PERIPH_LPTIM2
1001:Drivers/STM32WBxx_HAL_Driver/Inc/stm32wbxx_ll_bus.h ****   * @retval None
1002:Drivers/STM32WBxx_HAL_Driver/Inc/stm32wbxx_ll_bus.h **** */
1003:Drivers/STM32WBxx_HAL_Driver/Inc/stm32wbxx_ll_bus.h **** __STATIC_INLINE void LL_APB1_GRP2_DisableClock(uint32_t Periphs)
1004:Drivers/STM32WBxx_HAL_Driver/Inc/stm32wbxx_ll_bus.h **** {
1005:Drivers/STM32WBxx_HAL_Driver/Inc/stm32wbxx_ll_bus.h ****   CLEAR_BIT(RCC->APB1ENR2, Periphs);
1006:Drivers/STM32WBxx_HAL_Driver/Inc/stm32wbxx_ll_bus.h **** }
1007:Drivers/STM32WBxx_HAL_Driver/Inc/stm32wbxx_ll_bus.h **** 
1008:Drivers/STM32WBxx_HAL_Driver/Inc/stm32wbxx_ll_bus.h **** /**
1009:Drivers/STM32WBxx_HAL_Driver/Inc/stm32wbxx_ll_bus.h ****   * @brief  Force APB1 peripherals reset.
1010:Drivers/STM32WBxx_HAL_Driver/Inc/stm32wbxx_ll_bus.h ****   * @rmtoll APB1RSTR1    TIM2RST       LL_APB1_GRP1_ForceReset\n
1011:Drivers/STM32WBxx_HAL_Driver/Inc/stm32wbxx_ll_bus.h ****   *         APB1RSTR1    LCDRST        LL_APB1_GRP1_ForceReset\n
1012:Drivers/STM32WBxx_HAL_Driver/Inc/stm32wbxx_ll_bus.h ****   *         APB1RSTR1    SPI2RST       LL_APB1_GRP1_ForceReset\n
1013:Drivers/STM32WBxx_HAL_Driver/Inc/stm32wbxx_ll_bus.h ****   *         APB1RSTR1    I2C1RST       LL_APB1_GRP1_ForceReset\n
1014:Drivers/STM32WBxx_HAL_Driver/Inc/stm32wbxx_ll_bus.h ****   *         APB1RSTR1    I2C3RST       LL_APB1_GRP1_ForceReset\n
1015:Drivers/STM32WBxx_HAL_Driver/Inc/stm32wbxx_ll_bus.h ****   *         APB1RSTR1    CRSRST        LL_APB1_GRP1_ForceReset\n
1016:Drivers/STM32WBxx_HAL_Driver/Inc/stm32wbxx_ll_bus.h ****   *         APB1RSTR1    USBRST        LL_APB1_GRP1_ForceReset\n
1017:Drivers/STM32WBxx_HAL_Driver/Inc/stm32wbxx_ll_bus.h ****   *         APB1RSTR1    LPTIM1RST     LL_APB1_GRP1_ForceReset
1018:Drivers/STM32WBxx_HAL_Driver/Inc/stm32wbxx_ll_bus.h ****   * @param  Periphs This parameter can be a combination of the following values:
1019:Drivers/STM32WBxx_HAL_Driver/Inc/stm32wbxx_ll_bus.h ****   *         @arg @ref LL_APB1_GRP1_PERIPH_ALL
1020:Drivers/STM32WBxx_HAL_Driver/Inc/stm32wbxx_ll_bus.h ****   *         @arg @ref LL_APB1_GRP1_PERIPH_TIM2
1021:Drivers/STM32WBxx_HAL_Driver/Inc/stm32wbxx_ll_bus.h ****   *         @arg @ref LL_APB1_GRP1_PERIPH_LCD
1022:Drivers/STM32WBxx_HAL_Driver/Inc/stm32wbxx_ll_bus.h ****   *         @arg @ref LL_APB1_GRP1_PERIPH_SPI2
1023:Drivers/STM32WBxx_HAL_Driver/Inc/stm32wbxx_ll_bus.h ****   *         @arg @ref LL_APB1_GRP1_PERIPH_I2C1
1024:Drivers/STM32WBxx_HAL_Driver/Inc/stm32wbxx_ll_bus.h ****   *         @arg @ref LL_APB1_GRP1_PERIPH_I2C3
1025:Drivers/STM32WBxx_HAL_Driver/Inc/stm32wbxx_ll_bus.h ****   *         @arg @ref LL_APB1_GRP1_PERIPH_CRS
1026:Drivers/STM32WBxx_HAL_Driver/Inc/stm32wbxx_ll_bus.h ****   *         @arg @ref LL_APB1_GRP1_PERIPH_USB
1027:Drivers/STM32WBxx_HAL_Driver/Inc/stm32wbxx_ll_bus.h ****   *         @arg @ref LL_APB1_GRP1_PERIPH_LPTIM1
1028:Drivers/STM32WBxx_HAL_Driver/Inc/stm32wbxx_ll_bus.h ****   * @retval None
1029:Drivers/STM32WBxx_HAL_Driver/Inc/stm32wbxx_ll_bus.h **** */
1030:Drivers/STM32WBxx_HAL_Driver/Inc/stm32wbxx_ll_bus.h **** __STATIC_INLINE void LL_APB1_GRP1_ForceReset(uint32_t Periphs)
  84              		.loc 2 1030 22 view .LVU7
  85              	.LBB77:
1031:Drivers/STM32WBxx_HAL_Driver/Inc/stm32wbxx_ll_bus.h **** {
1032:Drivers/STM32WBxx_HAL_Driver/Inc/stm32wbxx_ll_bus.h ****   SET_BIT(RCC->APB1RSTR1, Periphs);
  86              		.loc 2 1032 3 view .LVU8
  87 0002 4FF0B043 		mov	r3, #1476395008
  88 0006 9A6B     		ldr	r2, [r3, #56]
  89 0008 4FF0FF32 		mov	r2, #-1
  90 000c 9A63     		str	r2, [r3, #56]
  91              	.LVL1:
  92              		.loc 2 1032 3 is_stmt 0 view .LVU9
  93              	.LBE77:
  94              	.LBE76:
 189:Drivers/STM32WBxx_HAL_Driver/Src/stm32wbxx_hal.c ****   __HAL_RCC_APB1_RELEASE_RESET();
  95              		.loc 1 189 3 is_stmt 1 view .LVU10
  96              	.LBB78:
  97              	.LBI78:
1033:Drivers/STM32WBxx_HAL_Driver/Inc/stm32wbxx_ll_bus.h **** }
1034:Drivers/STM32WBxx_HAL_Driver/Inc/stm32wbxx_ll_bus.h **** 
1035:Drivers/STM32WBxx_HAL_Driver/Inc/stm32wbxx_ll_bus.h **** /**
1036:Drivers/STM32WBxx_HAL_Driver/Inc/stm32wbxx_ll_bus.h ****   * @brief  Force APB1 peripherals reset.
1037:Drivers/STM32WBxx_HAL_Driver/Inc/stm32wbxx_ll_bus.h ****   * @rmtoll APB1RSTR2    LPUART1RST    LL_APB1_GRP2_ForceReset\n
1038:Drivers/STM32WBxx_HAL_Driver/Inc/stm32wbxx_ll_bus.h ****   *         APB1RSTR2    LPTIM2RST     LL_APB1_GRP2_ForceReset
ARM GAS  /tmp/ccFx4qIG.s 			page 25


1039:Drivers/STM32WBxx_HAL_Driver/Inc/stm32wbxx_ll_bus.h ****   * @param  Periphs This parameter can be a combination of the following values:
1040:Drivers/STM32WBxx_HAL_Driver/Inc/stm32wbxx_ll_bus.h ****   *         @arg @ref LL_APB1_GRP2_PERIPH_ALL
1041:Drivers/STM32WBxx_HAL_Driver/Inc/stm32wbxx_ll_bus.h ****   *         @arg @ref LL_APB1_GRP2_PERIPH_LPUART1
1042:Drivers/STM32WBxx_HAL_Driver/Inc/stm32wbxx_ll_bus.h ****   *         @arg @ref LL_APB1_GRP2_PERIPH_LPTIM2
1043:Drivers/STM32WBxx_HAL_Driver/Inc/stm32wbxx_ll_bus.h ****   * @retval None
1044:Drivers/STM32WBxx_HAL_Driver/Inc/stm32wbxx_ll_bus.h **** */
1045:Drivers/STM32WBxx_HAL_Driver/Inc/stm32wbxx_ll_bus.h **** __STATIC_INLINE void LL_APB1_GRP2_ForceReset(uint32_t Periphs)
  98              		.loc 2 1045 22 view .LVU11
  99              	.LBB79:
1046:Drivers/STM32WBxx_HAL_Driver/Inc/stm32wbxx_ll_bus.h **** {
1047:Drivers/STM32WBxx_HAL_Driver/Inc/stm32wbxx_ll_bus.h ****   SET_BIT(RCC->APB1RSTR2, Periphs);
 100              		.loc 2 1047 3 view .LVU12
 101 000e D96B     		ldr	r1, [r3, #60]
 102 0010 DA63     		str	r2, [r3, #60]
 103              	.LVL2:
 104              		.loc 2 1047 3 is_stmt 0 view .LVU13
 105              	.LBE79:
 106              	.LBE78:
 189:Drivers/STM32WBxx_HAL_Driver/Src/stm32wbxx_hal.c ****   __HAL_RCC_APB1_RELEASE_RESET();
 107              		.loc 1 189 3 is_stmt 1 view .LVU14
 190:Drivers/STM32WBxx_HAL_Driver/Src/stm32wbxx_hal.c **** 
 108              		.loc 1 190 3 view .LVU15
 190:Drivers/STM32WBxx_HAL_Driver/Src/stm32wbxx_hal.c **** 
 109              		.loc 1 190 3 view .LVU16
 110              	.LBB80:
 111              	.LBI80:
1048:Drivers/STM32WBxx_HAL_Driver/Inc/stm32wbxx_ll_bus.h **** }
1049:Drivers/STM32WBxx_HAL_Driver/Inc/stm32wbxx_ll_bus.h **** 
1050:Drivers/STM32WBxx_HAL_Driver/Inc/stm32wbxx_ll_bus.h **** /**
1051:Drivers/STM32WBxx_HAL_Driver/Inc/stm32wbxx_ll_bus.h ****   * @brief  Release APB1 peripherals reset.
1052:Drivers/STM32WBxx_HAL_Driver/Inc/stm32wbxx_ll_bus.h ****   * @rmtoll APB1RSTR1    TIM2RST       LL_APB1_GRP1_ReleaseReset\n
1053:Drivers/STM32WBxx_HAL_Driver/Inc/stm32wbxx_ll_bus.h ****   *         APB1RSTR1    LCDRST        LL_APB1_GRP1_ReleaseReset\n
1054:Drivers/STM32WBxx_HAL_Driver/Inc/stm32wbxx_ll_bus.h ****   *         APB1RSTR1    SPI2RST       LL_APB1_GRP1_ReleaseReset\n
1055:Drivers/STM32WBxx_HAL_Driver/Inc/stm32wbxx_ll_bus.h ****   *         APB1RSTR1    I2C1RST       LL_APB1_GRP1_ReleaseReset\n
1056:Drivers/STM32WBxx_HAL_Driver/Inc/stm32wbxx_ll_bus.h ****   *         APB1RSTR1    I2C3RST       LL_APB1_GRP1_ReleaseReset\n
1057:Drivers/STM32WBxx_HAL_Driver/Inc/stm32wbxx_ll_bus.h ****   *         APB1RSTR1    CRSRST        LL_APB1_GRP1_ReleaseReset\n
1058:Drivers/STM32WBxx_HAL_Driver/Inc/stm32wbxx_ll_bus.h ****   *         APB1RSTR1    USBRST        LL_APB1_GRP1_ReleaseReset\n
1059:Drivers/STM32WBxx_HAL_Driver/Inc/stm32wbxx_ll_bus.h ****   *         APB1RSTR1    LPTIM1RST     LL_APB1_GRP1_ReleaseReset
1060:Drivers/STM32WBxx_HAL_Driver/Inc/stm32wbxx_ll_bus.h ****   * @param  Periphs This parameter can be a combination of the following values:
1061:Drivers/STM32WBxx_HAL_Driver/Inc/stm32wbxx_ll_bus.h ****   *         @arg @ref LL_APB1_GRP1_PERIPH_ALL
1062:Drivers/STM32WBxx_HAL_Driver/Inc/stm32wbxx_ll_bus.h ****   *         @arg @ref LL_APB1_GRP1_PERIPH_TIM2
1063:Drivers/STM32WBxx_HAL_Driver/Inc/stm32wbxx_ll_bus.h ****   *         @arg @ref LL_APB1_GRP1_PERIPH_LCD
1064:Drivers/STM32WBxx_HAL_Driver/Inc/stm32wbxx_ll_bus.h ****   *         @arg @ref LL_APB1_GRP1_PERIPH_SPI2
1065:Drivers/STM32WBxx_HAL_Driver/Inc/stm32wbxx_ll_bus.h ****   *         @arg @ref LL_APB1_GRP1_PERIPH_I2C1
1066:Drivers/STM32WBxx_HAL_Driver/Inc/stm32wbxx_ll_bus.h ****   *         @arg @ref LL_APB1_GRP1_PERIPH_I2C3
1067:Drivers/STM32WBxx_HAL_Driver/Inc/stm32wbxx_ll_bus.h ****   *         @arg @ref LL_APB1_GRP1_PERIPH_CRS
1068:Drivers/STM32WBxx_HAL_Driver/Inc/stm32wbxx_ll_bus.h ****   *         @arg @ref LL_APB1_GRP1_PERIPH_USB
1069:Drivers/STM32WBxx_HAL_Driver/Inc/stm32wbxx_ll_bus.h ****   *         @arg @ref LL_APB1_GRP1_PERIPH_LPTIM1
1070:Drivers/STM32WBxx_HAL_Driver/Inc/stm32wbxx_ll_bus.h ****   * @retval None
1071:Drivers/STM32WBxx_HAL_Driver/Inc/stm32wbxx_ll_bus.h **** */
1072:Drivers/STM32WBxx_HAL_Driver/Inc/stm32wbxx_ll_bus.h **** __STATIC_INLINE void LL_APB1_GRP1_ReleaseReset(uint32_t Periphs)
 112              		.loc 2 1072 22 view .LVU17
 113              	.LBB81:
1073:Drivers/STM32WBxx_HAL_Driver/Inc/stm32wbxx_ll_bus.h **** {
1074:Drivers/STM32WBxx_HAL_Driver/Inc/stm32wbxx_ll_bus.h ****   CLEAR_BIT(RCC->APB1RSTR1, Periphs);
 114              		.loc 2 1074 3 view .LVU18
 115 0012 996B     		ldr	r1, [r3, #56]
ARM GAS  /tmp/ccFx4qIG.s 			page 26


 116 0014 0024     		movs	r4, #0
 117 0016 9C63     		str	r4, [r3, #56]
 118              	.LVL3:
 119              		.loc 2 1074 3 is_stmt 0 view .LVU19
 120              	.LBE81:
 121              	.LBE80:
 190:Drivers/STM32WBxx_HAL_Driver/Src/stm32wbxx_hal.c **** 
 122              		.loc 1 190 3 is_stmt 1 view .LVU20
 123              	.LBB82:
 124              	.LBI82:
1075:Drivers/STM32WBxx_HAL_Driver/Inc/stm32wbxx_ll_bus.h **** }
1076:Drivers/STM32WBxx_HAL_Driver/Inc/stm32wbxx_ll_bus.h **** 
1077:Drivers/STM32WBxx_HAL_Driver/Inc/stm32wbxx_ll_bus.h **** /**
1078:Drivers/STM32WBxx_HAL_Driver/Inc/stm32wbxx_ll_bus.h ****   * @brief  Release APB1 peripherals reset.
1079:Drivers/STM32WBxx_HAL_Driver/Inc/stm32wbxx_ll_bus.h ****   * @rmtoll APB1RSTR2    LPUART1RST    LL_APB1_GRP2_ReleaseReset\n
1080:Drivers/STM32WBxx_HAL_Driver/Inc/stm32wbxx_ll_bus.h ****   *         APB1RSTR2    LPTIM2RST     LL_APB1_GRP2_ReleaseReset
1081:Drivers/STM32WBxx_HAL_Driver/Inc/stm32wbxx_ll_bus.h ****   * @param  Periphs This parameter can be a combination of the following values:
1082:Drivers/STM32WBxx_HAL_Driver/Inc/stm32wbxx_ll_bus.h ****   *         @arg @ref LL_APB1_GRP2_PERIPH_ALL
1083:Drivers/STM32WBxx_HAL_Driver/Inc/stm32wbxx_ll_bus.h ****   *         @arg @ref LL_APB1_GRP2_PERIPH_LPUART1
1084:Drivers/STM32WBxx_HAL_Driver/Inc/stm32wbxx_ll_bus.h ****   *         @arg @ref LL_APB1_GRP2_PERIPH_LPTIM2
1085:Drivers/STM32WBxx_HAL_Driver/Inc/stm32wbxx_ll_bus.h ****   * @retval None
1086:Drivers/STM32WBxx_HAL_Driver/Inc/stm32wbxx_ll_bus.h **** */
1087:Drivers/STM32WBxx_HAL_Driver/Inc/stm32wbxx_ll_bus.h **** __STATIC_INLINE void LL_APB1_GRP2_ReleaseReset(uint32_t Periphs)
 125              		.loc 2 1087 22 view .LVU21
 126              	.LBB83:
1088:Drivers/STM32WBxx_HAL_Driver/Inc/stm32wbxx_ll_bus.h **** {
1089:Drivers/STM32WBxx_HAL_Driver/Inc/stm32wbxx_ll_bus.h ****   CLEAR_BIT(RCC->APB1RSTR2, Periphs);
 127              		.loc 2 1089 3 view .LVU22
 128 0018 D96B     		ldr	r1, [r3, #60]
 129 001a DC63     		str	r4, [r3, #60]
 130              	.LVL4:
 131              		.loc 2 1089 3 is_stmt 0 view .LVU23
 132              	.LBE83:
 133              	.LBE82:
 190:Drivers/STM32WBxx_HAL_Driver/Src/stm32wbxx_hal.c **** 
 134              		.loc 1 190 3 is_stmt 1 view .LVU24
 192:Drivers/STM32WBxx_HAL_Driver/Src/stm32wbxx_hal.c ****   __HAL_RCC_APB2_RELEASE_RESET();
 135              		.loc 1 192 3 view .LVU25
 136              	.LBB84:
 137              	.LBI84:
1090:Drivers/STM32WBxx_HAL_Driver/Inc/stm32wbxx_ll_bus.h **** }
1091:Drivers/STM32WBxx_HAL_Driver/Inc/stm32wbxx_ll_bus.h **** 
1092:Drivers/STM32WBxx_HAL_Driver/Inc/stm32wbxx_ll_bus.h **** /**
1093:Drivers/STM32WBxx_HAL_Driver/Inc/stm32wbxx_ll_bus.h ****   * @brief  Enable APB1 peripherals clock during Low Power (Sleep) mode.
1094:Drivers/STM32WBxx_HAL_Driver/Inc/stm32wbxx_ll_bus.h ****   * @rmtoll APB1SMENR1   TIM2SMEN      LL_APB1_GRP1_EnableClockSleep\n
1095:Drivers/STM32WBxx_HAL_Driver/Inc/stm32wbxx_ll_bus.h ****   *         APB1SMENR1   LCDSMEN       LL_APB1_GRP1_EnableClockSleep\n
1096:Drivers/STM32WBxx_HAL_Driver/Inc/stm32wbxx_ll_bus.h ****   *         APB1SMENR1   RTCAPBSMEN    LL_APB1_GRP1_EnableClockSleep\n
1097:Drivers/STM32WBxx_HAL_Driver/Inc/stm32wbxx_ll_bus.h ****   *         APB1SMENR1   WWDGSMEN      LL_APB1_GRP1_EnableClockSleep\n
1098:Drivers/STM32WBxx_HAL_Driver/Inc/stm32wbxx_ll_bus.h ****   *         APB1SMENR1   SPI2SMEN      LL_APB1_GRP1_EnableClockSleep\n
1099:Drivers/STM32WBxx_HAL_Driver/Inc/stm32wbxx_ll_bus.h ****   *         APB1SMENR1   I2C1SMEN      LL_APB1_GRP1_EnableClockSleep\n
1100:Drivers/STM32WBxx_HAL_Driver/Inc/stm32wbxx_ll_bus.h ****   *         APB1SMENR1   I2C3SMEN      LL_APB1_GRP1_EnableClockSleep\n
1101:Drivers/STM32WBxx_HAL_Driver/Inc/stm32wbxx_ll_bus.h ****   *         APB1SMENR1   CRSSMEN       LL_APB1_GRP1_EnableClockSleep\n
1102:Drivers/STM32WBxx_HAL_Driver/Inc/stm32wbxx_ll_bus.h ****   *         APB1SMENR1   USBSMEN       LL_APB1_GRP1_EnableClockSleep\n
1103:Drivers/STM32WBxx_HAL_Driver/Inc/stm32wbxx_ll_bus.h ****   *         APB1SMENR1   LPTIM1SMEN    LL_APB1_GRP1_EnableClockSleep
1104:Drivers/STM32WBxx_HAL_Driver/Inc/stm32wbxx_ll_bus.h ****   * @param  Periphs This parameter can be a combination of the following values:
1105:Drivers/STM32WBxx_HAL_Driver/Inc/stm32wbxx_ll_bus.h ****   *         @arg @ref LL_APB1_GRP1_PERIPH_TIM2
1106:Drivers/STM32WBxx_HAL_Driver/Inc/stm32wbxx_ll_bus.h ****   *         @arg @ref LL_APB1_GRP1_PERIPH_LCD
ARM GAS  /tmp/ccFx4qIG.s 			page 27


1107:Drivers/STM32WBxx_HAL_Driver/Inc/stm32wbxx_ll_bus.h ****   *         @arg @ref LL_APB1_GRP1_PERIPH_RTCAPB
1108:Drivers/STM32WBxx_HAL_Driver/Inc/stm32wbxx_ll_bus.h ****   *         @arg @ref LL_APB1_GRP1_PERIPH_WWDG
1109:Drivers/STM32WBxx_HAL_Driver/Inc/stm32wbxx_ll_bus.h ****   *         @arg @ref LL_APB1_GRP1_PERIPH_SPI2
1110:Drivers/STM32WBxx_HAL_Driver/Inc/stm32wbxx_ll_bus.h ****   *         @arg @ref LL_APB1_GRP1_PERIPH_I2C1
1111:Drivers/STM32WBxx_HAL_Driver/Inc/stm32wbxx_ll_bus.h ****   *         @arg @ref LL_APB1_GRP1_PERIPH_I2C3
1112:Drivers/STM32WBxx_HAL_Driver/Inc/stm32wbxx_ll_bus.h ****   *         @arg @ref LL_APB1_GRP1_PERIPH_CRS
1113:Drivers/STM32WBxx_HAL_Driver/Inc/stm32wbxx_ll_bus.h ****   *         @arg @ref LL_APB1_GRP1_PERIPH_USB
1114:Drivers/STM32WBxx_HAL_Driver/Inc/stm32wbxx_ll_bus.h ****   *         @arg @ref LL_APB1_GRP1_PERIPH_LPTIM1
1115:Drivers/STM32WBxx_HAL_Driver/Inc/stm32wbxx_ll_bus.h ****   * @retval None
1116:Drivers/STM32WBxx_HAL_Driver/Inc/stm32wbxx_ll_bus.h **** */
1117:Drivers/STM32WBxx_HAL_Driver/Inc/stm32wbxx_ll_bus.h **** __STATIC_INLINE void LL_APB1_GRP1_EnableClockSleep(uint32_t Periphs)
1118:Drivers/STM32WBxx_HAL_Driver/Inc/stm32wbxx_ll_bus.h **** {
1119:Drivers/STM32WBxx_HAL_Driver/Inc/stm32wbxx_ll_bus.h ****   __IO uint32_t tmpreg;
1120:Drivers/STM32WBxx_HAL_Driver/Inc/stm32wbxx_ll_bus.h ****   SET_BIT(RCC->APB1SMENR1, Periphs);
1121:Drivers/STM32WBxx_HAL_Driver/Inc/stm32wbxx_ll_bus.h ****   /* Delay after an RCC peripheral clock enabling */
1122:Drivers/STM32WBxx_HAL_Driver/Inc/stm32wbxx_ll_bus.h ****   tmpreg = READ_BIT(RCC->APB1SMENR1, Periphs);
1123:Drivers/STM32WBxx_HAL_Driver/Inc/stm32wbxx_ll_bus.h ****   (void)tmpreg;
1124:Drivers/STM32WBxx_HAL_Driver/Inc/stm32wbxx_ll_bus.h **** }
1125:Drivers/STM32WBxx_HAL_Driver/Inc/stm32wbxx_ll_bus.h **** 
1126:Drivers/STM32WBxx_HAL_Driver/Inc/stm32wbxx_ll_bus.h **** /**
1127:Drivers/STM32WBxx_HAL_Driver/Inc/stm32wbxx_ll_bus.h ****   * @brief  Enable APB1 peripherals clock during Low Power (Sleep) mode.
1128:Drivers/STM32WBxx_HAL_Driver/Inc/stm32wbxx_ll_bus.h ****   * @rmtoll APB1SMENR2   LPUART1SMEN   LL_APB1_GRP2_EnableClockSleep\n
1129:Drivers/STM32WBxx_HAL_Driver/Inc/stm32wbxx_ll_bus.h ****   *         APB1SMENR2   LPTIM2SMEN    LL_APB1_GRP2_EnableClockSleep
1130:Drivers/STM32WBxx_HAL_Driver/Inc/stm32wbxx_ll_bus.h ****   * @param  Periphs This parameter can be a combination of the following values:
1131:Drivers/STM32WBxx_HAL_Driver/Inc/stm32wbxx_ll_bus.h ****   *         @arg @ref LL_APB1_GRP2_PERIPH_LPUART1
1132:Drivers/STM32WBxx_HAL_Driver/Inc/stm32wbxx_ll_bus.h ****   *         @arg @ref LL_APB1_GRP2_PERIPH_LPTIM2
1133:Drivers/STM32WBxx_HAL_Driver/Inc/stm32wbxx_ll_bus.h ****   * @retval None
1134:Drivers/STM32WBxx_HAL_Driver/Inc/stm32wbxx_ll_bus.h **** */
1135:Drivers/STM32WBxx_HAL_Driver/Inc/stm32wbxx_ll_bus.h **** __STATIC_INLINE void LL_APB1_GRP2_EnableClockSleep(uint32_t Periphs)
1136:Drivers/STM32WBxx_HAL_Driver/Inc/stm32wbxx_ll_bus.h **** {
1137:Drivers/STM32WBxx_HAL_Driver/Inc/stm32wbxx_ll_bus.h ****   __IO uint32_t tmpreg;
1138:Drivers/STM32WBxx_HAL_Driver/Inc/stm32wbxx_ll_bus.h ****   SET_BIT(RCC->APB1SMENR2, Periphs);
1139:Drivers/STM32WBxx_HAL_Driver/Inc/stm32wbxx_ll_bus.h ****   /* Delay after an RCC peripheral clock enabling */
1140:Drivers/STM32WBxx_HAL_Driver/Inc/stm32wbxx_ll_bus.h ****   tmpreg = READ_BIT(RCC->APB1SMENR2, Periphs);
1141:Drivers/STM32WBxx_HAL_Driver/Inc/stm32wbxx_ll_bus.h ****   (void)tmpreg;
1142:Drivers/STM32WBxx_HAL_Driver/Inc/stm32wbxx_ll_bus.h **** }
1143:Drivers/STM32WBxx_HAL_Driver/Inc/stm32wbxx_ll_bus.h **** 
1144:Drivers/STM32WBxx_HAL_Driver/Inc/stm32wbxx_ll_bus.h **** /**
1145:Drivers/STM32WBxx_HAL_Driver/Inc/stm32wbxx_ll_bus.h ****   * @brief  Disable APB1 peripherals clock during Low Power (Sleep) mode.
1146:Drivers/STM32WBxx_HAL_Driver/Inc/stm32wbxx_ll_bus.h ****   * @rmtoll APB1SMENR1   TIM2SMEN      LL_APB1_GRP1_DisableClockSleep\n
1147:Drivers/STM32WBxx_HAL_Driver/Inc/stm32wbxx_ll_bus.h ****   *         APB1SMENR1   LCDSMEN       LL_APB1_GRP1_DisableClockSleep\n
1148:Drivers/STM32WBxx_HAL_Driver/Inc/stm32wbxx_ll_bus.h ****   *         APB1SMENR1   RTCAPBSMEN    LL_APB1_GRP1_DisableClockSleep\n
1149:Drivers/STM32WBxx_HAL_Driver/Inc/stm32wbxx_ll_bus.h ****   *         APB1SMENR1   WWDGSMEN      LL_APB1_GRP1_DisableClockSleep\n
1150:Drivers/STM32WBxx_HAL_Driver/Inc/stm32wbxx_ll_bus.h ****   *         APB1SMENR1   SPI2SMEN      LL_APB1_GRP1_DisableClockSleep\n
1151:Drivers/STM32WBxx_HAL_Driver/Inc/stm32wbxx_ll_bus.h ****   *         APB1SMENR1   I2C1SMEN      LL_APB1_GRP1_DisableClockSleep\n
1152:Drivers/STM32WBxx_HAL_Driver/Inc/stm32wbxx_ll_bus.h ****   *         APB1SMENR1   I2C3SMEN      LL_APB1_GRP1_DisableClockSleep\n
1153:Drivers/STM32WBxx_HAL_Driver/Inc/stm32wbxx_ll_bus.h ****   *         APB1SMENR1   CRSSMEN       LL_APB1_GRP1_DisableClockSleep\n
1154:Drivers/STM32WBxx_HAL_Driver/Inc/stm32wbxx_ll_bus.h ****   *         APB1SMENR1   USBSMEN       LL_APB1_GRP1_DisableClockSleep\n
1155:Drivers/STM32WBxx_HAL_Driver/Inc/stm32wbxx_ll_bus.h ****   *         APB1SMENR1   LPTIM1SMEN    LL_APB1_GRP1_DisableClockSleep
1156:Drivers/STM32WBxx_HAL_Driver/Inc/stm32wbxx_ll_bus.h ****   * @param  Periphs This parameter can be a combination of the following values:
1157:Drivers/STM32WBxx_HAL_Driver/Inc/stm32wbxx_ll_bus.h ****   *         @arg @ref LL_APB1_GRP1_PERIPH_TIM2
1158:Drivers/STM32WBxx_HAL_Driver/Inc/stm32wbxx_ll_bus.h ****   *         @arg @ref LL_APB1_GRP1_PERIPH_LCD
1159:Drivers/STM32WBxx_HAL_Driver/Inc/stm32wbxx_ll_bus.h ****   *         @arg @ref LL_APB1_GRP1_PERIPH_RTCAPB
1160:Drivers/STM32WBxx_HAL_Driver/Inc/stm32wbxx_ll_bus.h ****   *         @arg @ref LL_APB1_GRP1_PERIPH_WWDG
1161:Drivers/STM32WBxx_HAL_Driver/Inc/stm32wbxx_ll_bus.h ****   *         @arg @ref LL_APB1_GRP1_PERIPH_SPI2
1162:Drivers/STM32WBxx_HAL_Driver/Inc/stm32wbxx_ll_bus.h ****   *         @arg @ref LL_APB1_GRP1_PERIPH_I2C1
1163:Drivers/STM32WBxx_HAL_Driver/Inc/stm32wbxx_ll_bus.h ****   *         @arg @ref LL_APB1_GRP1_PERIPH_I2C3
ARM GAS  /tmp/ccFx4qIG.s 			page 28


1164:Drivers/STM32WBxx_HAL_Driver/Inc/stm32wbxx_ll_bus.h ****   *         @arg @ref LL_APB1_GRP1_PERIPH_CRS
1165:Drivers/STM32WBxx_HAL_Driver/Inc/stm32wbxx_ll_bus.h ****   *         @arg @ref LL_APB1_GRP1_PERIPH_USB
1166:Drivers/STM32WBxx_HAL_Driver/Inc/stm32wbxx_ll_bus.h ****   *         @arg @ref LL_APB1_GRP1_PERIPH_LPTIM1
1167:Drivers/STM32WBxx_HAL_Driver/Inc/stm32wbxx_ll_bus.h ****   * @retval None
1168:Drivers/STM32WBxx_HAL_Driver/Inc/stm32wbxx_ll_bus.h **** */
1169:Drivers/STM32WBxx_HAL_Driver/Inc/stm32wbxx_ll_bus.h **** __STATIC_INLINE void LL_APB1_GRP1_DisableClockSleep(uint32_t Periphs)
1170:Drivers/STM32WBxx_HAL_Driver/Inc/stm32wbxx_ll_bus.h **** {
1171:Drivers/STM32WBxx_HAL_Driver/Inc/stm32wbxx_ll_bus.h ****   CLEAR_BIT(RCC->APB1SMENR1, Periphs);
1172:Drivers/STM32WBxx_HAL_Driver/Inc/stm32wbxx_ll_bus.h **** }
1173:Drivers/STM32WBxx_HAL_Driver/Inc/stm32wbxx_ll_bus.h **** 
1174:Drivers/STM32WBxx_HAL_Driver/Inc/stm32wbxx_ll_bus.h **** /**
1175:Drivers/STM32WBxx_HAL_Driver/Inc/stm32wbxx_ll_bus.h ****   * @brief  Disable APB1 peripherals clock during Low Power (Sleep) mode.
1176:Drivers/STM32WBxx_HAL_Driver/Inc/stm32wbxx_ll_bus.h ****   * @rmtoll APB1SMENR2   LPUART1SMEN   LL_APB1_GRP2_DisableClockSleep\n
1177:Drivers/STM32WBxx_HAL_Driver/Inc/stm32wbxx_ll_bus.h ****   *         APB1SMENR2   LPTIM2SMEN    LL_APB1_GRP2_DisableClockSleep
1178:Drivers/STM32WBxx_HAL_Driver/Inc/stm32wbxx_ll_bus.h ****   * @param  Periphs This parameter can be a combination of the following values:
1179:Drivers/STM32WBxx_HAL_Driver/Inc/stm32wbxx_ll_bus.h ****   *         @arg @ref LL_APB1_GRP2_PERIPH_LPUART1
1180:Drivers/STM32WBxx_HAL_Driver/Inc/stm32wbxx_ll_bus.h ****   *         @arg @ref LL_APB1_GRP2_PERIPH_LPTIM2
1181:Drivers/STM32WBxx_HAL_Driver/Inc/stm32wbxx_ll_bus.h ****   * @retval None
1182:Drivers/STM32WBxx_HAL_Driver/Inc/stm32wbxx_ll_bus.h **** */
1183:Drivers/STM32WBxx_HAL_Driver/Inc/stm32wbxx_ll_bus.h **** __STATIC_INLINE void LL_APB1_GRP2_DisableClockSleep(uint32_t Periphs)
1184:Drivers/STM32WBxx_HAL_Driver/Inc/stm32wbxx_ll_bus.h **** {
1185:Drivers/STM32WBxx_HAL_Driver/Inc/stm32wbxx_ll_bus.h ****   CLEAR_BIT(RCC->APB1SMENR2, Periphs);
1186:Drivers/STM32WBxx_HAL_Driver/Inc/stm32wbxx_ll_bus.h **** }
1187:Drivers/STM32WBxx_HAL_Driver/Inc/stm32wbxx_ll_bus.h **** 
1188:Drivers/STM32WBxx_HAL_Driver/Inc/stm32wbxx_ll_bus.h **** /**
1189:Drivers/STM32WBxx_HAL_Driver/Inc/stm32wbxx_ll_bus.h ****   * @}
1190:Drivers/STM32WBxx_HAL_Driver/Inc/stm32wbxx_ll_bus.h ****   */
1191:Drivers/STM32WBxx_HAL_Driver/Inc/stm32wbxx_ll_bus.h **** 
1192:Drivers/STM32WBxx_HAL_Driver/Inc/stm32wbxx_ll_bus.h **** /** @defgroup BUS_LL_EF_APB2 APB2
1193:Drivers/STM32WBxx_HAL_Driver/Inc/stm32wbxx_ll_bus.h ****   * @{
1194:Drivers/STM32WBxx_HAL_Driver/Inc/stm32wbxx_ll_bus.h ****   */
1195:Drivers/STM32WBxx_HAL_Driver/Inc/stm32wbxx_ll_bus.h **** 
1196:Drivers/STM32WBxx_HAL_Driver/Inc/stm32wbxx_ll_bus.h **** /**
1197:Drivers/STM32WBxx_HAL_Driver/Inc/stm32wbxx_ll_bus.h ****   * @brief  Enable APB2 peripherals clock.
1198:Drivers/STM32WBxx_HAL_Driver/Inc/stm32wbxx_ll_bus.h ****   * @rmtoll APB2ENR      TIM1EN        LL_APB2_GRP1_EnableClock\n
1199:Drivers/STM32WBxx_HAL_Driver/Inc/stm32wbxx_ll_bus.h ****   *         APB2ENR      SPI1EN        LL_APB2_GRP1_EnableClock\n
1200:Drivers/STM32WBxx_HAL_Driver/Inc/stm32wbxx_ll_bus.h ****   *         APB2ENR      USART1EN      LL_APB2_GRP1_EnableClock\n
1201:Drivers/STM32WBxx_HAL_Driver/Inc/stm32wbxx_ll_bus.h ****   *         APB2ENR      TIM16EN       LL_APB2_GRP1_EnableClock\n
1202:Drivers/STM32WBxx_HAL_Driver/Inc/stm32wbxx_ll_bus.h ****   *         APB2ENR      TIM17EN       LL_APB2_GRP1_EnableClock\n
1203:Drivers/STM32WBxx_HAL_Driver/Inc/stm32wbxx_ll_bus.h ****   *         APB2ENR      SAI1EN        LL_APB2_GRP1_EnableClock
1204:Drivers/STM32WBxx_HAL_Driver/Inc/stm32wbxx_ll_bus.h ****   * @param  Periphs This parameter can be a combination of the following values:
1205:Drivers/STM32WBxx_HAL_Driver/Inc/stm32wbxx_ll_bus.h ****   *         @arg @ref LL_APB2_GRP1_PERIPH_TIM1
1206:Drivers/STM32WBxx_HAL_Driver/Inc/stm32wbxx_ll_bus.h ****   *         @arg @ref LL_APB2_GRP1_PERIPH_SPI1
1207:Drivers/STM32WBxx_HAL_Driver/Inc/stm32wbxx_ll_bus.h ****   *         @arg @ref LL_APB2_GRP1_PERIPH_USART1
1208:Drivers/STM32WBxx_HAL_Driver/Inc/stm32wbxx_ll_bus.h ****   *         @arg @ref LL_APB2_GRP1_PERIPH_TIM16
1209:Drivers/STM32WBxx_HAL_Driver/Inc/stm32wbxx_ll_bus.h ****   *         @arg @ref LL_APB2_GRP1_PERIPH_TIM17
1210:Drivers/STM32WBxx_HAL_Driver/Inc/stm32wbxx_ll_bus.h ****   *         @arg @ref LL_APB2_GRP1_PERIPH_SAI1
1211:Drivers/STM32WBxx_HAL_Driver/Inc/stm32wbxx_ll_bus.h ****   * @retval None
1212:Drivers/STM32WBxx_HAL_Driver/Inc/stm32wbxx_ll_bus.h **** */
1213:Drivers/STM32WBxx_HAL_Driver/Inc/stm32wbxx_ll_bus.h **** __STATIC_INLINE void LL_APB2_GRP1_EnableClock(uint32_t Periphs)
1214:Drivers/STM32WBxx_HAL_Driver/Inc/stm32wbxx_ll_bus.h **** {
1215:Drivers/STM32WBxx_HAL_Driver/Inc/stm32wbxx_ll_bus.h ****   __IO uint32_t tmpreg;
1216:Drivers/STM32WBxx_HAL_Driver/Inc/stm32wbxx_ll_bus.h ****   SET_BIT(RCC->APB2ENR, Periphs);
1217:Drivers/STM32WBxx_HAL_Driver/Inc/stm32wbxx_ll_bus.h ****   /* Delay after an RCC peripheral clock enabling */
1218:Drivers/STM32WBxx_HAL_Driver/Inc/stm32wbxx_ll_bus.h ****   tmpreg = READ_BIT(RCC->APB2ENR, Periphs);
1219:Drivers/STM32WBxx_HAL_Driver/Inc/stm32wbxx_ll_bus.h ****   (void)tmpreg;
1220:Drivers/STM32WBxx_HAL_Driver/Inc/stm32wbxx_ll_bus.h **** }
ARM GAS  /tmp/ccFx4qIG.s 			page 29


1221:Drivers/STM32WBxx_HAL_Driver/Inc/stm32wbxx_ll_bus.h **** 
1222:Drivers/STM32WBxx_HAL_Driver/Inc/stm32wbxx_ll_bus.h **** /**
1223:Drivers/STM32WBxx_HAL_Driver/Inc/stm32wbxx_ll_bus.h ****   * @brief  Check if APB2 peripheral clock is enabled or not
1224:Drivers/STM32WBxx_HAL_Driver/Inc/stm32wbxx_ll_bus.h ****   * @rmtoll APB2ENR      TIM1EN        LL_APB2_GRP1_IsEnabledClock\n
1225:Drivers/STM32WBxx_HAL_Driver/Inc/stm32wbxx_ll_bus.h ****   *         APB2ENR      SPI1EN        LL_APB2_GRP1_IsEnabledClock\n
1226:Drivers/STM32WBxx_HAL_Driver/Inc/stm32wbxx_ll_bus.h ****   *         APB2ENR      USART1EN      LL_APB2_GRP1_IsEnabledClock\n
1227:Drivers/STM32WBxx_HAL_Driver/Inc/stm32wbxx_ll_bus.h ****   *         APB2ENR      TIM16EN       LL_APB2_GRP1_IsEnabledClock\n
1228:Drivers/STM32WBxx_HAL_Driver/Inc/stm32wbxx_ll_bus.h ****   *         APB2ENR      TIM17EN       LL_APB2_GRP1_IsEnabledClock\n
1229:Drivers/STM32WBxx_HAL_Driver/Inc/stm32wbxx_ll_bus.h ****   *         APB2ENR      SAI1EN        LL_APB2_GRP1_IsEnabledClock
1230:Drivers/STM32WBxx_HAL_Driver/Inc/stm32wbxx_ll_bus.h ****   * @param  Periphs This parameter can be a combination of the following values:
1231:Drivers/STM32WBxx_HAL_Driver/Inc/stm32wbxx_ll_bus.h ****   *         @arg @ref LL_APB2_GRP1_PERIPH_TIM1
1232:Drivers/STM32WBxx_HAL_Driver/Inc/stm32wbxx_ll_bus.h ****   *         @arg @ref LL_APB2_GRP1_PERIPH_SPI1
1233:Drivers/STM32WBxx_HAL_Driver/Inc/stm32wbxx_ll_bus.h ****   *         @arg @ref LL_APB2_GRP1_PERIPH_USART1
1234:Drivers/STM32WBxx_HAL_Driver/Inc/stm32wbxx_ll_bus.h ****   *         @arg @ref LL_APB2_GRP1_PERIPH_TIM16
1235:Drivers/STM32WBxx_HAL_Driver/Inc/stm32wbxx_ll_bus.h ****   *         @arg @ref LL_APB2_GRP1_PERIPH_TIM17
1236:Drivers/STM32WBxx_HAL_Driver/Inc/stm32wbxx_ll_bus.h ****   *         @arg @ref LL_APB2_GRP1_PERIPH_SAI1
1237:Drivers/STM32WBxx_HAL_Driver/Inc/stm32wbxx_ll_bus.h ****   * @retval uint32_t
1238:Drivers/STM32WBxx_HAL_Driver/Inc/stm32wbxx_ll_bus.h **** */
1239:Drivers/STM32WBxx_HAL_Driver/Inc/stm32wbxx_ll_bus.h **** __STATIC_INLINE uint32_t LL_APB2_GRP1_IsEnabledClock(uint32_t Periphs)
1240:Drivers/STM32WBxx_HAL_Driver/Inc/stm32wbxx_ll_bus.h **** {
1241:Drivers/STM32WBxx_HAL_Driver/Inc/stm32wbxx_ll_bus.h ****   return ((READ_BIT(RCC->APB2ENR, Periphs) == (Periphs)) ? 1UL : 0UL);
1242:Drivers/STM32WBxx_HAL_Driver/Inc/stm32wbxx_ll_bus.h **** }
1243:Drivers/STM32WBxx_HAL_Driver/Inc/stm32wbxx_ll_bus.h **** 
1244:Drivers/STM32WBxx_HAL_Driver/Inc/stm32wbxx_ll_bus.h **** /**
1245:Drivers/STM32WBxx_HAL_Driver/Inc/stm32wbxx_ll_bus.h ****   * @brief  Disable APB2 peripherals clock.
1246:Drivers/STM32WBxx_HAL_Driver/Inc/stm32wbxx_ll_bus.h ****   * @rmtoll APB2ENR      TIM1EN        LL_APB2_GRP1_DisableClock\n
1247:Drivers/STM32WBxx_HAL_Driver/Inc/stm32wbxx_ll_bus.h ****   *         APB2ENR      SPI1EN        LL_APB2_GRP1_DisableClock\n
1248:Drivers/STM32WBxx_HAL_Driver/Inc/stm32wbxx_ll_bus.h ****   *         APB2ENR      USART1EN      LL_APB2_GRP1_DisableClock\n
1249:Drivers/STM32WBxx_HAL_Driver/Inc/stm32wbxx_ll_bus.h ****   *         APB2ENR      TIM16EN       LL_APB2_GRP1_DisableClock\n
1250:Drivers/STM32WBxx_HAL_Driver/Inc/stm32wbxx_ll_bus.h ****   *         APB2ENR      TIM17EN       LL_APB2_GRP1_DisableClock\n
1251:Drivers/STM32WBxx_HAL_Driver/Inc/stm32wbxx_ll_bus.h ****   *         APB2ENR      SAI1EN        LL_APB2_GRP1_DisableClock
1252:Drivers/STM32WBxx_HAL_Driver/Inc/stm32wbxx_ll_bus.h ****   * @param  Periphs This parameter can be a combination of the following values:
1253:Drivers/STM32WBxx_HAL_Driver/Inc/stm32wbxx_ll_bus.h ****   *         @arg @ref LL_APB2_GRP1_PERIPH_TIM1
1254:Drivers/STM32WBxx_HAL_Driver/Inc/stm32wbxx_ll_bus.h ****   *         @arg @ref LL_APB2_GRP1_PERIPH_SPI1
1255:Drivers/STM32WBxx_HAL_Driver/Inc/stm32wbxx_ll_bus.h ****   *         @arg @ref LL_APB2_GRP1_PERIPH_USART1
1256:Drivers/STM32WBxx_HAL_Driver/Inc/stm32wbxx_ll_bus.h ****   *         @arg @ref LL_APB2_GRP1_PERIPH_TIM16
1257:Drivers/STM32WBxx_HAL_Driver/Inc/stm32wbxx_ll_bus.h ****   *         @arg @ref LL_APB2_GRP1_PERIPH_TIM17
1258:Drivers/STM32WBxx_HAL_Driver/Inc/stm32wbxx_ll_bus.h ****   *         @arg @ref LL_APB2_GRP1_PERIPH_SAI1
1259:Drivers/STM32WBxx_HAL_Driver/Inc/stm32wbxx_ll_bus.h ****   * @retval None
1260:Drivers/STM32WBxx_HAL_Driver/Inc/stm32wbxx_ll_bus.h **** */
1261:Drivers/STM32WBxx_HAL_Driver/Inc/stm32wbxx_ll_bus.h **** __STATIC_INLINE void LL_APB2_GRP1_DisableClock(uint32_t Periphs)
1262:Drivers/STM32WBxx_HAL_Driver/Inc/stm32wbxx_ll_bus.h **** {
1263:Drivers/STM32WBxx_HAL_Driver/Inc/stm32wbxx_ll_bus.h ****   CLEAR_BIT(RCC->APB2ENR, Periphs);
1264:Drivers/STM32WBxx_HAL_Driver/Inc/stm32wbxx_ll_bus.h **** }
1265:Drivers/STM32WBxx_HAL_Driver/Inc/stm32wbxx_ll_bus.h **** 
1266:Drivers/STM32WBxx_HAL_Driver/Inc/stm32wbxx_ll_bus.h **** /**
1267:Drivers/STM32WBxx_HAL_Driver/Inc/stm32wbxx_ll_bus.h ****   * @brief  Force APB2 peripherals reset.
1268:Drivers/STM32WBxx_HAL_Driver/Inc/stm32wbxx_ll_bus.h ****   * @rmtoll APB2RSTR     TIM1RST       LL_APB2_GRP1_ForceReset\n
1269:Drivers/STM32WBxx_HAL_Driver/Inc/stm32wbxx_ll_bus.h ****   *         APB2RSTR     SPI1RST       LL_APB2_GRP1_ForceReset\n
1270:Drivers/STM32WBxx_HAL_Driver/Inc/stm32wbxx_ll_bus.h ****   *         APB2RSTR     USART1RST     LL_APB2_GRP1_ForceReset\n
1271:Drivers/STM32WBxx_HAL_Driver/Inc/stm32wbxx_ll_bus.h ****   *         APB2RSTR     TIM16RST      LL_APB2_GRP1_ForceReset\n
1272:Drivers/STM32WBxx_HAL_Driver/Inc/stm32wbxx_ll_bus.h ****   *         APB2RSTR     TIM17RST      LL_APB2_GRP1_ForceReset\n
1273:Drivers/STM32WBxx_HAL_Driver/Inc/stm32wbxx_ll_bus.h ****   *         APB2RSTR     SAI1RST       LL_APB2_GRP1_ForceReset
1274:Drivers/STM32WBxx_HAL_Driver/Inc/stm32wbxx_ll_bus.h ****   * @param  Periphs This parameter can be a combination of the following values:
1275:Drivers/STM32WBxx_HAL_Driver/Inc/stm32wbxx_ll_bus.h ****   *         @arg @ref LL_APB2_GRP1_PERIPH_ALL
1276:Drivers/STM32WBxx_HAL_Driver/Inc/stm32wbxx_ll_bus.h ****   *         @arg @ref LL_APB2_GRP1_PERIPH_TIM1
1277:Drivers/STM32WBxx_HAL_Driver/Inc/stm32wbxx_ll_bus.h ****   *         @arg @ref LL_APB2_GRP1_PERIPH_SPI1
ARM GAS  /tmp/ccFx4qIG.s 			page 30


1278:Drivers/STM32WBxx_HAL_Driver/Inc/stm32wbxx_ll_bus.h ****   *         @arg @ref LL_APB2_GRP1_PERIPH_USART1
1279:Drivers/STM32WBxx_HAL_Driver/Inc/stm32wbxx_ll_bus.h ****   *         @arg @ref LL_APB2_GRP1_PERIPH_TIM16
1280:Drivers/STM32WBxx_HAL_Driver/Inc/stm32wbxx_ll_bus.h ****   *         @arg @ref LL_APB2_GRP1_PERIPH_TIM17
1281:Drivers/STM32WBxx_HAL_Driver/Inc/stm32wbxx_ll_bus.h ****   *         @arg @ref LL_APB2_GRP1_PERIPH_SAI1
1282:Drivers/STM32WBxx_HAL_Driver/Inc/stm32wbxx_ll_bus.h ****   * @retval None
1283:Drivers/STM32WBxx_HAL_Driver/Inc/stm32wbxx_ll_bus.h **** */
1284:Drivers/STM32WBxx_HAL_Driver/Inc/stm32wbxx_ll_bus.h **** __STATIC_INLINE void LL_APB2_GRP1_ForceReset(uint32_t Periphs)
 138              		.loc 2 1284 22 view .LVU26
 139              	.LBB85:
1285:Drivers/STM32WBxx_HAL_Driver/Inc/stm32wbxx_ll_bus.h **** {
1286:Drivers/STM32WBxx_HAL_Driver/Inc/stm32wbxx_ll_bus.h ****   SET_BIT(RCC->APB2RSTR, Periphs);
 140              		.loc 2 1286 3 view .LVU27
 141 001c 196C     		ldr	r1, [r3, #64]
 142 001e 1A64     		str	r2, [r3, #64]
 143              	.LVL5:
 144              		.loc 2 1286 3 is_stmt 0 view .LVU28
 145              	.LBE85:
 146              	.LBE84:
 193:Drivers/STM32WBxx_HAL_Driver/Src/stm32wbxx_hal.c **** 
 147              		.loc 1 193 3 is_stmt 1 view .LVU29
 148              	.LBB86:
 149              	.LBI86:
1287:Drivers/STM32WBxx_HAL_Driver/Inc/stm32wbxx_ll_bus.h **** }
1288:Drivers/STM32WBxx_HAL_Driver/Inc/stm32wbxx_ll_bus.h **** 
1289:Drivers/STM32WBxx_HAL_Driver/Inc/stm32wbxx_ll_bus.h **** /**
1290:Drivers/STM32WBxx_HAL_Driver/Inc/stm32wbxx_ll_bus.h ****   * @brief  Release APB2 peripherals reset.
1291:Drivers/STM32WBxx_HAL_Driver/Inc/stm32wbxx_ll_bus.h ****   * @rmtoll APB2RSTR     TIM1RST       LL_APB2_GRP1_ReleaseReset\n
1292:Drivers/STM32WBxx_HAL_Driver/Inc/stm32wbxx_ll_bus.h ****   *         APB2RSTR     SPI1RST       LL_APB2_GRP1_ReleaseReset\n
1293:Drivers/STM32WBxx_HAL_Driver/Inc/stm32wbxx_ll_bus.h ****   *         APB2RSTR     USART1RST     LL_APB2_GRP1_ReleaseReset\n
1294:Drivers/STM32WBxx_HAL_Driver/Inc/stm32wbxx_ll_bus.h ****   *         APB2RSTR     TIM16RST      LL_APB2_GRP1_ReleaseReset\n
1295:Drivers/STM32WBxx_HAL_Driver/Inc/stm32wbxx_ll_bus.h ****   *         APB2RSTR     TIM17RST      LL_APB2_GRP1_ReleaseReset\n
1296:Drivers/STM32WBxx_HAL_Driver/Inc/stm32wbxx_ll_bus.h ****   *         APB2RSTR     SAI1RST       LL_APB2_GRP1_ReleaseReset
1297:Drivers/STM32WBxx_HAL_Driver/Inc/stm32wbxx_ll_bus.h ****   * @param  Periphs This parameter can be a combination of the following values:
1298:Drivers/STM32WBxx_HAL_Driver/Inc/stm32wbxx_ll_bus.h ****   *         @arg @ref LL_APB2_GRP1_PERIPH_ALL
1299:Drivers/STM32WBxx_HAL_Driver/Inc/stm32wbxx_ll_bus.h ****   *         @arg @ref LL_APB2_GRP1_PERIPH_TIM1
1300:Drivers/STM32WBxx_HAL_Driver/Inc/stm32wbxx_ll_bus.h ****   *         @arg @ref LL_APB2_GRP1_PERIPH_SPI1
1301:Drivers/STM32WBxx_HAL_Driver/Inc/stm32wbxx_ll_bus.h ****   *         @arg @ref LL_APB2_GRP1_PERIPH_USART1
1302:Drivers/STM32WBxx_HAL_Driver/Inc/stm32wbxx_ll_bus.h ****   *         @arg @ref LL_APB2_GRP1_PERIPH_TIM16
1303:Drivers/STM32WBxx_HAL_Driver/Inc/stm32wbxx_ll_bus.h ****   *         @arg @ref LL_APB2_GRP1_PERIPH_TIM17
1304:Drivers/STM32WBxx_HAL_Driver/Inc/stm32wbxx_ll_bus.h ****   *         @arg @ref LL_APB2_GRP1_PERIPH_SAI1
1305:Drivers/STM32WBxx_HAL_Driver/Inc/stm32wbxx_ll_bus.h ****   * @retval None
1306:Drivers/STM32WBxx_HAL_Driver/Inc/stm32wbxx_ll_bus.h **** */
1307:Drivers/STM32WBxx_HAL_Driver/Inc/stm32wbxx_ll_bus.h **** __STATIC_INLINE void LL_APB2_GRP1_ReleaseReset(uint32_t Periphs)
 150              		.loc 2 1307 22 view .LVU30
 151              	.LBB87:
1308:Drivers/STM32WBxx_HAL_Driver/Inc/stm32wbxx_ll_bus.h **** {
1309:Drivers/STM32WBxx_HAL_Driver/Inc/stm32wbxx_ll_bus.h ****   CLEAR_BIT(RCC->APB2RSTR, Periphs);
 152              		.loc 2 1309 3 view .LVU31
 153 0020 196C     		ldr	r1, [r3, #64]
 154 0022 1C64     		str	r4, [r3, #64]
 155              	.LVL6:
 156              		.loc 2 1309 3 is_stmt 0 view .LVU32
 157              	.LBE87:
 158              	.LBE86:
 195:Drivers/STM32WBxx_HAL_Driver/Src/stm32wbxx_hal.c ****   __HAL_RCC_APB3_RELEASE_RESET();
 159              		.loc 1 195 3 is_stmt 1 view .LVU33
 160              	.LBB88:
ARM GAS  /tmp/ccFx4qIG.s 			page 31


 161              	.LBI88:
1310:Drivers/STM32WBxx_HAL_Driver/Inc/stm32wbxx_ll_bus.h **** }
1311:Drivers/STM32WBxx_HAL_Driver/Inc/stm32wbxx_ll_bus.h **** 
1312:Drivers/STM32WBxx_HAL_Driver/Inc/stm32wbxx_ll_bus.h **** /**
1313:Drivers/STM32WBxx_HAL_Driver/Inc/stm32wbxx_ll_bus.h ****   * @brief  Enable APB2 peripherals clock during Low Power (Sleep) mode.
1314:Drivers/STM32WBxx_HAL_Driver/Inc/stm32wbxx_ll_bus.h ****   * @rmtoll APB2SMENR    TIM1SMEN      LL_APB2_GRP1_EnableClockSleep\n
1315:Drivers/STM32WBxx_HAL_Driver/Inc/stm32wbxx_ll_bus.h ****   *         APB2SMENR    SPI1SMEN      LL_APB2_GRP1_EnableClockSleep\n
1316:Drivers/STM32WBxx_HAL_Driver/Inc/stm32wbxx_ll_bus.h ****   *         APB2SMENR    USART1SMEN    LL_APB2_GRP1_EnableClockSleep\n
1317:Drivers/STM32WBxx_HAL_Driver/Inc/stm32wbxx_ll_bus.h ****   *         APB2SMENR    TIM16SMEN     LL_APB2_GRP1_EnableClockSleep\n
1318:Drivers/STM32WBxx_HAL_Driver/Inc/stm32wbxx_ll_bus.h ****   *         APB2SMENR    TIM17SMEN     LL_APB2_GRP1_EnableClockSleep\n
1319:Drivers/STM32WBxx_HAL_Driver/Inc/stm32wbxx_ll_bus.h ****   *         APB2SMENR    SAI1SMEN      LL_APB2_GRP1_EnableClockSleep
1320:Drivers/STM32WBxx_HAL_Driver/Inc/stm32wbxx_ll_bus.h ****   * @param  Periphs This parameter can be a combination of the following values:
1321:Drivers/STM32WBxx_HAL_Driver/Inc/stm32wbxx_ll_bus.h ****   *         @arg @ref LL_APB2_GRP1_PERIPH_TIM1
1322:Drivers/STM32WBxx_HAL_Driver/Inc/stm32wbxx_ll_bus.h ****   *         @arg @ref LL_APB2_GRP1_PERIPH_SPI1
1323:Drivers/STM32WBxx_HAL_Driver/Inc/stm32wbxx_ll_bus.h ****   *         @arg @ref LL_APB2_GRP1_PERIPH_USART1
1324:Drivers/STM32WBxx_HAL_Driver/Inc/stm32wbxx_ll_bus.h ****   *         @arg @ref LL_APB2_GRP1_PERIPH_TIM16
1325:Drivers/STM32WBxx_HAL_Driver/Inc/stm32wbxx_ll_bus.h ****   *         @arg @ref LL_APB2_GRP1_PERIPH_TIM17
1326:Drivers/STM32WBxx_HAL_Driver/Inc/stm32wbxx_ll_bus.h ****   *         @arg @ref LL_APB2_GRP1_PERIPH_SAI1
1327:Drivers/STM32WBxx_HAL_Driver/Inc/stm32wbxx_ll_bus.h ****   * @retval None
1328:Drivers/STM32WBxx_HAL_Driver/Inc/stm32wbxx_ll_bus.h **** */
1329:Drivers/STM32WBxx_HAL_Driver/Inc/stm32wbxx_ll_bus.h **** __STATIC_INLINE void LL_APB2_GRP1_EnableClockSleep(uint32_t Periphs)
1330:Drivers/STM32WBxx_HAL_Driver/Inc/stm32wbxx_ll_bus.h **** {
1331:Drivers/STM32WBxx_HAL_Driver/Inc/stm32wbxx_ll_bus.h ****   __IO uint32_t tmpreg;
1332:Drivers/STM32WBxx_HAL_Driver/Inc/stm32wbxx_ll_bus.h ****   SET_BIT(RCC->APB2SMENR, Periphs);
1333:Drivers/STM32WBxx_HAL_Driver/Inc/stm32wbxx_ll_bus.h ****   /* Delay after an RCC peripheral clock enabling */
1334:Drivers/STM32WBxx_HAL_Driver/Inc/stm32wbxx_ll_bus.h ****   tmpreg = READ_BIT(RCC->APB2SMENR, Periphs);
1335:Drivers/STM32WBxx_HAL_Driver/Inc/stm32wbxx_ll_bus.h ****   (void)tmpreg;
1336:Drivers/STM32WBxx_HAL_Driver/Inc/stm32wbxx_ll_bus.h **** }
1337:Drivers/STM32WBxx_HAL_Driver/Inc/stm32wbxx_ll_bus.h **** 
1338:Drivers/STM32WBxx_HAL_Driver/Inc/stm32wbxx_ll_bus.h **** /**
1339:Drivers/STM32WBxx_HAL_Driver/Inc/stm32wbxx_ll_bus.h ****   * @brief  Disable APB2 peripherals clock during Low Power (Sleep) mode.
1340:Drivers/STM32WBxx_HAL_Driver/Inc/stm32wbxx_ll_bus.h ****   * @rmtoll APB2SMENR    TIM1SMEN      LL_APB2_GRP1_DisableClockSleep\n
1341:Drivers/STM32WBxx_HAL_Driver/Inc/stm32wbxx_ll_bus.h ****   *         APB2SMENR    SPI1SMEN      LL_APB2_GRP1_DisableClockSleep\n
1342:Drivers/STM32WBxx_HAL_Driver/Inc/stm32wbxx_ll_bus.h ****   *         APB2SMENR    USART1SMEN    LL_APB2_GRP1_DisableClockSleep\n
1343:Drivers/STM32WBxx_HAL_Driver/Inc/stm32wbxx_ll_bus.h ****   *         APB2SMENR    TIM16SMEN     LL_APB2_GRP1_DisableClockSleep\n
1344:Drivers/STM32WBxx_HAL_Driver/Inc/stm32wbxx_ll_bus.h ****   *         APB2SMENR    TIM17SMEN     LL_APB2_GRP1_DisableClockSleep\n
1345:Drivers/STM32WBxx_HAL_Driver/Inc/stm32wbxx_ll_bus.h ****   *         APB2SMENR    SAI1SMEN      LL_APB2_GRP1_DisableClockSleep
1346:Drivers/STM32WBxx_HAL_Driver/Inc/stm32wbxx_ll_bus.h ****   * @param  Periphs This parameter can be a combination of the following values:
1347:Drivers/STM32WBxx_HAL_Driver/Inc/stm32wbxx_ll_bus.h ****   *         @arg @ref LL_APB2_GRP1_PERIPH_TIM1
1348:Drivers/STM32WBxx_HAL_Driver/Inc/stm32wbxx_ll_bus.h ****   *         @arg @ref LL_APB2_GRP1_PERIPH_SPI1
1349:Drivers/STM32WBxx_HAL_Driver/Inc/stm32wbxx_ll_bus.h ****   *         @arg @ref LL_APB2_GRP1_PERIPH_USART1
1350:Drivers/STM32WBxx_HAL_Driver/Inc/stm32wbxx_ll_bus.h ****   *         @arg @ref LL_APB2_GRP1_PERIPH_TIM16
1351:Drivers/STM32WBxx_HAL_Driver/Inc/stm32wbxx_ll_bus.h ****   *         @arg @ref LL_APB2_GRP1_PERIPH_TIM17
1352:Drivers/STM32WBxx_HAL_Driver/Inc/stm32wbxx_ll_bus.h ****   *         @arg @ref LL_APB2_GRP1_PERIPH_SAI1
1353:Drivers/STM32WBxx_HAL_Driver/Inc/stm32wbxx_ll_bus.h ****   * @retval None
1354:Drivers/STM32WBxx_HAL_Driver/Inc/stm32wbxx_ll_bus.h **** */
1355:Drivers/STM32WBxx_HAL_Driver/Inc/stm32wbxx_ll_bus.h **** __STATIC_INLINE void LL_APB2_GRP1_DisableClockSleep(uint32_t Periphs)
1356:Drivers/STM32WBxx_HAL_Driver/Inc/stm32wbxx_ll_bus.h **** {
1357:Drivers/STM32WBxx_HAL_Driver/Inc/stm32wbxx_ll_bus.h ****   CLEAR_BIT(RCC->APB2SMENR, Periphs);
1358:Drivers/STM32WBxx_HAL_Driver/Inc/stm32wbxx_ll_bus.h **** }
1359:Drivers/STM32WBxx_HAL_Driver/Inc/stm32wbxx_ll_bus.h **** 
1360:Drivers/STM32WBxx_HAL_Driver/Inc/stm32wbxx_ll_bus.h **** /**
1361:Drivers/STM32WBxx_HAL_Driver/Inc/stm32wbxx_ll_bus.h ****   * @}
1362:Drivers/STM32WBxx_HAL_Driver/Inc/stm32wbxx_ll_bus.h ****   */
1363:Drivers/STM32WBxx_HAL_Driver/Inc/stm32wbxx_ll_bus.h **** 
1364:Drivers/STM32WBxx_HAL_Driver/Inc/stm32wbxx_ll_bus.h **** /** @defgroup BUS_LL_EF_APB3 APB3
1365:Drivers/STM32WBxx_HAL_Driver/Inc/stm32wbxx_ll_bus.h ****   * @{
ARM GAS  /tmp/ccFx4qIG.s 			page 32


1366:Drivers/STM32WBxx_HAL_Driver/Inc/stm32wbxx_ll_bus.h ****   */
1367:Drivers/STM32WBxx_HAL_Driver/Inc/stm32wbxx_ll_bus.h **** 
1368:Drivers/STM32WBxx_HAL_Driver/Inc/stm32wbxx_ll_bus.h **** /**
1369:Drivers/STM32WBxx_HAL_Driver/Inc/stm32wbxx_ll_bus.h ****   * @brief  Force APB3 peripherals reset.
1370:Drivers/STM32WBxx_HAL_Driver/Inc/stm32wbxx_ll_bus.h ****   * @rmtoll APB3RSTR     RFRST        LL_APB3_GRP1_ForceReset
1371:Drivers/STM32WBxx_HAL_Driver/Inc/stm32wbxx_ll_bus.h ****   * @param  Periphs This parameter can be a combination of the following values:
1372:Drivers/STM32WBxx_HAL_Driver/Inc/stm32wbxx_ll_bus.h ****   *         @arg @ref LL_APB3_GRP1_PERIPH_RF
1373:Drivers/STM32WBxx_HAL_Driver/Inc/stm32wbxx_ll_bus.h ****   * @retval None
1374:Drivers/STM32WBxx_HAL_Driver/Inc/stm32wbxx_ll_bus.h **** */
1375:Drivers/STM32WBxx_HAL_Driver/Inc/stm32wbxx_ll_bus.h **** __STATIC_INLINE void LL_APB3_GRP1_ForceReset(uint32_t Periphs)
 162              		.loc 2 1375 22 view .LVU34
 163              	.LBB89:
1376:Drivers/STM32WBxx_HAL_Driver/Inc/stm32wbxx_ll_bus.h **** {
1377:Drivers/STM32WBxx_HAL_Driver/Inc/stm32wbxx_ll_bus.h ****   SET_BIT(RCC->APB3RSTR, Periphs);
 164              		.loc 2 1377 3 view .LVU35
 165 0024 596C     		ldr	r1, [r3, #68]
 166 0026 5A64     		str	r2, [r3, #68]
 167              	.LVL7:
 168              		.loc 2 1377 3 is_stmt 0 view .LVU36
 169              	.LBE89:
 170              	.LBE88:
 196:Drivers/STM32WBxx_HAL_Driver/Src/stm32wbxx_hal.c ****   
 171              		.loc 1 196 3 is_stmt 1 view .LVU37
 172              	.LBB90:
 173              	.LBI90:
1378:Drivers/STM32WBxx_HAL_Driver/Inc/stm32wbxx_ll_bus.h **** }
1379:Drivers/STM32WBxx_HAL_Driver/Inc/stm32wbxx_ll_bus.h **** 
1380:Drivers/STM32WBxx_HAL_Driver/Inc/stm32wbxx_ll_bus.h **** /**
1381:Drivers/STM32WBxx_HAL_Driver/Inc/stm32wbxx_ll_bus.h ****   * @brief  Release APB3 peripherals reset.
1382:Drivers/STM32WBxx_HAL_Driver/Inc/stm32wbxx_ll_bus.h ****   * @rmtoll APB3RSTR     RFRST        LL_APB3_GRP1_ReleaseReset
1383:Drivers/STM32WBxx_HAL_Driver/Inc/stm32wbxx_ll_bus.h ****   * @param  Periphs This parameter can be a combination of the following values:
1384:Drivers/STM32WBxx_HAL_Driver/Inc/stm32wbxx_ll_bus.h ****   *         @arg @ref LL_APB3_GRP1_PERIPH_RF
1385:Drivers/STM32WBxx_HAL_Driver/Inc/stm32wbxx_ll_bus.h ****   * @retval None
1386:Drivers/STM32WBxx_HAL_Driver/Inc/stm32wbxx_ll_bus.h **** */
1387:Drivers/STM32WBxx_HAL_Driver/Inc/stm32wbxx_ll_bus.h **** __STATIC_INLINE void LL_APB3_GRP1_ReleaseReset(uint32_t Periphs)
 174              		.loc 2 1387 22 view .LVU38
 175              	.LBB91:
1388:Drivers/STM32WBxx_HAL_Driver/Inc/stm32wbxx_ll_bus.h **** {
1389:Drivers/STM32WBxx_HAL_Driver/Inc/stm32wbxx_ll_bus.h ****   CLEAR_BIT(RCC->APB3RSTR, Periphs);
 176              		.loc 2 1389 3 view .LVU39
 177 0028 596C     		ldr	r1, [r3, #68]
 178 002a 5C64     		str	r4, [r3, #68]
 179              	.LVL8:
 180              		.loc 2 1389 3 is_stmt 0 view .LVU40
 181              	.LBE91:
 182              	.LBE90:
 198:Drivers/STM32WBxx_HAL_Driver/Src/stm32wbxx_hal.c ****   __HAL_RCC_AHB1_RELEASE_RESET();
 183              		.loc 1 198 3 is_stmt 1 view .LVU41
 184              	.LBB92:
 185              	.LBI92:
 405:Drivers/STM32WBxx_HAL_Driver/Inc/stm32wbxx_ll_bus.h **** {
 186              		.loc 2 405 22 view .LVU42
 187              	.LBB93:
 407:Drivers/STM32WBxx_HAL_Driver/Inc/stm32wbxx_ll_bus.h **** }
 188              		.loc 2 407 3 view .LVU43
 189 002c 996A     		ldr	r1, [r3, #40]
 190 002e 9A62     		str	r2, [r3, #40]
ARM GAS  /tmp/ccFx4qIG.s 			page 33


 191              	.LVL9:
 407:Drivers/STM32WBxx_HAL_Driver/Inc/stm32wbxx_ll_bus.h **** }
 192              		.loc 2 407 3 is_stmt 0 view .LVU44
 193              	.LBE93:
 194              	.LBE92:
 199:Drivers/STM32WBxx_HAL_Driver/Src/stm32wbxx_hal.c **** 
 195              		.loc 1 199 3 is_stmt 1 view .LVU45
 196              	.LBB94:
 197              	.LBI94:
 426:Drivers/STM32WBxx_HAL_Driver/Inc/stm32wbxx_ll_bus.h **** {
 198              		.loc 2 426 22 view .LVU46
 199              	.LBB95:
 428:Drivers/STM32WBxx_HAL_Driver/Inc/stm32wbxx_ll_bus.h **** }
 200              		.loc 2 428 3 view .LVU47
 201 0030 996A     		ldr	r1, [r3, #40]
 202 0032 9C62     		str	r4, [r3, #40]
 203              	.LVL10:
 428:Drivers/STM32WBxx_HAL_Driver/Inc/stm32wbxx_ll_bus.h **** }
 204              		.loc 2 428 3 is_stmt 0 view .LVU48
 205              	.LBE95:
 206              	.LBE94:
 201:Drivers/STM32WBxx_HAL_Driver/Src/stm32wbxx_hal.c ****   __HAL_RCC_AHB2_RELEASE_RESET();
 207              		.loc 1 201 3 is_stmt 1 view .LVU49
 208              	.LBB96:
 209              	.LBI96:
 591:Drivers/STM32WBxx_HAL_Driver/Inc/stm32wbxx_ll_bus.h **** {
 210              		.loc 2 591 22 view .LVU50
 211              	.LBB97:
 593:Drivers/STM32WBxx_HAL_Driver/Inc/stm32wbxx_ll_bus.h **** }
 212              		.loc 2 593 3 view .LVU51
 213 0034 D96A     		ldr	r1, [r3, #44]
 214 0036 DA62     		str	r2, [r3, #44]
 215              	.LVL11:
 593:Drivers/STM32WBxx_HAL_Driver/Inc/stm32wbxx_ll_bus.h **** }
 216              		.loc 2 593 3 is_stmt 0 view .LVU52
 217              	.LBE97:
 218              	.LBE96:
 202:Drivers/STM32WBxx_HAL_Driver/Src/stm32wbxx_hal.c **** 
 219              		.loc 1 202 3 is_stmt 1 view .LVU53
 220              	.LBB98:
 221              	.LBI98:
 618:Drivers/STM32WBxx_HAL_Driver/Inc/stm32wbxx_ll_bus.h **** {
 222              		.loc 2 618 22 view .LVU54
 223              	.LBB99:
 620:Drivers/STM32WBxx_HAL_Driver/Inc/stm32wbxx_ll_bus.h **** }
 224              		.loc 2 620 3 view .LVU55
 225 0038 D96A     		ldr	r1, [r3, #44]
 226 003a DC62     		str	r4, [r3, #44]
 227              	.LVL12:
 620:Drivers/STM32WBxx_HAL_Driver/Inc/stm32wbxx_ll_bus.h **** }
 228              		.loc 2 620 3 is_stmt 0 view .LVU56
 229              	.LBE99:
 230              	.LBE98:
 204:Drivers/STM32WBxx_HAL_Driver/Src/stm32wbxx_hal.c ****   __HAL_RCC_AHB3_RELEASE_RESET();
 231              		.loc 1 204 3 is_stmt 1 view .LVU57
 232              	.LBB100:
 233              	.LBI100:
ARM GAS  /tmp/ccFx4qIG.s 			page 34


 783:Drivers/STM32WBxx_HAL_Driver/Inc/stm32wbxx_ll_bus.h **** {
 234              		.loc 2 783 22 view .LVU58
 235              	.LBB101:
 785:Drivers/STM32WBxx_HAL_Driver/Inc/stm32wbxx_ll_bus.h **** }
 236              		.loc 2 785 3 view .LVU59
 237 003c 196B     		ldr	r1, [r3, #48]
 238 003e 1A63     		str	r2, [r3, #48]
 239              	.LVL13:
 785:Drivers/STM32WBxx_HAL_Driver/Inc/stm32wbxx_ll_bus.h **** }
 240              		.loc 2 785 3 is_stmt 0 view .LVU60
 241              	.LBE101:
 242              	.LBE100:
 205:Drivers/STM32WBxx_HAL_Driver/Src/stm32wbxx_hal.c **** 
 243              		.loc 1 205 3 is_stmt 1 view .LVU61
 244              	.LBB102:
 245              	.LBI102:
 808:Drivers/STM32WBxx_HAL_Driver/Inc/stm32wbxx_ll_bus.h **** {
 246              		.loc 2 808 22 view .LVU62
 247              	.LBB103:
 810:Drivers/STM32WBxx_HAL_Driver/Inc/stm32wbxx_ll_bus.h **** }
 248              		.loc 2 810 3 view .LVU63
 249 0040 1A6B     		ldr	r2, [r3, #48]
 250 0042 1C63     		str	r4, [r3, #48]
 251              	.LVL14:
 810:Drivers/STM32WBxx_HAL_Driver/Inc/stm32wbxx_ll_bus.h **** }
 252              		.loc 2 810 3 is_stmt 0 view .LVU64
 253              	.LBE103:
 254              	.LBE102:
 208:Drivers/STM32WBxx_HAL_Driver/Src/stm32wbxx_hal.c **** 
 255              		.loc 1 208 3 is_stmt 1 view .LVU65
 256 0044 FFF7FEFF 		bl	HAL_MspDeInit
 257              	.LVL15:
 211:Drivers/STM32WBxx_HAL_Driver/Src/stm32wbxx_hal.c **** }
 258              		.loc 1 211 3 view .LVU66
 212:Drivers/STM32WBxx_HAL_Driver/Src/stm32wbxx_hal.c **** 
 259              		.loc 1 212 1 is_stmt 0 view .LVU67
 260 0048 2046     		mov	r0, r4
 261 004a 10BD     		pop	{r4, pc}
 262              		.cfi_endproc
 263              	.LFE942:
 265              		.section	.text.HAL_InitTick,"ax",%progbits
 266              		.align	1
 267              		.weak	HAL_InitTick
 268              		.syntax unified
 269              		.thumb
 270              		.thumb_func
 271              		.fpu fpv4-sp-d16
 273              	HAL_InitTick:
 274              	.LVL16:
 275              	.LFB945:
 235:Drivers/STM32WBxx_HAL_Driver/Src/stm32wbxx_hal.c **** 
 236:Drivers/STM32WBxx_HAL_Driver/Src/stm32wbxx_hal.c **** /**
 237:Drivers/STM32WBxx_HAL_Driver/Src/stm32wbxx_hal.c ****   * @brief This function configures the source of the time base:
 238:Drivers/STM32WBxx_HAL_Driver/Src/stm32wbxx_hal.c ****   *        The time source is configured  to have 1ms time base with a dedicated
 239:Drivers/STM32WBxx_HAL_Driver/Src/stm32wbxx_hal.c ****   *        Tick interrupt priority.
 240:Drivers/STM32WBxx_HAL_Driver/Src/stm32wbxx_hal.c ****   * @note This function is called  automatically at the beginning of program after
 241:Drivers/STM32WBxx_HAL_Driver/Src/stm32wbxx_hal.c ****   *       reset by HAL_Init() or at any time when clock is reconfigured  by HAL_RCC_ClockConfig().
ARM GAS  /tmp/ccFx4qIG.s 			page 35


 242:Drivers/STM32WBxx_HAL_Driver/Src/stm32wbxx_hal.c ****   * @note In the default implementation, SysTick timer is the source of time base.
 243:Drivers/STM32WBxx_HAL_Driver/Src/stm32wbxx_hal.c ****   *       It is used to generate interrupts at regular time intervals.
 244:Drivers/STM32WBxx_HAL_Driver/Src/stm32wbxx_hal.c ****   *       Care must be taken if HAL_Delay() is called from a peripheral ISR process,
 245:Drivers/STM32WBxx_HAL_Driver/Src/stm32wbxx_hal.c ****   *       The SysTick interrupt must have higher priority (numerically lower)
 246:Drivers/STM32WBxx_HAL_Driver/Src/stm32wbxx_hal.c ****   *       than the peripheral interrupt. Otherwise the caller ISR process will be blocked.
 247:Drivers/STM32WBxx_HAL_Driver/Src/stm32wbxx_hal.c ****   *       The function is declared as __weak  to be overwritten  in case of other
 248:Drivers/STM32WBxx_HAL_Driver/Src/stm32wbxx_hal.c ****   *       implementation  in user file.
 249:Drivers/STM32WBxx_HAL_Driver/Src/stm32wbxx_hal.c ****   * @param TickPriority Tick interrupt priority.
 250:Drivers/STM32WBxx_HAL_Driver/Src/stm32wbxx_hal.c ****   * @retval HAL status
 251:Drivers/STM32WBxx_HAL_Driver/Src/stm32wbxx_hal.c ****   */
 252:Drivers/STM32WBxx_HAL_Driver/Src/stm32wbxx_hal.c **** __weak HAL_StatusTypeDef HAL_InitTick(uint32_t TickPriority)
 253:Drivers/STM32WBxx_HAL_Driver/Src/stm32wbxx_hal.c **** {
 276              		.loc 1 253 1 is_stmt 1 view -0
 277              		.cfi_startproc
 278              		@ args = 0, pretend = 0, frame = 0
 279              		@ frame_needed = 0, uses_anonymous_args = 0
 254:Drivers/STM32WBxx_HAL_Driver/Src/stm32wbxx_hal.c ****   HAL_StatusTypeDef  status = HAL_OK;
 280              		.loc 1 254 3 view .LVU69
 255:Drivers/STM32WBxx_HAL_Driver/Src/stm32wbxx_hal.c **** 
 256:Drivers/STM32WBxx_HAL_Driver/Src/stm32wbxx_hal.c ****   if (uwTickFreq != 0U)
 281              		.loc 1 256 3 view .LVU70
 282              		.loc 1 256 18 is_stmt 0 view .LVU71
 283 0000 114B     		ldr	r3, .L16
 284 0002 1B68     		ldr	r3, [r3]
 285              		.loc 1 256 6 view .LVU72
 286 0004 0BB9     		cbnz	r3, .L14
 257:Drivers/STM32WBxx_HAL_Driver/Src/stm32wbxx_hal.c ****   {
 258:Drivers/STM32WBxx_HAL_Driver/Src/stm32wbxx_hal.c ****     /*Configure the SysTick to have interrupt in 1ms time basis*/
 259:Drivers/STM32WBxx_HAL_Driver/Src/stm32wbxx_hal.c ****     if (HAL_SYSTICK_Config(HAL_RCC_GetHCLKFreq()/ (1000U /uwTickFreq)) == 0U)
 260:Drivers/STM32WBxx_HAL_Driver/Src/stm32wbxx_hal.c ****     {
 261:Drivers/STM32WBxx_HAL_Driver/Src/stm32wbxx_hal.c ****       /* Configure the SysTick IRQ priority */
 262:Drivers/STM32WBxx_HAL_Driver/Src/stm32wbxx_hal.c ****       if (TickPriority < (1UL << __NVIC_PRIO_BITS))
 263:Drivers/STM32WBxx_HAL_Driver/Src/stm32wbxx_hal.c ****       {
 264:Drivers/STM32WBxx_HAL_Driver/Src/stm32wbxx_hal.c ****         HAL_NVIC_SetPriority(SysTick_IRQn, TickPriority, 0U);
 265:Drivers/STM32WBxx_HAL_Driver/Src/stm32wbxx_hal.c ****         uwTickPrio = TickPriority;
 266:Drivers/STM32WBxx_HAL_Driver/Src/stm32wbxx_hal.c ****       }
 267:Drivers/STM32WBxx_HAL_Driver/Src/stm32wbxx_hal.c ****       else
 268:Drivers/STM32WBxx_HAL_Driver/Src/stm32wbxx_hal.c ****       {
 269:Drivers/STM32WBxx_HAL_Driver/Src/stm32wbxx_hal.c ****         status = HAL_ERROR;
 270:Drivers/STM32WBxx_HAL_Driver/Src/stm32wbxx_hal.c ****       }
 271:Drivers/STM32WBxx_HAL_Driver/Src/stm32wbxx_hal.c ****     }
 272:Drivers/STM32WBxx_HAL_Driver/Src/stm32wbxx_hal.c ****     else
 273:Drivers/STM32WBxx_HAL_Driver/Src/stm32wbxx_hal.c ****     {  
 274:Drivers/STM32WBxx_HAL_Driver/Src/stm32wbxx_hal.c ****       status = HAL_ERROR;
 275:Drivers/STM32WBxx_HAL_Driver/Src/stm32wbxx_hal.c ****     }
 276:Drivers/STM32WBxx_HAL_Driver/Src/stm32wbxx_hal.c ****   }
 277:Drivers/STM32WBxx_HAL_Driver/Src/stm32wbxx_hal.c ****   else
 278:Drivers/STM32WBxx_HAL_Driver/Src/stm32wbxx_hal.c ****   {
 279:Drivers/STM32WBxx_HAL_Driver/Src/stm32wbxx_hal.c ****     status = HAL_ERROR;
 287              		.loc 1 279 12 view .LVU73
 288 0006 0120     		movs	r0, #1
 289              	.LVL17:
 280:Drivers/STM32WBxx_HAL_Driver/Src/stm32wbxx_hal.c ****   }
 281:Drivers/STM32WBxx_HAL_Driver/Src/stm32wbxx_hal.c **** 
 282:Drivers/STM32WBxx_HAL_Driver/Src/stm32wbxx_hal.c ****   /* Return function status */
 283:Drivers/STM32WBxx_HAL_Driver/Src/stm32wbxx_hal.c ****   return status;
 290              		.loc 1 283 3 is_stmt 1 view .LVU74
ARM GAS  /tmp/ccFx4qIG.s 			page 36


 284:Drivers/STM32WBxx_HAL_Driver/Src/stm32wbxx_hal.c **** }
 291              		.loc 1 284 1 is_stmt 0 view .LVU75
 292 0008 7047     		bx	lr
 293              	.LVL18:
 294              	.L14:
 253:Drivers/STM32WBxx_HAL_Driver/Src/stm32wbxx_hal.c ****   HAL_StatusTypeDef  status = HAL_OK;
 295              		.loc 1 253 1 view .LVU76
 296 000a 10B5     		push	{r4, lr}
 297              	.LCFI1:
 298              		.cfi_def_cfa_offset 8
 299              		.cfi_offset 4, -8
 300              		.cfi_offset 14, -4
 301 000c 0446     		mov	r4, r0
 259:Drivers/STM32WBxx_HAL_Driver/Src/stm32wbxx_hal.c ****     {
 302              		.loc 1 259 5 is_stmt 1 view .LVU77
 259:Drivers/STM32WBxx_HAL_Driver/Src/stm32wbxx_hal.c ****     {
 303              		.loc 1 259 28 is_stmt 0 view .LVU78
 304 000e FFF7FEFF 		bl	HAL_RCC_GetHCLKFreq
 305              	.LVL19:
 259:Drivers/STM32WBxx_HAL_Driver/Src/stm32wbxx_hal.c ****     {
 306              		.loc 1 259 58 view .LVU79
 307 0012 0D4B     		ldr	r3, .L16
 308 0014 1A68     		ldr	r2, [r3]
 309 0016 4FF47A73 		mov	r3, #1000
 310 001a B3FBF2F3 		udiv	r3, r3, r2
 259:Drivers/STM32WBxx_HAL_Driver/Src/stm32wbxx_hal.c ****     {
 311              		.loc 1 259 9 view .LVU80
 312 001e B0FBF3F0 		udiv	r0, r0, r3
 313 0022 FFF7FEFF 		bl	HAL_SYSTICK_Config
 314              	.LVL20:
 259:Drivers/STM32WBxx_HAL_Driver/Src/stm32wbxx_hal.c ****     {
 315              		.loc 1 259 8 view .LVU81
 316 0026 68B9     		cbnz	r0, .L8
 262:Drivers/STM32WBxx_HAL_Driver/Src/stm32wbxx_hal.c ****       {
 317              		.loc 1 262 7 is_stmt 1 view .LVU82
 262:Drivers/STM32WBxx_HAL_Driver/Src/stm32wbxx_hal.c ****       {
 318              		.loc 1 262 10 is_stmt 0 view .LVU83
 319 0028 0F2C     		cmp	r4, #15
 320 002a 01D9     		bls	.L15
 269:Drivers/STM32WBxx_HAL_Driver/Src/stm32wbxx_hal.c ****       }
 321              		.loc 1 269 16 view .LVU84
 322 002c 0120     		movs	r0, #1
 323 002e 0AE0     		b	.L6
 324              	.L15:
 264:Drivers/STM32WBxx_HAL_Driver/Src/stm32wbxx_hal.c ****         uwTickPrio = TickPriority;
 325              		.loc 1 264 9 is_stmt 1 view .LVU85
 326 0030 0022     		movs	r2, #0
 327 0032 2146     		mov	r1, r4
 328 0034 4FF0FF30 		mov	r0, #-1
 329 0038 FFF7FEFF 		bl	HAL_NVIC_SetPriority
 330              	.LVL21:
 265:Drivers/STM32WBxx_HAL_Driver/Src/stm32wbxx_hal.c ****       }
 331              		.loc 1 265 9 view .LVU86
 265:Drivers/STM32WBxx_HAL_Driver/Src/stm32wbxx_hal.c ****       }
 332              		.loc 1 265 20 is_stmt 0 view .LVU87
 333 003c 034B     		ldr	r3, .L16+4
 334 003e 1C60     		str	r4, [r3]
ARM GAS  /tmp/ccFx4qIG.s 			page 37


 254:Drivers/STM32WBxx_HAL_Driver/Src/stm32wbxx_hal.c **** 
 335              		.loc 1 254 22 view .LVU88
 336 0040 0020     		movs	r0, #0
 337 0042 00E0     		b	.L6
 338              	.L8:
 274:Drivers/STM32WBxx_HAL_Driver/Src/stm32wbxx_hal.c ****     }
 339              		.loc 1 274 14 view .LVU89
 340 0044 0120     		movs	r0, #1
 341              	.L6:
 342              	.LVL22:
 283:Drivers/STM32WBxx_HAL_Driver/Src/stm32wbxx_hal.c **** }
 343              		.loc 1 283 3 is_stmt 1 view .LVU90
 344              		.loc 1 284 1 is_stmt 0 view .LVU91
 345 0046 10BD     		pop	{r4, pc}
 346              	.LVL23:
 347              	.L17:
 348              		.loc 1 284 1 view .LVU92
 349              		.align	2
 350              	.L16:
 351 0048 00000000 		.word	.LANCHOR0
 352 004c 00000000 		.word	.LANCHOR1
 353              		.cfi_endproc
 354              	.LFE945:
 356              		.section	.text.HAL_Init,"ax",%progbits
 357              		.align	1
 358              		.global	HAL_Init
 359              		.syntax unified
 360              		.thumb
 361              		.thumb_func
 362              		.fpu fpv4-sp-d16
 364              	HAL_Init:
 365              	.LFB941:
 144:Drivers/STM32WBxx_HAL_Driver/Src/stm32wbxx_hal.c ****   HAL_StatusTypeDef  status = HAL_OK;
 366              		.loc 1 144 1 is_stmt 1 view -0
 367              		.cfi_startproc
 368              		@ args = 0, pretend = 0, frame = 0
 369              		@ frame_needed = 0, uses_anonymous_args = 0
 370 0000 10B5     		push	{r4, lr}
 371              	.LCFI2:
 372              		.cfi_def_cfa_offset 8
 373              		.cfi_offset 4, -8
 374              		.cfi_offset 14, -4
 145:Drivers/STM32WBxx_HAL_Driver/Src/stm32wbxx_hal.c ****   /* Configure Flash prefetch, Instruction cache, Data cache */
 375              		.loc 1 145 3 view .LVU94
 376              	.LVL24:
 160:Drivers/STM32WBxx_HAL_Driver/Src/stm32wbxx_hal.c **** #endif /* PREFETCH_ENABLE */
 377              		.loc 1 160 3 view .LVU95
 378 0002 094A     		ldr	r2, .L23
 379 0004 1368     		ldr	r3, [r2]
 380 0006 43F48073 		orr	r3, r3, #256
 381 000a 1360     		str	r3, [r2]
 164:Drivers/STM32WBxx_HAL_Driver/Src/stm32wbxx_hal.c ****   
 382              		.loc 1 164 3 view .LVU96
 383 000c 0320     		movs	r0, #3
 384 000e FFF7FEFF 		bl	HAL_NVIC_SetPriorityGrouping
 385              	.LVL25:
 167:Drivers/STM32WBxx_HAL_Driver/Src/stm32wbxx_hal.c ****   {
ARM GAS  /tmp/ccFx4qIG.s 			page 38


 386              		.loc 1 167 3 view .LVU97
 167:Drivers/STM32WBxx_HAL_Driver/Src/stm32wbxx_hal.c ****   {
 387              		.loc 1 167 7 is_stmt 0 view .LVU98
 388 0012 0020     		movs	r0, #0
 389 0014 FFF7FEFF 		bl	HAL_InitTick
 390              	.LVL26:
 167:Drivers/STM32WBxx_HAL_Driver/Src/stm32wbxx_hal.c ****   {
 391              		.loc 1 167 6 view .LVU99
 392 0018 10B1     		cbz	r0, .L22
 169:Drivers/STM32WBxx_HAL_Driver/Src/stm32wbxx_hal.c ****   }
 393              		.loc 1 169 12 view .LVU100
 394 001a 0124     		movs	r4, #1
 395              	.L19:
 396              	.LVL27:
 178:Drivers/STM32WBxx_HAL_Driver/Src/stm32wbxx_hal.c **** }
 397              		.loc 1 178 3 is_stmt 1 view .LVU101
 179:Drivers/STM32WBxx_HAL_Driver/Src/stm32wbxx_hal.c **** 
 398              		.loc 1 179 1 is_stmt 0 view .LVU102
 399 001c 2046     		mov	r0, r4
 400 001e 10BD     		pop	{r4, pc}
 401              	.LVL28:
 402              	.L22:
 179:Drivers/STM32WBxx_HAL_Driver/Src/stm32wbxx_hal.c **** 
 403              		.loc 1 179 1 view .LVU103
 404 0020 0446     		mov	r4, r0
 174:Drivers/STM32WBxx_HAL_Driver/Src/stm32wbxx_hal.c ****   }
 405              		.loc 1 174 5 is_stmt 1 view .LVU104
 406 0022 FFF7FEFF 		bl	HAL_MspInit
 407              	.LVL29:
 408 0026 F9E7     		b	.L19
 409              	.L24:
 410              		.align	2
 411              	.L23:
 412 0028 00400058 		.word	1476411392
 413              		.cfi_endproc
 414              	.LFE941:
 416              		.section	.text.HAL_IncTick,"ax",%progbits
 417              		.align	1
 418              		.weak	HAL_IncTick
 419              		.syntax unified
 420              		.thumb
 421              		.thumb_func
 422              		.fpu fpv4-sp-d16
 424              	HAL_IncTick:
 425              	.LFB946:
 285:Drivers/STM32WBxx_HAL_Driver/Src/stm32wbxx_hal.c **** 
 286:Drivers/STM32WBxx_HAL_Driver/Src/stm32wbxx_hal.c **** /**
 287:Drivers/STM32WBxx_HAL_Driver/Src/stm32wbxx_hal.c ****   * @}
 288:Drivers/STM32WBxx_HAL_Driver/Src/stm32wbxx_hal.c ****   */
 289:Drivers/STM32WBxx_HAL_Driver/Src/stm32wbxx_hal.c **** 
 290:Drivers/STM32WBxx_HAL_Driver/Src/stm32wbxx_hal.c **** /** @addtogroup HAL_Exported_Functions_Group2
 291:Drivers/STM32WBxx_HAL_Driver/Src/stm32wbxx_hal.c ****  *  @brief    HAL Control functions
 292:Drivers/STM32WBxx_HAL_Driver/Src/stm32wbxx_hal.c ****  *
 293:Drivers/STM32WBxx_HAL_Driver/Src/stm32wbxx_hal.c **** @verbatim
 294:Drivers/STM32WBxx_HAL_Driver/Src/stm32wbxx_hal.c ****  ===============================================================================
 295:Drivers/STM32WBxx_HAL_Driver/Src/stm32wbxx_hal.c ****                       ##### HAL Control functions #####
 296:Drivers/STM32WBxx_HAL_Driver/Src/stm32wbxx_hal.c ****  ===============================================================================
ARM GAS  /tmp/ccFx4qIG.s 			page 39


 297:Drivers/STM32WBxx_HAL_Driver/Src/stm32wbxx_hal.c ****     [..]  This section provides functions allowing to:
 298:Drivers/STM32WBxx_HAL_Driver/Src/stm32wbxx_hal.c ****       (+) Provide a tick value in millisecond
 299:Drivers/STM32WBxx_HAL_Driver/Src/stm32wbxx_hal.c ****       (+) Provide a blocking delay in millisecond
 300:Drivers/STM32WBxx_HAL_Driver/Src/stm32wbxx_hal.c ****       (+) Suspend the time base source interrupt
 301:Drivers/STM32WBxx_HAL_Driver/Src/stm32wbxx_hal.c ****       (+) Resume the time base source interrupt
 302:Drivers/STM32WBxx_HAL_Driver/Src/stm32wbxx_hal.c ****       (+) Get the HAL API driver version
 303:Drivers/STM32WBxx_HAL_Driver/Src/stm32wbxx_hal.c ****       (+) Get the device revision identifier
 304:Drivers/STM32WBxx_HAL_Driver/Src/stm32wbxx_hal.c ****       (+) Get the device identifier
 305:Drivers/STM32WBxx_HAL_Driver/Src/stm32wbxx_hal.c ****       (+) Get the unique device identifier
 306:Drivers/STM32WBxx_HAL_Driver/Src/stm32wbxx_hal.c **** 
 307:Drivers/STM32WBxx_HAL_Driver/Src/stm32wbxx_hal.c **** @endverbatim
 308:Drivers/STM32WBxx_HAL_Driver/Src/stm32wbxx_hal.c ****   * @{
 309:Drivers/STM32WBxx_HAL_Driver/Src/stm32wbxx_hal.c ****   */
 310:Drivers/STM32WBxx_HAL_Driver/Src/stm32wbxx_hal.c **** 
 311:Drivers/STM32WBxx_HAL_Driver/Src/stm32wbxx_hal.c **** /**
 312:Drivers/STM32WBxx_HAL_Driver/Src/stm32wbxx_hal.c ****   * @brief This function is called to increment  a global variable "uwTick"
 313:Drivers/STM32WBxx_HAL_Driver/Src/stm32wbxx_hal.c ****   *        used as application time base.
 314:Drivers/STM32WBxx_HAL_Driver/Src/stm32wbxx_hal.c ****   * @note In the default implementation, this variable is incremented each 1ms
 315:Drivers/STM32WBxx_HAL_Driver/Src/stm32wbxx_hal.c ****   *       in SysTick ISR.
 316:Drivers/STM32WBxx_HAL_Driver/Src/stm32wbxx_hal.c ****  * @note This function is declared as __weak to be overwritten in case of other
 317:Drivers/STM32WBxx_HAL_Driver/Src/stm32wbxx_hal.c ****   *      implementations in user file.
 318:Drivers/STM32WBxx_HAL_Driver/Src/stm32wbxx_hal.c ****   * @retval None
 319:Drivers/STM32WBxx_HAL_Driver/Src/stm32wbxx_hal.c ****   */
 320:Drivers/STM32WBxx_HAL_Driver/Src/stm32wbxx_hal.c **** __weak void HAL_IncTick(void)
 321:Drivers/STM32WBxx_HAL_Driver/Src/stm32wbxx_hal.c **** {
 426              		.loc 1 321 1 view -0
 427              		.cfi_startproc
 428              		@ args = 0, pretend = 0, frame = 0
 429              		@ frame_needed = 0, uses_anonymous_args = 0
 430              		@ link register save eliminated.
 322:Drivers/STM32WBxx_HAL_Driver/Src/stm32wbxx_hal.c ****   uwTick += (uint32_t)uwTickFreq;
 431              		.loc 1 322 3 view .LVU106
 432              		.loc 1 322 10 is_stmt 0 view .LVU107
 433 0000 034A     		ldr	r2, .L26
 434 0002 1368     		ldr	r3, [r2]
 435              		.loc 1 322 13 view .LVU108
 436 0004 0349     		ldr	r1, .L26+4
 437 0006 0968     		ldr	r1, [r1]
 438              		.loc 1 322 10 view .LVU109
 439 0008 0B44     		add	r3, r3, r1
 440 000a 1360     		str	r3, [r2]
 323:Drivers/STM32WBxx_HAL_Driver/Src/stm32wbxx_hal.c **** }
 441              		.loc 1 323 1 view .LVU110
 442 000c 7047     		bx	lr
 443              	.L27:
 444 000e 00BF     		.align	2
 445              	.L26:
 446 0010 00000000 		.word	uwTick
 447 0014 00000000 		.word	.LANCHOR0
 448              		.cfi_endproc
 449              	.LFE946:
 451              		.section	.text.HAL_GetTick,"ax",%progbits
 452              		.align	1
 453              		.weak	HAL_GetTick
 454              		.syntax unified
 455              		.thumb
 456              		.thumb_func
ARM GAS  /tmp/ccFx4qIG.s 			page 40


 457              		.fpu fpv4-sp-d16
 459              	HAL_GetTick:
 460              	.LFB947:
 324:Drivers/STM32WBxx_HAL_Driver/Src/stm32wbxx_hal.c **** 
 325:Drivers/STM32WBxx_HAL_Driver/Src/stm32wbxx_hal.c **** /**
 326:Drivers/STM32WBxx_HAL_Driver/Src/stm32wbxx_hal.c ****   * @brief Provides a tick value in millisecond.
 327:Drivers/STM32WBxx_HAL_Driver/Src/stm32wbxx_hal.c ****   * @note This function is declared as __weak to be overwritten in case of other
 328:Drivers/STM32WBxx_HAL_Driver/Src/stm32wbxx_hal.c ****   *       implementations in user file.
 329:Drivers/STM32WBxx_HAL_Driver/Src/stm32wbxx_hal.c ****   * @retval tick value
 330:Drivers/STM32WBxx_HAL_Driver/Src/stm32wbxx_hal.c ****   */
 331:Drivers/STM32WBxx_HAL_Driver/Src/stm32wbxx_hal.c **** __weak uint32_t HAL_GetTick(void)
 332:Drivers/STM32WBxx_HAL_Driver/Src/stm32wbxx_hal.c **** {
 461              		.loc 1 332 1 is_stmt 1 view -0
 462              		.cfi_startproc
 463              		@ args = 0, pretend = 0, frame = 0
 464              		@ frame_needed = 0, uses_anonymous_args = 0
 465              		@ link register save eliminated.
 333:Drivers/STM32WBxx_HAL_Driver/Src/stm32wbxx_hal.c ****   return uwTick;
 466              		.loc 1 333 3 view .LVU112
 467              		.loc 1 333 10 is_stmt 0 view .LVU113
 468 0000 014B     		ldr	r3, .L29
 469 0002 1868     		ldr	r0, [r3]
 334:Drivers/STM32WBxx_HAL_Driver/Src/stm32wbxx_hal.c **** }
 470              		.loc 1 334 1 view .LVU114
 471 0004 7047     		bx	lr
 472              	.L30:
 473 0006 00BF     		.align	2
 474              	.L29:
 475 0008 00000000 		.word	uwTick
 476              		.cfi_endproc
 477              	.LFE947:
 479              		.section	.text.HAL_GetTickPrio,"ax",%progbits
 480              		.align	1
 481              		.global	HAL_GetTickPrio
 482              		.syntax unified
 483              		.thumb
 484              		.thumb_func
 485              		.fpu fpv4-sp-d16
 487              	HAL_GetTickPrio:
 488              	.LFB948:
 335:Drivers/STM32WBxx_HAL_Driver/Src/stm32wbxx_hal.c **** 
 336:Drivers/STM32WBxx_HAL_Driver/Src/stm32wbxx_hal.c **** /**
 337:Drivers/STM32WBxx_HAL_Driver/Src/stm32wbxx_hal.c ****   * @brief This function returns a tick priority.
 338:Drivers/STM32WBxx_HAL_Driver/Src/stm32wbxx_hal.c ****   * @retval tick priority
 339:Drivers/STM32WBxx_HAL_Driver/Src/stm32wbxx_hal.c ****   */
 340:Drivers/STM32WBxx_HAL_Driver/Src/stm32wbxx_hal.c **** uint32_t HAL_GetTickPrio(void)
 341:Drivers/STM32WBxx_HAL_Driver/Src/stm32wbxx_hal.c **** {
 489              		.loc 1 341 1 is_stmt 1 view -0
 490              		.cfi_startproc
 491              		@ args = 0, pretend = 0, frame = 0
 492              		@ frame_needed = 0, uses_anonymous_args = 0
 493              		@ link register save eliminated.
 342:Drivers/STM32WBxx_HAL_Driver/Src/stm32wbxx_hal.c ****   return uwTickPrio;
 494              		.loc 1 342 3 view .LVU116
 343:Drivers/STM32WBxx_HAL_Driver/Src/stm32wbxx_hal.c **** }
 495              		.loc 1 343 1 is_stmt 0 view .LVU117
 496 0000 014B     		ldr	r3, .L32
ARM GAS  /tmp/ccFx4qIG.s 			page 41


 497 0002 1868     		ldr	r0, [r3]
 498 0004 7047     		bx	lr
 499              	.L33:
 500 0006 00BF     		.align	2
 501              	.L32:
 502 0008 00000000 		.word	.LANCHOR1
 503              		.cfi_endproc
 504              	.LFE948:
 506              		.section	.text.HAL_SetTickFreq,"ax",%progbits
 507              		.align	1
 508              		.global	HAL_SetTickFreq
 509              		.syntax unified
 510              		.thumb
 511              		.thumb_func
 512              		.fpu fpv4-sp-d16
 514              	HAL_SetTickFreq:
 515              	.LVL30:
 516              	.LFB949:
 344:Drivers/STM32WBxx_HAL_Driver/Src/stm32wbxx_hal.c **** 
 345:Drivers/STM32WBxx_HAL_Driver/Src/stm32wbxx_hal.c **** /**
 346:Drivers/STM32WBxx_HAL_Driver/Src/stm32wbxx_hal.c ****   * @brief Set new tick Freq.
 347:Drivers/STM32WBxx_HAL_Driver/Src/stm32wbxx_hal.c ****   * @retval Status
 348:Drivers/STM32WBxx_HAL_Driver/Src/stm32wbxx_hal.c ****   */
 349:Drivers/STM32WBxx_HAL_Driver/Src/stm32wbxx_hal.c **** HAL_StatusTypeDef HAL_SetTickFreq(uint32_t Freq)
 350:Drivers/STM32WBxx_HAL_Driver/Src/stm32wbxx_hal.c **** {
 517              		.loc 1 350 1 is_stmt 1 view -0
 518              		.cfi_startproc
 519              		@ args = 0, pretend = 0, frame = 0
 520              		@ frame_needed = 0, uses_anonymous_args = 0
 521              		.loc 1 350 1 is_stmt 0 view .LVU119
 522 0000 08B5     		push	{r3, lr}
 523              	.LCFI3:
 524              		.cfi_def_cfa_offset 8
 525              		.cfi_offset 3, -8
 526              		.cfi_offset 14, -4
 351:Drivers/STM32WBxx_HAL_Driver/Src/stm32wbxx_hal.c ****   HAL_StatusTypeDef status  = HAL_OK;
 527              		.loc 1 351 3 is_stmt 1 view .LVU120
 528              	.LVL31:
 352:Drivers/STM32WBxx_HAL_Driver/Src/stm32wbxx_hal.c ****   assert_param(IS_TICKFREQ(Freq));
 529              		.loc 1 352 3 view .LVU121
 353:Drivers/STM32WBxx_HAL_Driver/Src/stm32wbxx_hal.c **** 
 354:Drivers/STM32WBxx_HAL_Driver/Src/stm32wbxx_hal.c ****   if (uwTickFreq != Freq)
 530              		.loc 1 354 3 view .LVU122
 531              		.loc 1 354 18 is_stmt 0 view .LVU123
 532 0002 064B     		ldr	r3, .L39
 533 0004 1B68     		ldr	r3, [r3]
 534              		.loc 1 354 6 view .LVU124
 535 0006 8342     		cmp	r3, r0
 536 0008 01D1     		bne	.L38
 351:Drivers/STM32WBxx_HAL_Driver/Src/stm32wbxx_hal.c ****   assert_param(IS_TICKFREQ(Freq));
 537              		.loc 1 351 21 view .LVU125
 538 000a 0020     		movs	r0, #0
 539              	.LVL32:
 540              	.L35:
 355:Drivers/STM32WBxx_HAL_Driver/Src/stm32wbxx_hal.c ****   {
 356:Drivers/STM32WBxx_HAL_Driver/Src/stm32wbxx_hal.c ****     uwTickFreq = Freq;
 357:Drivers/STM32WBxx_HAL_Driver/Src/stm32wbxx_hal.c **** 
ARM GAS  /tmp/ccFx4qIG.s 			page 42


 358:Drivers/STM32WBxx_HAL_Driver/Src/stm32wbxx_hal.c ****     /* Apply the new tick Freq  */
 359:Drivers/STM32WBxx_HAL_Driver/Src/stm32wbxx_hal.c ****     status = HAL_InitTick(uwTickPrio);
 360:Drivers/STM32WBxx_HAL_Driver/Src/stm32wbxx_hal.c ****   }
 361:Drivers/STM32WBxx_HAL_Driver/Src/stm32wbxx_hal.c **** 
 362:Drivers/STM32WBxx_HAL_Driver/Src/stm32wbxx_hal.c ****   return status;
 541              		.loc 1 362 3 is_stmt 1 view .LVU126
 363:Drivers/STM32WBxx_HAL_Driver/Src/stm32wbxx_hal.c **** }
 542              		.loc 1 363 1 is_stmt 0 view .LVU127
 543 000c 08BD     		pop	{r3, pc}
 544              	.LVL33:
 545              	.L38:
 356:Drivers/STM32WBxx_HAL_Driver/Src/stm32wbxx_hal.c **** 
 546              		.loc 1 356 5 is_stmt 1 view .LVU128
 356:Drivers/STM32WBxx_HAL_Driver/Src/stm32wbxx_hal.c **** 
 547              		.loc 1 356 16 is_stmt 0 view .LVU129
 548 000e 034B     		ldr	r3, .L39
 549 0010 1860     		str	r0, [r3]
 359:Drivers/STM32WBxx_HAL_Driver/Src/stm32wbxx_hal.c ****   }
 550              		.loc 1 359 5 is_stmt 1 view .LVU130
 359:Drivers/STM32WBxx_HAL_Driver/Src/stm32wbxx_hal.c ****   }
 551              		.loc 1 359 14 is_stmt 0 view .LVU131
 552 0012 034B     		ldr	r3, .L39+4
 553 0014 1868     		ldr	r0, [r3]
 554              	.LVL34:
 359:Drivers/STM32WBxx_HAL_Driver/Src/stm32wbxx_hal.c ****   }
 555              		.loc 1 359 14 view .LVU132
 556 0016 FFF7FEFF 		bl	HAL_InitTick
 557              	.LVL35:
 359:Drivers/STM32WBxx_HAL_Driver/Src/stm32wbxx_hal.c ****   }
 558              		.loc 1 359 14 view .LVU133
 559 001a F7E7     		b	.L35
 560              	.L40:
 561              		.align	2
 562              	.L39:
 563 001c 00000000 		.word	.LANCHOR0
 564 0020 00000000 		.word	.LANCHOR1
 565              		.cfi_endproc
 566              	.LFE949:
 568              		.section	.text.HAL_GetTickFreq,"ax",%progbits
 569              		.align	1
 570              		.global	HAL_GetTickFreq
 571              		.syntax unified
 572              		.thumb
 573              		.thumb_func
 574              		.fpu fpv4-sp-d16
 576              	HAL_GetTickFreq:
 577              	.LFB950:
 364:Drivers/STM32WBxx_HAL_Driver/Src/stm32wbxx_hal.c **** 
 365:Drivers/STM32WBxx_HAL_Driver/Src/stm32wbxx_hal.c **** /**
 366:Drivers/STM32WBxx_HAL_Driver/Src/stm32wbxx_hal.c ****   * @brief Return tick frequency.
 367:Drivers/STM32WBxx_HAL_Driver/Src/stm32wbxx_hal.c ****   * @retval tick period in Hz
 368:Drivers/STM32WBxx_HAL_Driver/Src/stm32wbxx_hal.c ****   */
 369:Drivers/STM32WBxx_HAL_Driver/Src/stm32wbxx_hal.c **** uint32_t HAL_GetTickFreq(void)
 370:Drivers/STM32WBxx_HAL_Driver/Src/stm32wbxx_hal.c **** {
 578              		.loc 1 370 1 is_stmt 1 view -0
 579              		.cfi_startproc
 580              		@ args = 0, pretend = 0, frame = 0
ARM GAS  /tmp/ccFx4qIG.s 			page 43


 581              		@ frame_needed = 0, uses_anonymous_args = 0
 582              		@ link register save eliminated.
 371:Drivers/STM32WBxx_HAL_Driver/Src/stm32wbxx_hal.c ****   return uwTickFreq;
 583              		.loc 1 371 3 view .LVU135
 372:Drivers/STM32WBxx_HAL_Driver/Src/stm32wbxx_hal.c **** }
 584              		.loc 1 372 1 is_stmt 0 view .LVU136
 585 0000 014B     		ldr	r3, .L42
 586 0002 1868     		ldr	r0, [r3]
 587 0004 7047     		bx	lr
 588              	.L43:
 589 0006 00BF     		.align	2
 590              	.L42:
 591 0008 00000000 		.word	.LANCHOR0
 592              		.cfi_endproc
 593              	.LFE950:
 595              		.section	.text.HAL_Delay,"ax",%progbits
 596              		.align	1
 597              		.weak	HAL_Delay
 598              		.syntax unified
 599              		.thumb
 600              		.thumb_func
 601              		.fpu fpv4-sp-d16
 603              	HAL_Delay:
 604              	.LVL36:
 605              	.LFB951:
 373:Drivers/STM32WBxx_HAL_Driver/Src/stm32wbxx_hal.c **** 
 374:Drivers/STM32WBxx_HAL_Driver/Src/stm32wbxx_hal.c **** /**
 375:Drivers/STM32WBxx_HAL_Driver/Src/stm32wbxx_hal.c ****   * @brief This function provides minimum delay (in milliseconds) based 
 376:Drivers/STM32WBxx_HAL_Driver/Src/stm32wbxx_hal.c ****   *        on variable incremented. 
 377:Drivers/STM32WBxx_HAL_Driver/Src/stm32wbxx_hal.c ****   * @note In the default implementation , SysTick timer is the source of time base.
 378:Drivers/STM32WBxx_HAL_Driver/Src/stm32wbxx_hal.c ****   *       It is used to generate interrupts at regular time intervals where uwTick
 379:Drivers/STM32WBxx_HAL_Driver/Src/stm32wbxx_hal.c ****   *       is incremented.
 380:Drivers/STM32WBxx_HAL_Driver/Src/stm32wbxx_hal.c ****   * @note This function is declared as __weak to be overwritten in case of other
 381:Drivers/STM32WBxx_HAL_Driver/Src/stm32wbxx_hal.c ****   *       implementations in user file.
 382:Drivers/STM32WBxx_HAL_Driver/Src/stm32wbxx_hal.c ****   * @param Delay  specifies the delay time length, in milliseconds.
 383:Drivers/STM32WBxx_HAL_Driver/Src/stm32wbxx_hal.c ****   * @retval None
 384:Drivers/STM32WBxx_HAL_Driver/Src/stm32wbxx_hal.c ****   */
 385:Drivers/STM32WBxx_HAL_Driver/Src/stm32wbxx_hal.c ****   __weak void HAL_Delay(uint32_t Delay)
 386:Drivers/STM32WBxx_HAL_Driver/Src/stm32wbxx_hal.c ****   {
 606              		.loc 1 386 3 is_stmt 1 view -0
 607              		.cfi_startproc
 608              		@ args = 0, pretend = 0, frame = 0
 609              		@ frame_needed = 0, uses_anonymous_args = 0
 610              		.loc 1 386 3 is_stmt 0 view .LVU138
 611 0000 38B5     		push	{r3, r4, r5, lr}
 612              	.LCFI4:
 613              		.cfi_def_cfa_offset 16
 614              		.cfi_offset 3, -16
 615              		.cfi_offset 4, -12
 616              		.cfi_offset 5, -8
 617              		.cfi_offset 14, -4
 618 0002 0446     		mov	r4, r0
 387:Drivers/STM32WBxx_HAL_Driver/Src/stm32wbxx_hal.c ****     uint32_t tickstart = HAL_GetTick();
 619              		.loc 1 387 5 is_stmt 1 view .LVU139
 620              		.loc 1 387 26 is_stmt 0 view .LVU140
 621 0004 FFF7FEFF 		bl	HAL_GetTick
 622              	.LVL37:
ARM GAS  /tmp/ccFx4qIG.s 			page 44


 623              		.loc 1 387 26 view .LVU141
 624 0008 0546     		mov	r5, r0
 625              	.LVL38:
 388:Drivers/STM32WBxx_HAL_Driver/Src/stm32wbxx_hal.c ****     uint32_t wait = Delay;
 626              		.loc 1 388 5 is_stmt 1 view .LVU142
 389:Drivers/STM32WBxx_HAL_Driver/Src/stm32wbxx_hal.c ****   
 390:Drivers/STM32WBxx_HAL_Driver/Src/stm32wbxx_hal.c ****     /* Add a freq to guarantee minimum wait */
 391:Drivers/STM32WBxx_HAL_Driver/Src/stm32wbxx_hal.c ****     if (wait < HAL_MAX_DELAY)
 627              		.loc 1 391 5 view .LVU143
 628              		.loc 1 391 8 is_stmt 0 view .LVU144
 629 000a B4F1FF3F 		cmp	r4, #-1
 630 000e 02D0     		beq	.L46
 392:Drivers/STM32WBxx_HAL_Driver/Src/stm32wbxx_hal.c ****     {
 393:Drivers/STM32WBxx_HAL_Driver/Src/stm32wbxx_hal.c ****       wait += (uint32_t)(uwTickFreq);
 631              		.loc 1 393 7 is_stmt 1 view .LVU145
 632              		.loc 1 393 15 is_stmt 0 view .LVU146
 633 0010 044B     		ldr	r3, .L48
 634 0012 1B68     		ldr	r3, [r3]
 635              		.loc 1 393 12 view .LVU147
 636 0014 1C44     		add	r4, r4, r3
 637              	.LVL39:
 638              	.L46:
 394:Drivers/STM32WBxx_HAL_Driver/Src/stm32wbxx_hal.c ****     }
 395:Drivers/STM32WBxx_HAL_Driver/Src/stm32wbxx_hal.c ****   
 396:Drivers/STM32WBxx_HAL_Driver/Src/stm32wbxx_hal.c ****     while ((HAL_GetTick() - tickstart) < wait)
 397:Drivers/STM32WBxx_HAL_Driver/Src/stm32wbxx_hal.c ****     {
 398:Drivers/STM32WBxx_HAL_Driver/Src/stm32wbxx_hal.c ****     }
 639              		.loc 1 398 5 is_stmt 1 discriminator 1 view .LVU148
 396:Drivers/STM32WBxx_HAL_Driver/Src/stm32wbxx_hal.c ****     {
 640              		.loc 1 396 11 discriminator 1 view .LVU149
 396:Drivers/STM32WBxx_HAL_Driver/Src/stm32wbxx_hal.c ****     {
 641              		.loc 1 396 13 is_stmt 0 discriminator 1 view .LVU150
 642 0016 FFF7FEFF 		bl	HAL_GetTick
 643              	.LVL40:
 396:Drivers/STM32WBxx_HAL_Driver/Src/stm32wbxx_hal.c ****     {
 644              		.loc 1 396 27 discriminator 1 view .LVU151
 645 001a 401B     		subs	r0, r0, r5
 396:Drivers/STM32WBxx_HAL_Driver/Src/stm32wbxx_hal.c ****     {
 646              		.loc 1 396 11 discriminator 1 view .LVU152
 647 001c A042     		cmp	r0, r4
 648 001e FAD3     		bcc	.L46
 399:Drivers/STM32WBxx_HAL_Driver/Src/stm32wbxx_hal.c ****   }
 649              		.loc 1 399 3 view .LVU153
 650 0020 38BD     		pop	{r3, r4, r5, pc}
 651              	.LVL41:
 652              	.L49:
 653              		.loc 1 399 3 view .LVU154
 654 0022 00BF     		.align	2
 655              	.L48:
 656 0024 00000000 		.word	.LANCHOR0
 657              		.cfi_endproc
 658              	.LFE951:
 660              		.section	.text.HAL_SuspendTick,"ax",%progbits
 661              		.align	1
 662              		.weak	HAL_SuspendTick
 663              		.syntax unified
 664              		.thumb
ARM GAS  /tmp/ccFx4qIG.s 			page 45


 665              		.thumb_func
 666              		.fpu fpv4-sp-d16
 668              	HAL_SuspendTick:
 669              	.LFB952:
 400:Drivers/STM32WBxx_HAL_Driver/Src/stm32wbxx_hal.c **** 
 401:Drivers/STM32WBxx_HAL_Driver/Src/stm32wbxx_hal.c **** 
 402:Drivers/STM32WBxx_HAL_Driver/Src/stm32wbxx_hal.c **** /**
 403:Drivers/STM32WBxx_HAL_Driver/Src/stm32wbxx_hal.c ****   * @brief Suspend Tick increment.
 404:Drivers/STM32WBxx_HAL_Driver/Src/stm32wbxx_hal.c ****   * @note In the default implementation , SysTick timer is the source of time base. It is
 405:Drivers/STM32WBxx_HAL_Driver/Src/stm32wbxx_hal.c ****   *       used to generate interrupts at regular time intervals. Once HAL_SuspendTick()
 406:Drivers/STM32WBxx_HAL_Driver/Src/stm32wbxx_hal.c ****   *       is called, the SysTick interrupt will be disabled and so Tick increment
 407:Drivers/STM32WBxx_HAL_Driver/Src/stm32wbxx_hal.c ****   *       is suspended.
 408:Drivers/STM32WBxx_HAL_Driver/Src/stm32wbxx_hal.c ****   * @note This function is declared as __weak to be overwritten in case of other
 409:Drivers/STM32WBxx_HAL_Driver/Src/stm32wbxx_hal.c ****   *       implementations in user file.
 410:Drivers/STM32WBxx_HAL_Driver/Src/stm32wbxx_hal.c ****   * @retval None
 411:Drivers/STM32WBxx_HAL_Driver/Src/stm32wbxx_hal.c ****   */
 412:Drivers/STM32WBxx_HAL_Driver/Src/stm32wbxx_hal.c **** __weak void HAL_SuspendTick(void)
 413:Drivers/STM32WBxx_HAL_Driver/Src/stm32wbxx_hal.c **** {
 670              		.loc 1 413 1 is_stmt 1 view -0
 671              		.cfi_startproc
 672              		@ args = 0, pretend = 0, frame = 0
 673              		@ frame_needed = 0, uses_anonymous_args = 0
 674              		@ link register save eliminated.
 414:Drivers/STM32WBxx_HAL_Driver/Src/stm32wbxx_hal.c ****   /* Disable SysTick Interrupt */
 415:Drivers/STM32WBxx_HAL_Driver/Src/stm32wbxx_hal.c ****   CLEAR_BIT(SysTick->CTRL,SysTick_CTRL_TICKINT_Msk);
 675              		.loc 1 415 3 view .LVU156
 676 0000 024A     		ldr	r2, .L51
 677 0002 1368     		ldr	r3, [r2]
 678 0004 23F00203 		bic	r3, r3, #2
 679 0008 1360     		str	r3, [r2]
 416:Drivers/STM32WBxx_HAL_Driver/Src/stm32wbxx_hal.c **** }
 680              		.loc 1 416 1 is_stmt 0 view .LVU157
 681 000a 7047     		bx	lr
 682              	.L52:
 683              		.align	2
 684              	.L51:
 685 000c 10E000E0 		.word	-536813552
 686              		.cfi_endproc
 687              	.LFE952:
 689              		.section	.text.HAL_ResumeTick,"ax",%progbits
 690              		.align	1
 691              		.weak	HAL_ResumeTick
 692              		.syntax unified
 693              		.thumb
 694              		.thumb_func
 695              		.fpu fpv4-sp-d16
 697              	HAL_ResumeTick:
 698              	.LFB953:
 417:Drivers/STM32WBxx_HAL_Driver/Src/stm32wbxx_hal.c **** 
 418:Drivers/STM32WBxx_HAL_Driver/Src/stm32wbxx_hal.c **** /**
 419:Drivers/STM32WBxx_HAL_Driver/Src/stm32wbxx_hal.c ****   * @brief Resume Tick increment.
 420:Drivers/STM32WBxx_HAL_Driver/Src/stm32wbxx_hal.c ****   * @note In the default implementation , SysTick timer is the source of time base. It is
 421:Drivers/STM32WBxx_HAL_Driver/Src/stm32wbxx_hal.c ****   *       used to generate interrupts at regular time intervals. Once HAL_ResumeTick()
 422:Drivers/STM32WBxx_HAL_Driver/Src/stm32wbxx_hal.c ****   *       is called, the SysTick interrupt will be enabled and so Tick increment
 423:Drivers/STM32WBxx_HAL_Driver/Src/stm32wbxx_hal.c ****   *       is resumed.
 424:Drivers/STM32WBxx_HAL_Driver/Src/stm32wbxx_hal.c ****   * @note This function is declared as __weak to be overwritten in case of other
 425:Drivers/STM32WBxx_HAL_Driver/Src/stm32wbxx_hal.c ****   *       implementations in user file.
ARM GAS  /tmp/ccFx4qIG.s 			page 46


 426:Drivers/STM32WBxx_HAL_Driver/Src/stm32wbxx_hal.c ****   * @retval None
 427:Drivers/STM32WBxx_HAL_Driver/Src/stm32wbxx_hal.c ****   */
 428:Drivers/STM32WBxx_HAL_Driver/Src/stm32wbxx_hal.c **** __weak void HAL_ResumeTick(void)
 429:Drivers/STM32WBxx_HAL_Driver/Src/stm32wbxx_hal.c **** {
 699              		.loc 1 429 1 is_stmt 1 view -0
 700              		.cfi_startproc
 701              		@ args = 0, pretend = 0, frame = 0
 702              		@ frame_needed = 0, uses_anonymous_args = 0
 703              		@ link register save eliminated.
 430:Drivers/STM32WBxx_HAL_Driver/Src/stm32wbxx_hal.c ****   /* Enable SysTick Interrupt */
 431:Drivers/STM32WBxx_HAL_Driver/Src/stm32wbxx_hal.c ****   SET_BIT(SysTick->CTRL,SysTick_CTRL_TICKINT_Msk);
 704              		.loc 1 431 3 view .LVU159
 705 0000 024A     		ldr	r2, .L54
 706 0002 1368     		ldr	r3, [r2]
 707 0004 43F00203 		orr	r3, r3, #2
 708 0008 1360     		str	r3, [r2]
 432:Drivers/STM32WBxx_HAL_Driver/Src/stm32wbxx_hal.c **** }
 709              		.loc 1 432 1 is_stmt 0 view .LVU160
 710 000a 7047     		bx	lr
 711              	.L55:
 712              		.align	2
 713              	.L54:
 714 000c 10E000E0 		.word	-536813552
 715              		.cfi_endproc
 716              	.LFE953:
 718              		.section	.text.HAL_GetHalVersion,"ax",%progbits
 719              		.align	1
 720              		.global	HAL_GetHalVersion
 721              		.syntax unified
 722              		.thumb
 723              		.thumb_func
 724              		.fpu fpv4-sp-d16
 726              	HAL_GetHalVersion:
 727              	.LFB954:
 433:Drivers/STM32WBxx_HAL_Driver/Src/stm32wbxx_hal.c **** 
 434:Drivers/STM32WBxx_HAL_Driver/Src/stm32wbxx_hal.c **** /**
 435:Drivers/STM32WBxx_HAL_Driver/Src/stm32wbxx_hal.c ****   * @brief  Returns the HAL revision
 436:Drivers/STM32WBxx_HAL_Driver/Src/stm32wbxx_hal.c ****   * @retval version : 0xXYZR (8bits for each decimal, R for RC)
 437:Drivers/STM32WBxx_HAL_Driver/Src/stm32wbxx_hal.c ****   */
 438:Drivers/STM32WBxx_HAL_Driver/Src/stm32wbxx_hal.c **** uint32_t HAL_GetHalVersion(void)
 439:Drivers/STM32WBxx_HAL_Driver/Src/stm32wbxx_hal.c **** {
 728              		.loc 1 439 1 is_stmt 1 view -0
 729              		.cfi_startproc
 730              		@ args = 0, pretend = 0, frame = 0
 731              		@ frame_needed = 0, uses_anonymous_args = 0
 732              		@ link register save eliminated.
 440:Drivers/STM32WBxx_HAL_Driver/Src/stm32wbxx_hal.c ****  return __STM32WBxx_HAL_VERSION;
 733              		.loc 1 440 2 view .LVU162
 441:Drivers/STM32WBxx_HAL_Driver/Src/stm32wbxx_hal.c **** }
 734              		.loc 1 441 1 is_stmt 0 view .LVU163
 735 0000 0048     		ldr	r0, .L57
 736 0002 7047     		bx	lr
 737              	.L58:
 738              		.align	2
 739              	.L57:
 740 0004 00000301 		.word	16973824
 741              		.cfi_endproc
ARM GAS  /tmp/ccFx4qIG.s 			page 47


 742              	.LFE954:
 744              		.section	.text.HAL_GetREVID,"ax",%progbits
 745              		.align	1
 746              		.global	HAL_GetREVID
 747              		.syntax unified
 748              		.thumb
 749              		.thumb_func
 750              		.fpu fpv4-sp-d16
 752              	HAL_GetREVID:
 753              	.LFB955:
 442:Drivers/STM32WBxx_HAL_Driver/Src/stm32wbxx_hal.c **** 
 443:Drivers/STM32WBxx_HAL_Driver/Src/stm32wbxx_hal.c **** /**
 444:Drivers/STM32WBxx_HAL_Driver/Src/stm32wbxx_hal.c ****   * @brief  Returns the device revision identifier.
 445:Drivers/STM32WBxx_HAL_Driver/Src/stm32wbxx_hal.c ****   * @retval Device revision identifier
 446:Drivers/STM32WBxx_HAL_Driver/Src/stm32wbxx_hal.c ****   */
 447:Drivers/STM32WBxx_HAL_Driver/Src/stm32wbxx_hal.c **** uint32_t HAL_GetREVID(void)
 448:Drivers/STM32WBxx_HAL_Driver/Src/stm32wbxx_hal.c **** {
 754              		.loc 1 448 1 is_stmt 1 view -0
 755              		.cfi_startproc
 756              		@ args = 0, pretend = 0, frame = 0
 757              		@ frame_needed = 0, uses_anonymous_args = 0
 758              		@ link register save eliminated.
 449:Drivers/STM32WBxx_HAL_Driver/Src/stm32wbxx_hal.c ****    return(LL_DBGMCU_GetRevisionID());
 759              		.loc 1 449 4 view .LVU165
 760              	.LBB104:
 761              	.LBI104:
 762              		.file 3 "Drivers/STM32WBxx_HAL_Driver/Inc/stm32wbxx_ll_system.h"
   1:Drivers/STM32WBxx_HAL_Driver/Inc/stm32wbxx_ll_system.h **** /**
   2:Drivers/STM32WBxx_HAL_Driver/Inc/stm32wbxx_ll_system.h ****   ******************************************************************************
   3:Drivers/STM32WBxx_HAL_Driver/Inc/stm32wbxx_ll_system.h ****   * @file    stm32wbxx_ll_system.h
   4:Drivers/STM32WBxx_HAL_Driver/Inc/stm32wbxx_ll_system.h ****   * @author  MCD Application Team
   5:Drivers/STM32WBxx_HAL_Driver/Inc/stm32wbxx_ll_system.h ****   * @brief   Header file of SYSTEM LL module.
   6:Drivers/STM32WBxx_HAL_Driver/Inc/stm32wbxx_ll_system.h ****   @verbatim
   7:Drivers/STM32WBxx_HAL_Driver/Inc/stm32wbxx_ll_system.h ****   ==============================================================================
   8:Drivers/STM32WBxx_HAL_Driver/Inc/stm32wbxx_ll_system.h ****                      ##### How to use this driver #####
   9:Drivers/STM32WBxx_HAL_Driver/Inc/stm32wbxx_ll_system.h ****   ==============================================================================
  10:Drivers/STM32WBxx_HAL_Driver/Inc/stm32wbxx_ll_system.h ****     [..]
  11:Drivers/STM32WBxx_HAL_Driver/Inc/stm32wbxx_ll_system.h ****     The LL SYSTEM driver contains a set of generic APIs that can be
  12:Drivers/STM32WBxx_HAL_Driver/Inc/stm32wbxx_ll_system.h ****     used by user:
  13:Drivers/STM32WBxx_HAL_Driver/Inc/stm32wbxx_ll_system.h ****       (+) Some of the FLASH features need to be handled in the SYSTEM file.
  14:Drivers/STM32WBxx_HAL_Driver/Inc/stm32wbxx_ll_system.h ****       (+) Access to DBGCMU registers
  15:Drivers/STM32WBxx_HAL_Driver/Inc/stm32wbxx_ll_system.h ****       (+) Access to SYSCFG registers
  16:Drivers/STM32WBxx_HAL_Driver/Inc/stm32wbxx_ll_system.h ****       (+) Access to VREFBUF registers
  17:Drivers/STM32WBxx_HAL_Driver/Inc/stm32wbxx_ll_system.h **** 
  18:Drivers/STM32WBxx_HAL_Driver/Inc/stm32wbxx_ll_system.h ****   @endverbatim
  19:Drivers/STM32WBxx_HAL_Driver/Inc/stm32wbxx_ll_system.h ****   ******************************************************************************
  20:Drivers/STM32WBxx_HAL_Driver/Inc/stm32wbxx_ll_system.h ****   * @attention
  21:Drivers/STM32WBxx_HAL_Driver/Inc/stm32wbxx_ll_system.h ****   *
  22:Drivers/STM32WBxx_HAL_Driver/Inc/stm32wbxx_ll_system.h ****   * <h2><center>&copy; Copyright (c) 2019 STMicroelectronics. 
  23:Drivers/STM32WBxx_HAL_Driver/Inc/stm32wbxx_ll_system.h ****   * All rights reserved.</center></h2>
  24:Drivers/STM32WBxx_HAL_Driver/Inc/stm32wbxx_ll_system.h ****   *
  25:Drivers/STM32WBxx_HAL_Driver/Inc/stm32wbxx_ll_system.h ****   * This software component is licensed by ST under BSD 3-Clause license,
  26:Drivers/STM32WBxx_HAL_Driver/Inc/stm32wbxx_ll_system.h ****   * the "License"; You may not use this file except in compliance with the 
  27:Drivers/STM32WBxx_HAL_Driver/Inc/stm32wbxx_ll_system.h ****   * License. You may obtain a copy of the License at:
  28:Drivers/STM32WBxx_HAL_Driver/Inc/stm32wbxx_ll_system.h ****   *                        opensource.org/licenses/BSD-3-Clause
  29:Drivers/STM32WBxx_HAL_Driver/Inc/stm32wbxx_ll_system.h ****   *
  30:Drivers/STM32WBxx_HAL_Driver/Inc/stm32wbxx_ll_system.h ****   ******************************************************************************
ARM GAS  /tmp/ccFx4qIG.s 			page 48


  31:Drivers/STM32WBxx_HAL_Driver/Inc/stm32wbxx_ll_system.h ****   */
  32:Drivers/STM32WBxx_HAL_Driver/Inc/stm32wbxx_ll_system.h **** 
  33:Drivers/STM32WBxx_HAL_Driver/Inc/stm32wbxx_ll_system.h **** /* Define to prevent recursive inclusion -------------------------------------*/
  34:Drivers/STM32WBxx_HAL_Driver/Inc/stm32wbxx_ll_system.h **** #ifndef STM32WBxx_LL_SYSTEM_H
  35:Drivers/STM32WBxx_HAL_Driver/Inc/stm32wbxx_ll_system.h **** #define STM32WBxx_LL_SYSTEM_H
  36:Drivers/STM32WBxx_HAL_Driver/Inc/stm32wbxx_ll_system.h **** 
  37:Drivers/STM32WBxx_HAL_Driver/Inc/stm32wbxx_ll_system.h **** #ifdef __cplusplus
  38:Drivers/STM32WBxx_HAL_Driver/Inc/stm32wbxx_ll_system.h **** extern "C" {
  39:Drivers/STM32WBxx_HAL_Driver/Inc/stm32wbxx_ll_system.h **** #endif
  40:Drivers/STM32WBxx_HAL_Driver/Inc/stm32wbxx_ll_system.h **** 
  41:Drivers/STM32WBxx_HAL_Driver/Inc/stm32wbxx_ll_system.h **** /* Includes ------------------------------------------------------------------*/
  42:Drivers/STM32WBxx_HAL_Driver/Inc/stm32wbxx_ll_system.h **** #include "stm32wbxx.h"
  43:Drivers/STM32WBxx_HAL_Driver/Inc/stm32wbxx_ll_system.h **** 
  44:Drivers/STM32WBxx_HAL_Driver/Inc/stm32wbxx_ll_system.h **** /** @addtogroup STM32WBxx_LL_Driver
  45:Drivers/STM32WBxx_HAL_Driver/Inc/stm32wbxx_ll_system.h ****   * @{
  46:Drivers/STM32WBxx_HAL_Driver/Inc/stm32wbxx_ll_system.h ****   */
  47:Drivers/STM32WBxx_HAL_Driver/Inc/stm32wbxx_ll_system.h **** 
  48:Drivers/STM32WBxx_HAL_Driver/Inc/stm32wbxx_ll_system.h **** #if defined (FLASH) || defined (SYSCFG) || defined (DBGMCU) || defined (VREFBUF)
  49:Drivers/STM32WBxx_HAL_Driver/Inc/stm32wbxx_ll_system.h **** 
  50:Drivers/STM32WBxx_HAL_Driver/Inc/stm32wbxx_ll_system.h **** /** @defgroup SYSTEM_LL SYSTEM
  51:Drivers/STM32WBxx_HAL_Driver/Inc/stm32wbxx_ll_system.h ****   * @{
  52:Drivers/STM32WBxx_HAL_Driver/Inc/stm32wbxx_ll_system.h ****   */
  53:Drivers/STM32WBxx_HAL_Driver/Inc/stm32wbxx_ll_system.h **** 
  54:Drivers/STM32WBxx_HAL_Driver/Inc/stm32wbxx_ll_system.h **** /* Private types -------------------------------------------------------------*/
  55:Drivers/STM32WBxx_HAL_Driver/Inc/stm32wbxx_ll_system.h **** /* Private variables ---------------------------------------------------------*/
  56:Drivers/STM32WBxx_HAL_Driver/Inc/stm32wbxx_ll_system.h **** 
  57:Drivers/STM32WBxx_HAL_Driver/Inc/stm32wbxx_ll_system.h **** /* Private constants ---------------------------------------------------------*/
  58:Drivers/STM32WBxx_HAL_Driver/Inc/stm32wbxx_ll_system.h **** /** @defgroup SYSTEM_LL_Private_Constants SYSTEM Private Constants
  59:Drivers/STM32WBxx_HAL_Driver/Inc/stm32wbxx_ll_system.h ****   * @{
  60:Drivers/STM32WBxx_HAL_Driver/Inc/stm32wbxx_ll_system.h ****   */
  61:Drivers/STM32WBxx_HAL_Driver/Inc/stm32wbxx_ll_system.h **** 
  62:Drivers/STM32WBxx_HAL_Driver/Inc/stm32wbxx_ll_system.h **** /**
  63:Drivers/STM32WBxx_HAL_Driver/Inc/stm32wbxx_ll_system.h ****   * @}
  64:Drivers/STM32WBxx_HAL_Driver/Inc/stm32wbxx_ll_system.h ****   */
  65:Drivers/STM32WBxx_HAL_Driver/Inc/stm32wbxx_ll_system.h **** 
  66:Drivers/STM32WBxx_HAL_Driver/Inc/stm32wbxx_ll_system.h **** /* Private macros ------------------------------------------------------------*/
  67:Drivers/STM32WBxx_HAL_Driver/Inc/stm32wbxx_ll_system.h **** 
  68:Drivers/STM32WBxx_HAL_Driver/Inc/stm32wbxx_ll_system.h **** /* Exported types ------------------------------------------------------------*/
  69:Drivers/STM32WBxx_HAL_Driver/Inc/stm32wbxx_ll_system.h **** /* Exported constants --------------------------------------------------------*/
  70:Drivers/STM32WBxx_HAL_Driver/Inc/stm32wbxx_ll_system.h **** /** @defgroup SYSTEM_LL_Exported_Constants SYSTEM Exported Constants
  71:Drivers/STM32WBxx_HAL_Driver/Inc/stm32wbxx_ll_system.h ****   * @{
  72:Drivers/STM32WBxx_HAL_Driver/Inc/stm32wbxx_ll_system.h ****   */
  73:Drivers/STM32WBxx_HAL_Driver/Inc/stm32wbxx_ll_system.h **** 
  74:Drivers/STM32WBxx_HAL_Driver/Inc/stm32wbxx_ll_system.h **** /** @defgroup SYSTEM_LL_EC_REMAP SYSCFG REMAP
  75:Drivers/STM32WBxx_HAL_Driver/Inc/stm32wbxx_ll_system.h **** * @{
  76:Drivers/STM32WBxx_HAL_Driver/Inc/stm32wbxx_ll_system.h **** */
  77:Drivers/STM32WBxx_HAL_Driver/Inc/stm32wbxx_ll_system.h **** #define LL_SYSCFG_REMAP_FLASH                   0x00000000U                                        
  78:Drivers/STM32WBxx_HAL_Driver/Inc/stm32wbxx_ll_system.h **** #define LL_SYSCFG_REMAP_SYSTEMFLASH             SYSCFG_MEMRMP_MEM_MODE_0                           
  79:Drivers/STM32WBxx_HAL_Driver/Inc/stm32wbxx_ll_system.h **** #define LL_SYSCFG_REMAP_SRAM                    (SYSCFG_MEMRMP_MEM_MODE_1 | SYSCFG_MEMRMP_MEM_MODE_
  80:Drivers/STM32WBxx_HAL_Driver/Inc/stm32wbxx_ll_system.h **** #if defined(QUADSPI)
  81:Drivers/STM32WBxx_HAL_Driver/Inc/stm32wbxx_ll_system.h **** #define LL_SYSCFG_REMAP_QUADSPI                 (SYSCFG_MEMRMP_MEM_MODE_2 | SYSCFG_MEMRMP_MEM_MODE_
  82:Drivers/STM32WBxx_HAL_Driver/Inc/stm32wbxx_ll_system.h **** #endif
  83:Drivers/STM32WBxx_HAL_Driver/Inc/stm32wbxx_ll_system.h **** /**
  84:Drivers/STM32WBxx_HAL_Driver/Inc/stm32wbxx_ll_system.h ****   * @}
  85:Drivers/STM32WBxx_HAL_Driver/Inc/stm32wbxx_ll_system.h ****   */
  86:Drivers/STM32WBxx_HAL_Driver/Inc/stm32wbxx_ll_system.h **** 
  87:Drivers/STM32WBxx_HAL_Driver/Inc/stm32wbxx_ll_system.h **** /** @defgroup SYSTEM_LL_EC_I2C_FASTMODEPLUS SYSCFG I2C FASTMODEPLUS
ARM GAS  /tmp/ccFx4qIG.s 			page 49


  88:Drivers/STM32WBxx_HAL_Driver/Inc/stm32wbxx_ll_system.h ****   * @{
  89:Drivers/STM32WBxx_HAL_Driver/Inc/stm32wbxx_ll_system.h ****   */
  90:Drivers/STM32WBxx_HAL_Driver/Inc/stm32wbxx_ll_system.h **** #define LL_SYSCFG_I2C_FASTMODEPLUS_PB6          SYSCFG_CFGR1_I2C_PB6_FMP /*!< Enable Fast Mode Plus
  91:Drivers/STM32WBxx_HAL_Driver/Inc/stm32wbxx_ll_system.h **** #define LL_SYSCFG_I2C_FASTMODEPLUS_PB7          SYSCFG_CFGR1_I2C_PB7_FMP /*!< Enable Fast Mode Plus
  92:Drivers/STM32WBxx_HAL_Driver/Inc/stm32wbxx_ll_system.h **** #define LL_SYSCFG_I2C_FASTMODEPLUS_PB8          SYSCFG_CFGR1_I2C_PB8_FMP /*!< Enable Fast Mode Plus
  93:Drivers/STM32WBxx_HAL_Driver/Inc/stm32wbxx_ll_system.h **** #define LL_SYSCFG_I2C_FASTMODEPLUS_PB9          SYSCFG_CFGR1_I2C_PB9_FMP /*!< Enable Fast Mode Plus
  94:Drivers/STM32WBxx_HAL_Driver/Inc/stm32wbxx_ll_system.h **** #define LL_SYSCFG_I2C_FASTMODEPLUS_I2C1         SYSCFG_CFGR1_I2C1_FMP    /*!< Enable Fast Mode Plus
  95:Drivers/STM32WBxx_HAL_Driver/Inc/stm32wbxx_ll_system.h **** #if defined(I2C3)
  96:Drivers/STM32WBxx_HAL_Driver/Inc/stm32wbxx_ll_system.h **** #define LL_SYSCFG_I2C_FASTMODEPLUS_I2C3         SYSCFG_CFGR1_I2C3_FMP    /*!< Enable Fast Mode Plus
  97:Drivers/STM32WBxx_HAL_Driver/Inc/stm32wbxx_ll_system.h **** #endif
  98:Drivers/STM32WBxx_HAL_Driver/Inc/stm32wbxx_ll_system.h **** /**
  99:Drivers/STM32WBxx_HAL_Driver/Inc/stm32wbxx_ll_system.h ****   * @}
 100:Drivers/STM32WBxx_HAL_Driver/Inc/stm32wbxx_ll_system.h ****   */
 101:Drivers/STM32WBxx_HAL_Driver/Inc/stm32wbxx_ll_system.h **** 
 102:Drivers/STM32WBxx_HAL_Driver/Inc/stm32wbxx_ll_system.h **** /** @defgroup SYSTEM_LL_EC_EXTI_PORT SYSCFG EXTI PORT
 103:Drivers/STM32WBxx_HAL_Driver/Inc/stm32wbxx_ll_system.h ****   * @{
 104:Drivers/STM32WBxx_HAL_Driver/Inc/stm32wbxx_ll_system.h ****   */
 105:Drivers/STM32WBxx_HAL_Driver/Inc/stm32wbxx_ll_system.h **** #define LL_SYSCFG_EXTI_PORTA                    0U /*!< EXTI PORT A */
 106:Drivers/STM32WBxx_HAL_Driver/Inc/stm32wbxx_ll_system.h **** #define LL_SYSCFG_EXTI_PORTB                    1U /*!< EXTI PORT B */
 107:Drivers/STM32WBxx_HAL_Driver/Inc/stm32wbxx_ll_system.h **** #define LL_SYSCFG_EXTI_PORTC                    2U /*!< EXTI PORT C */
 108:Drivers/STM32WBxx_HAL_Driver/Inc/stm32wbxx_ll_system.h **** #define LL_SYSCFG_EXTI_PORTD                    3U /*!< EXTI PORT D */
 109:Drivers/STM32WBxx_HAL_Driver/Inc/stm32wbxx_ll_system.h **** #define LL_SYSCFG_EXTI_PORTE                    4U /*!< EXTI PORT E */
 110:Drivers/STM32WBxx_HAL_Driver/Inc/stm32wbxx_ll_system.h **** #define LL_SYSCFG_EXTI_PORTH                    7U /*!< EXTI PORT H */
 111:Drivers/STM32WBxx_HAL_Driver/Inc/stm32wbxx_ll_system.h **** /**
 112:Drivers/STM32WBxx_HAL_Driver/Inc/stm32wbxx_ll_system.h ****   * @}
 113:Drivers/STM32WBxx_HAL_Driver/Inc/stm32wbxx_ll_system.h ****   */
 114:Drivers/STM32WBxx_HAL_Driver/Inc/stm32wbxx_ll_system.h **** 
 115:Drivers/STM32WBxx_HAL_Driver/Inc/stm32wbxx_ll_system.h **** /** @defgroup SYSTEM_LL_EC_EXTI_LINE SYSCFG EXTI LINE
 116:Drivers/STM32WBxx_HAL_Driver/Inc/stm32wbxx_ll_system.h ****   * @{
 117:Drivers/STM32WBxx_HAL_Driver/Inc/stm32wbxx_ll_system.h ****   */
 118:Drivers/STM32WBxx_HAL_Driver/Inc/stm32wbxx_ll_system.h **** #define LL_SYSCFG_EXTI_LINE0                    (uint32_t)((0x000FU << 16U) | 0U) /*!< EXTI_POSITIO
 119:Drivers/STM32WBxx_HAL_Driver/Inc/stm32wbxx_ll_system.h **** #define LL_SYSCFG_EXTI_LINE1                    (uint32_t)((0x00F0U << 16U) | 0U) /*!< EXTI_POSITIO
 120:Drivers/STM32WBxx_HAL_Driver/Inc/stm32wbxx_ll_system.h **** #define LL_SYSCFG_EXTI_LINE2                    (uint32_t)((0x0F00U << 16U) | 0U) /*!< EXTI_POSITIO
 121:Drivers/STM32WBxx_HAL_Driver/Inc/stm32wbxx_ll_system.h **** #define LL_SYSCFG_EXTI_LINE3                    (uint32_t)((0xF000U << 16U) | 0U) /*!< EXTI_POSITIO
 122:Drivers/STM32WBxx_HAL_Driver/Inc/stm32wbxx_ll_system.h **** #define LL_SYSCFG_EXTI_LINE4                    (uint32_t)((0x000FU << 16U) | 1U) /*!< EXTI_POSITIO
 123:Drivers/STM32WBxx_HAL_Driver/Inc/stm32wbxx_ll_system.h **** #define LL_SYSCFG_EXTI_LINE5                    (uint32_t)((0x00F0U << 16U) | 1U) /*!< EXTI_POSITIO
 124:Drivers/STM32WBxx_HAL_Driver/Inc/stm32wbxx_ll_system.h **** #define LL_SYSCFG_EXTI_LINE6                    (uint32_t)((0x0F00U << 16U) | 1U) /*!< EXTI_POSITIO
 125:Drivers/STM32WBxx_HAL_Driver/Inc/stm32wbxx_ll_system.h **** #define LL_SYSCFG_EXTI_LINE7                    (uint32_t)((0xF000U << 16U) | 1U) /*!< EXTI_POSITIO
 126:Drivers/STM32WBxx_HAL_Driver/Inc/stm32wbxx_ll_system.h **** #define LL_SYSCFG_EXTI_LINE8                    (uint32_t)((0x000FU << 16U) | 2U) /*!< EXTI_POSITIO
 127:Drivers/STM32WBxx_HAL_Driver/Inc/stm32wbxx_ll_system.h **** #define LL_SYSCFG_EXTI_LINE9                    (uint32_t)((0x00F0U << 16U) | 2U) /*!< EXTI_POSITIO
 128:Drivers/STM32WBxx_HAL_Driver/Inc/stm32wbxx_ll_system.h **** #define LL_SYSCFG_EXTI_LINE10                   (uint32_t)((0x0F00U << 16U) | 2U) /*!< EXTI_POSITIO
 129:Drivers/STM32WBxx_HAL_Driver/Inc/stm32wbxx_ll_system.h **** #define LL_SYSCFG_EXTI_LINE11                   (uint32_t)((0xF000U << 16U) | 2U) /*!< EXTI_POSITIO
 130:Drivers/STM32WBxx_HAL_Driver/Inc/stm32wbxx_ll_system.h **** #define LL_SYSCFG_EXTI_LINE12                   (uint32_t)((0x000FU << 16U) | 3U) /*!< EXTI_POSITIO
 131:Drivers/STM32WBxx_HAL_Driver/Inc/stm32wbxx_ll_system.h **** #define LL_SYSCFG_EXTI_LINE13                   (uint32_t)((0x00F0U << 16U) | 3U) /*!< EXTI_POSITIO
 132:Drivers/STM32WBxx_HAL_Driver/Inc/stm32wbxx_ll_system.h **** #define LL_SYSCFG_EXTI_LINE14                   (uint32_t)((0x0F00U << 16U) | 3U) /*!< EXTI_POSITIO
 133:Drivers/STM32WBxx_HAL_Driver/Inc/stm32wbxx_ll_system.h **** #define LL_SYSCFG_EXTI_LINE15                   (uint32_t)((0xF000U << 16U) | 3U) /*!< EXTI_POSITIO
 134:Drivers/STM32WBxx_HAL_Driver/Inc/stm32wbxx_ll_system.h **** /**
 135:Drivers/STM32WBxx_HAL_Driver/Inc/stm32wbxx_ll_system.h ****   * @}
 136:Drivers/STM32WBxx_HAL_Driver/Inc/stm32wbxx_ll_system.h ****   */
 137:Drivers/STM32WBxx_HAL_Driver/Inc/stm32wbxx_ll_system.h **** 
 138:Drivers/STM32WBxx_HAL_Driver/Inc/stm32wbxx_ll_system.h **** /** @defgroup SYSTEM_LL_EC_TIMBREAK SYSCFG TIMER BREAK
 139:Drivers/STM32WBxx_HAL_Driver/Inc/stm32wbxx_ll_system.h ****   * @{
 140:Drivers/STM32WBxx_HAL_Driver/Inc/stm32wbxx_ll_system.h ****   */
 141:Drivers/STM32WBxx_HAL_Driver/Inc/stm32wbxx_ll_system.h **** #define LL_SYSCFG_TIMBREAK_ECC                  SYSCFG_CFGR2_ECCL       /*!< Enables and locks the 
 142:Drivers/STM32WBxx_HAL_Driver/Inc/stm32wbxx_ll_system.h ****                                                                               with Break Input of T
 143:Drivers/STM32WBxx_HAL_Driver/Inc/stm32wbxx_ll_system.h **** #define LL_SYSCFG_TIMBREAK_PVD                  SYSCFG_CFGR2_PVDL       /*!< Enables and locks the 
 144:Drivers/STM32WBxx_HAL_Driver/Inc/stm32wbxx_ll_system.h ****                                                                               with TIM1/16/17 Break
ARM GAS  /tmp/ccFx4qIG.s 			page 50


 145:Drivers/STM32WBxx_HAL_Driver/Inc/stm32wbxx_ll_system.h ****                                                                               and also the PVDE and
 146:Drivers/STM32WBxx_HAL_Driver/Inc/stm32wbxx_ll_system.h **** #define LL_SYSCFG_TIMBREAK_SRAM2_PARITY         SYSCFG_CFGR2_SPL        /*!< Enables and locks the 
 147:Drivers/STM32WBxx_HAL_Driver/Inc/stm32wbxx_ll_system.h ****                                                                               with Break Input of T
 148:Drivers/STM32WBxx_HAL_Driver/Inc/stm32wbxx_ll_system.h **** #define LL_SYSCFG_TIMBREAK_LOCKUP               SYSCFG_CFGR2_CLL        /*!< Enables and locks the 
 149:Drivers/STM32WBxx_HAL_Driver/Inc/stm32wbxx_ll_system.h ****                                                                               with Break Input of T
 150:Drivers/STM32WBxx_HAL_Driver/Inc/stm32wbxx_ll_system.h **** /**
 151:Drivers/STM32WBxx_HAL_Driver/Inc/stm32wbxx_ll_system.h ****   * @}
 152:Drivers/STM32WBxx_HAL_Driver/Inc/stm32wbxx_ll_system.h ****   */
 153:Drivers/STM32WBxx_HAL_Driver/Inc/stm32wbxx_ll_system.h **** 
 154:Drivers/STM32WBxx_HAL_Driver/Inc/stm32wbxx_ll_system.h **** /** @defgroup SYSTEM_LL_EC_SRAM2WRP SYSCFG SRAM2 WRITE PROTECTION
 155:Drivers/STM32WBxx_HAL_Driver/Inc/stm32wbxx_ll_system.h ****   * @{
 156:Drivers/STM32WBxx_HAL_Driver/Inc/stm32wbxx_ll_system.h ****   */
 157:Drivers/STM32WBxx_HAL_Driver/Inc/stm32wbxx_ll_system.h **** #define LL_SYSCFG_SRAM2WRP_PAGE0                SYSCFG_SWPR1_PAGE0       /*!< SRAM2A Write protecti
 158:Drivers/STM32WBxx_HAL_Driver/Inc/stm32wbxx_ll_system.h **** #define LL_SYSCFG_SRAM2WRP_PAGE1                SYSCFG_SWPR1_PAGE1       /*!< SRAM2A Write protecti
 159:Drivers/STM32WBxx_HAL_Driver/Inc/stm32wbxx_ll_system.h **** #define LL_SYSCFG_SRAM2WRP_PAGE2                SYSCFG_SWPR1_PAGE2       /*!< SRAM2A Write protecti
 160:Drivers/STM32WBxx_HAL_Driver/Inc/stm32wbxx_ll_system.h **** #define LL_SYSCFG_SRAM2WRP_PAGE3                SYSCFG_SWPR1_PAGE3       /*!< SRAM2A Write protecti
 161:Drivers/STM32WBxx_HAL_Driver/Inc/stm32wbxx_ll_system.h **** #define LL_SYSCFG_SRAM2WRP_PAGE4                SYSCFG_SWPR1_PAGE4       /*!< SRAM2A Write protecti
 162:Drivers/STM32WBxx_HAL_Driver/Inc/stm32wbxx_ll_system.h **** #define LL_SYSCFG_SRAM2WRP_PAGE5                SYSCFG_SWPR1_PAGE5       /*!< SRAM2A Write protecti
 163:Drivers/STM32WBxx_HAL_Driver/Inc/stm32wbxx_ll_system.h **** #define LL_SYSCFG_SRAM2WRP_PAGE6                SYSCFG_SWPR1_PAGE6       /*!< SRAM2A Write protecti
 164:Drivers/STM32WBxx_HAL_Driver/Inc/stm32wbxx_ll_system.h **** #define LL_SYSCFG_SRAM2WRP_PAGE7                SYSCFG_SWPR1_PAGE7       /*!< SRAM2A Write protecti
 165:Drivers/STM32WBxx_HAL_Driver/Inc/stm32wbxx_ll_system.h **** #define LL_SYSCFG_SRAM2WRP_PAGE8                SYSCFG_SWPR1_PAGE8       /*!< SRAM2A Write protecti
 166:Drivers/STM32WBxx_HAL_Driver/Inc/stm32wbxx_ll_system.h **** #define LL_SYSCFG_SRAM2WRP_PAGE9                SYSCFG_SWPR1_PAGE9       /*!< SRAM2A Write protecti
 167:Drivers/STM32WBxx_HAL_Driver/Inc/stm32wbxx_ll_system.h **** #define LL_SYSCFG_SRAM2WRP_PAGE10               SYSCFG_SWPR1_PAGE10      /*!< SRAM2A Write protecti
 168:Drivers/STM32WBxx_HAL_Driver/Inc/stm32wbxx_ll_system.h **** #define LL_SYSCFG_SRAM2WRP_PAGE11               SYSCFG_SWPR1_PAGE11      /*!< SRAM2A Write protecti
 169:Drivers/STM32WBxx_HAL_Driver/Inc/stm32wbxx_ll_system.h **** #define LL_SYSCFG_SRAM2WRP_PAGE12               SYSCFG_SWPR1_PAGE12      /*!< SRAM2A Write protecti
 170:Drivers/STM32WBxx_HAL_Driver/Inc/stm32wbxx_ll_system.h **** #define LL_SYSCFG_SRAM2WRP_PAGE13               SYSCFG_SWPR1_PAGE13      /*!< SRAM2A Write protecti
 171:Drivers/STM32WBxx_HAL_Driver/Inc/stm32wbxx_ll_system.h **** #define LL_SYSCFG_SRAM2WRP_PAGE14               SYSCFG_SWPR1_PAGE14      /*!< SRAM2A Write protecti
 172:Drivers/STM32WBxx_HAL_Driver/Inc/stm32wbxx_ll_system.h **** #define LL_SYSCFG_SRAM2WRP_PAGE15               SYSCFG_SWPR1_PAGE15      /*!< SRAM2A Write protecti
 173:Drivers/STM32WBxx_HAL_Driver/Inc/stm32wbxx_ll_system.h **** #define LL_SYSCFG_SRAM2WRP_PAGE16               SYSCFG_SWPR1_PAGE16      /*!< SRAM2A Write protecti
 174:Drivers/STM32WBxx_HAL_Driver/Inc/stm32wbxx_ll_system.h **** #define LL_SYSCFG_SRAM2WRP_PAGE17               SYSCFG_SWPR1_PAGE17      /*!< SRAM2A Write protecti
 175:Drivers/STM32WBxx_HAL_Driver/Inc/stm32wbxx_ll_system.h **** #define LL_SYSCFG_SRAM2WRP_PAGE18               SYSCFG_SWPR1_PAGE18      /*!< SRAM2A Write protecti
 176:Drivers/STM32WBxx_HAL_Driver/Inc/stm32wbxx_ll_system.h **** #define LL_SYSCFG_SRAM2WRP_PAGE19               SYSCFG_SWPR1_PAGE19      /*!< SRAM2A Write protecti
 177:Drivers/STM32WBxx_HAL_Driver/Inc/stm32wbxx_ll_system.h **** #define LL_SYSCFG_SRAM2WRP_PAGE20               SYSCFG_SWPR1_PAGE20      /*!< SRAM2A Write protecti
 178:Drivers/STM32WBxx_HAL_Driver/Inc/stm32wbxx_ll_system.h **** #define LL_SYSCFG_SRAM2WRP_PAGE21               SYSCFG_SWPR1_PAGE21      /*!< SRAM2A Write protecti
 179:Drivers/STM32WBxx_HAL_Driver/Inc/stm32wbxx_ll_system.h **** #define LL_SYSCFG_SRAM2WRP_PAGE22               SYSCFG_SWPR1_PAGE22      /*!< SRAM2A Write protecti
 180:Drivers/STM32WBxx_HAL_Driver/Inc/stm32wbxx_ll_system.h **** #define LL_SYSCFG_SRAM2WRP_PAGE23               SYSCFG_SWPR1_PAGE23      /*!< SRAM2A Write protecti
 181:Drivers/STM32WBxx_HAL_Driver/Inc/stm32wbxx_ll_system.h **** #define LL_SYSCFG_SRAM2WRP_PAGE24               SYSCFG_SWPR1_PAGE24      /*!< SRAM2A Write protecti
 182:Drivers/STM32WBxx_HAL_Driver/Inc/stm32wbxx_ll_system.h **** #define LL_SYSCFG_SRAM2WRP_PAGE25               SYSCFG_SWPR1_PAGE25      /*!< SRAM2A Write protecti
 183:Drivers/STM32WBxx_HAL_Driver/Inc/stm32wbxx_ll_system.h **** #define LL_SYSCFG_SRAM2WRP_PAGE26               SYSCFG_SWPR1_PAGE26      /*!< SRAM2A Write protecti
 184:Drivers/STM32WBxx_HAL_Driver/Inc/stm32wbxx_ll_system.h **** #define LL_SYSCFG_SRAM2WRP_PAGE27               SYSCFG_SWPR1_PAGE27      /*!< SRAM2A Write protecti
 185:Drivers/STM32WBxx_HAL_Driver/Inc/stm32wbxx_ll_system.h **** #define LL_SYSCFG_SRAM2WRP_PAGE28               SYSCFG_SWPR1_PAGE28      /*!< SRAM2A Write protecti
 186:Drivers/STM32WBxx_HAL_Driver/Inc/stm32wbxx_ll_system.h **** #define LL_SYSCFG_SRAM2WRP_PAGE29               SYSCFG_SWPR1_PAGE29      /*!< SRAM2A Write protecti
 187:Drivers/STM32WBxx_HAL_Driver/Inc/stm32wbxx_ll_system.h **** #define LL_SYSCFG_SRAM2WRP_PAGE30               SYSCFG_SWPR1_PAGE30      /*!< SRAM2A Write protecti
 188:Drivers/STM32WBxx_HAL_Driver/Inc/stm32wbxx_ll_system.h **** #define LL_SYSCFG_SRAM2WRP_PAGE31               SYSCFG_SWPR1_PAGE31      /*!< SRAM2A Write protecti
 189:Drivers/STM32WBxx_HAL_Driver/Inc/stm32wbxx_ll_system.h **** 
 190:Drivers/STM32WBxx_HAL_Driver/Inc/stm32wbxx_ll_system.h **** #define LL_SYSCFG_SRAM2WRP_PAGE32               SYSCFG_SWPR2_PAGE32      /*!< SRAM2B Write protecti
 191:Drivers/STM32WBxx_HAL_Driver/Inc/stm32wbxx_ll_system.h **** #define LL_SYSCFG_SRAM2WRP_PAGE33               SYSCFG_SWPR2_PAGE33      /*!< SRAM2B Write protecti
 192:Drivers/STM32WBxx_HAL_Driver/Inc/stm32wbxx_ll_system.h **** #define LL_SYSCFG_SRAM2WRP_PAGE34               SYSCFG_SWPR2_PAGE34      /*!< SRAM2B Write protecti
 193:Drivers/STM32WBxx_HAL_Driver/Inc/stm32wbxx_ll_system.h **** #define LL_SYSCFG_SRAM2WRP_PAGE35               SYSCFG_SWPR2_PAGE35      /*!< SRAM2B Write protecti
 194:Drivers/STM32WBxx_HAL_Driver/Inc/stm32wbxx_ll_system.h **** #define LL_SYSCFG_SRAM2WRP_PAGE36               SYSCFG_SWPR2_PAGE36      /*!< SRAM2B Write protecti
 195:Drivers/STM32WBxx_HAL_Driver/Inc/stm32wbxx_ll_system.h **** #define LL_SYSCFG_SRAM2WRP_PAGE37               SYSCFG_SWPR2_PAGE37      /*!< SRAM2B Write protecti
 196:Drivers/STM32WBxx_HAL_Driver/Inc/stm32wbxx_ll_system.h **** #define LL_SYSCFG_SRAM2WRP_PAGE38               SYSCFG_SWPR2_PAGE38      /*!< SRAM2B Write protecti
 197:Drivers/STM32WBxx_HAL_Driver/Inc/stm32wbxx_ll_system.h **** #define LL_SYSCFG_SRAM2WRP_PAGE39               SYSCFG_SWPR2_PAGE39      /*!< SRAM2B Write protecti
 198:Drivers/STM32WBxx_HAL_Driver/Inc/stm32wbxx_ll_system.h **** #define LL_SYSCFG_SRAM2WRP_PAGE40               SYSCFG_SWPR2_PAGE40      /*!< SRAM2B Write protecti
 199:Drivers/STM32WBxx_HAL_Driver/Inc/stm32wbxx_ll_system.h **** #define LL_SYSCFG_SRAM2WRP_PAGE41               SYSCFG_SWPR2_PAGE41      /*!< SRAM2B Write protecti
 200:Drivers/STM32WBxx_HAL_Driver/Inc/stm32wbxx_ll_system.h **** #define LL_SYSCFG_SRAM2WRP_PAGE42               SYSCFG_SWPR2_PAGE42      /*!< SRAM2B Write protecti
 201:Drivers/STM32WBxx_HAL_Driver/Inc/stm32wbxx_ll_system.h **** #define LL_SYSCFG_SRAM2WRP_PAGE43               SYSCFG_SWPR2_PAGE43      /*!< SRAM2B Write protecti
ARM GAS  /tmp/ccFx4qIG.s 			page 51


 202:Drivers/STM32WBxx_HAL_Driver/Inc/stm32wbxx_ll_system.h **** #define LL_SYSCFG_SRAM2WRP_PAGE44               SYSCFG_SWPR2_PAGE44      /*!< SRAM2B Write protecti
 203:Drivers/STM32WBxx_HAL_Driver/Inc/stm32wbxx_ll_system.h **** #define LL_SYSCFG_SRAM2WRP_PAGE45               SYSCFG_SWPR2_PAGE45      /*!< SRAM2B Write protecti
 204:Drivers/STM32WBxx_HAL_Driver/Inc/stm32wbxx_ll_system.h **** #define LL_SYSCFG_SRAM2WRP_PAGE46               SYSCFG_SWPR2_PAGE46      /*!< SRAM2B Write protecti
 205:Drivers/STM32WBxx_HAL_Driver/Inc/stm32wbxx_ll_system.h **** #define LL_SYSCFG_SRAM2WRP_PAGE47               SYSCFG_SWPR2_PAGE47      /*!< SRAM2B Write protecti
 206:Drivers/STM32WBxx_HAL_Driver/Inc/stm32wbxx_ll_system.h **** #define LL_SYSCFG_SRAM2WRP_PAGE48               SYSCFG_SWPR2_PAGE48      /*!< SRAM2B Write protecti
 207:Drivers/STM32WBxx_HAL_Driver/Inc/stm32wbxx_ll_system.h **** #define LL_SYSCFG_SRAM2WRP_PAGE49               SYSCFG_SWPR2_PAGE49      /*!< SRAM2B Write protecti
 208:Drivers/STM32WBxx_HAL_Driver/Inc/stm32wbxx_ll_system.h **** #define LL_SYSCFG_SRAM2WRP_PAGE50               SYSCFG_SWPR2_PAGE50      /*!< SRAM2B Write protecti
 209:Drivers/STM32WBxx_HAL_Driver/Inc/stm32wbxx_ll_system.h **** #define LL_SYSCFG_SRAM2WRP_PAGE51               SYSCFG_SWPR2_PAGE51      /*!< SRAM2B Write protecti
 210:Drivers/STM32WBxx_HAL_Driver/Inc/stm32wbxx_ll_system.h **** #define LL_SYSCFG_SRAM2WRP_PAGE52               SYSCFG_SWPR2_PAGE52      /*!< SRAM2B Write protecti
 211:Drivers/STM32WBxx_HAL_Driver/Inc/stm32wbxx_ll_system.h **** #define LL_SYSCFG_SRAM2WRP_PAGE53               SYSCFG_SWPR2_PAGE53      /*!< SRAM2B Write protecti
 212:Drivers/STM32WBxx_HAL_Driver/Inc/stm32wbxx_ll_system.h **** #define LL_SYSCFG_SRAM2WRP_PAGE54               SYSCFG_SWPR2_PAGE54      /*!< SRAM2B Write protecti
 213:Drivers/STM32WBxx_HAL_Driver/Inc/stm32wbxx_ll_system.h **** #define LL_SYSCFG_SRAM2WRP_PAGE55               SYSCFG_SWPR2_PAGE55      /*!< SRAM2B Write protecti
 214:Drivers/STM32WBxx_HAL_Driver/Inc/stm32wbxx_ll_system.h **** #define LL_SYSCFG_SRAM2WRP_PAGE56               SYSCFG_SWPR2_PAGE56      /*!< SRAM2B Write protecti
 215:Drivers/STM32WBxx_HAL_Driver/Inc/stm32wbxx_ll_system.h **** #define LL_SYSCFG_SRAM2WRP_PAGE57               SYSCFG_SWPR2_PAGE57      /*!< SRAM2B Write protecti
 216:Drivers/STM32WBxx_HAL_Driver/Inc/stm32wbxx_ll_system.h **** #define LL_SYSCFG_SRAM2WRP_PAGE58               SYSCFG_SWPR2_PAGE58      /*!< SRAM2B Write protecti
 217:Drivers/STM32WBxx_HAL_Driver/Inc/stm32wbxx_ll_system.h **** #define LL_SYSCFG_SRAM2WRP_PAGE59               SYSCFG_SWPR2_PAGE59      /*!< SRAM2B Write protecti
 218:Drivers/STM32WBxx_HAL_Driver/Inc/stm32wbxx_ll_system.h **** #define LL_SYSCFG_SRAM2WRP_PAGE60               SYSCFG_SWPR2_PAGE60      /*!< SRAM2B Write protecti
 219:Drivers/STM32WBxx_HAL_Driver/Inc/stm32wbxx_ll_system.h **** #define LL_SYSCFG_SRAM2WRP_PAGE61               SYSCFG_SWPR2_PAGE61      /*!< SRAM2B Write protecti
 220:Drivers/STM32WBxx_HAL_Driver/Inc/stm32wbxx_ll_system.h **** #define LL_SYSCFG_SRAM2WRP_PAGE62               SYSCFG_SWPR2_PAGE62      /*!< SRAM2B Write protecti
 221:Drivers/STM32WBxx_HAL_Driver/Inc/stm32wbxx_ll_system.h **** #define LL_SYSCFG_SRAM2WRP_PAGE63               SYSCFG_SWPR2_PAGE63      /*!< SRAM2B Write protecti
 222:Drivers/STM32WBxx_HAL_Driver/Inc/stm32wbxx_ll_system.h **** /**
 223:Drivers/STM32WBxx_HAL_Driver/Inc/stm32wbxx_ll_system.h ****   * @}
 224:Drivers/STM32WBxx_HAL_Driver/Inc/stm32wbxx_ll_system.h ****   */
 225:Drivers/STM32WBxx_HAL_Driver/Inc/stm32wbxx_ll_system.h **** 
 226:Drivers/STM32WBxx_HAL_Driver/Inc/stm32wbxx_ll_system.h **** /** @defgroup SYSTEM_LL_EC_IM SYSCFG CPU1 INTERRUPT MASK
 227:Drivers/STM32WBxx_HAL_Driver/Inc/stm32wbxx_ll_system.h ****   * @{
 228:Drivers/STM32WBxx_HAL_Driver/Inc/stm32wbxx_ll_system.h ****   */
 229:Drivers/STM32WBxx_HAL_Driver/Inc/stm32wbxx_ll_system.h **** #define LL_SYSCFG_GRP1_TIM1                     SYSCFG_IMR1_TIM1IM     /*!< Enabling of interrupt f
 230:Drivers/STM32WBxx_HAL_Driver/Inc/stm32wbxx_ll_system.h **** #define LL_SYSCFG_GRP1_TIM16                    SYSCFG_IMR1_TIM16IM    /*!< Enabling of interrupt f
 231:Drivers/STM32WBxx_HAL_Driver/Inc/stm32wbxx_ll_system.h **** #define LL_SYSCFG_GRP1_TIM17                    SYSCFG_IMR1_TIM17IM    /*!< Enabling of interrupt f
 232:Drivers/STM32WBxx_HAL_Driver/Inc/stm32wbxx_ll_system.h **** 
 233:Drivers/STM32WBxx_HAL_Driver/Inc/stm32wbxx_ll_system.h **** #define LL_SYSCFG_GRP1_EXTI5                    SYSCFG_IMR1_EXTI5IM    /*!< Enabling of interrupt f
 234:Drivers/STM32WBxx_HAL_Driver/Inc/stm32wbxx_ll_system.h **** #define LL_SYSCFG_GRP1_EXTI6                    SYSCFG_IMR1_EXTI6IM    /*!< Enabling of interrupt f
 235:Drivers/STM32WBxx_HAL_Driver/Inc/stm32wbxx_ll_system.h **** #define LL_SYSCFG_GRP1_EXTI7                    SYSCFG_IMR1_EXTI7IM    /*!< Enabling of interrupt f
 236:Drivers/STM32WBxx_HAL_Driver/Inc/stm32wbxx_ll_system.h **** #define LL_SYSCFG_GRP1_EXTI8                    SYSCFG_IMR1_EXTI8IM    /*!< Enabling of interrupt f
 237:Drivers/STM32WBxx_HAL_Driver/Inc/stm32wbxx_ll_system.h **** #define LL_SYSCFG_GRP1_EXTI9                    SYSCFG_IMR1_EXTI9IM    /*!< Enabling of interrupt f
 238:Drivers/STM32WBxx_HAL_Driver/Inc/stm32wbxx_ll_system.h **** #define LL_SYSCFG_GRP1_EXTI10                   SYSCFG_IMR1_EXTI10IM   /*!< Enabling of interrupt f
 239:Drivers/STM32WBxx_HAL_Driver/Inc/stm32wbxx_ll_system.h **** #define LL_SYSCFG_GRP1_EXTI11                   SYSCFG_IMR1_EXTI11IM   /*!< Enabling of interrupt f
 240:Drivers/STM32WBxx_HAL_Driver/Inc/stm32wbxx_ll_system.h **** #define LL_SYSCFG_GRP1_EXTI12                   SYSCFG_IMR1_EXTI12IM   /*!< Enabling of interrupt f
 241:Drivers/STM32WBxx_HAL_Driver/Inc/stm32wbxx_ll_system.h **** #define LL_SYSCFG_GRP1_EXTI13                   SYSCFG_IMR1_EXTI13IM   /*!< Enabling of interrupt f
 242:Drivers/STM32WBxx_HAL_Driver/Inc/stm32wbxx_ll_system.h **** #define LL_SYSCFG_GRP1_EXTI14                   SYSCFG_IMR1_EXTI14IM   /*!< Enabling of interrupt f
 243:Drivers/STM32WBxx_HAL_Driver/Inc/stm32wbxx_ll_system.h **** #define LL_SYSCFG_GRP1_EXTI15                   SYSCFG_IMR1_EXTI15IM   /*!< Enabling of interrupt f
 244:Drivers/STM32WBxx_HAL_Driver/Inc/stm32wbxx_ll_system.h **** 
 245:Drivers/STM32WBxx_HAL_Driver/Inc/stm32wbxx_ll_system.h **** #if defined(SYSCFG_IMR2_PVM1IM)
 246:Drivers/STM32WBxx_HAL_Driver/Inc/stm32wbxx_ll_system.h **** #define LL_SYSCFG_GRP2_PVM1                     SYSCFG_IMR2_PVM1IM     /*!< Enabling of interrupt f
 247:Drivers/STM32WBxx_HAL_Driver/Inc/stm32wbxx_ll_system.h **** #endif
 248:Drivers/STM32WBxx_HAL_Driver/Inc/stm32wbxx_ll_system.h **** #define LL_SYSCFG_GRP2_PVM3                     SYSCFG_IMR2_PVM3IM     /*!< Enabling of interrupt f
 249:Drivers/STM32WBxx_HAL_Driver/Inc/stm32wbxx_ll_system.h **** #define LL_SYSCFG_GRP2_PVD                      SYSCFG_IMR2_PVDIM      /*!< Enabling of interrupt f
 250:Drivers/STM32WBxx_HAL_Driver/Inc/stm32wbxx_ll_system.h **** /**
 251:Drivers/STM32WBxx_HAL_Driver/Inc/stm32wbxx_ll_system.h ****   * @}
 252:Drivers/STM32WBxx_HAL_Driver/Inc/stm32wbxx_ll_system.h ****   */
 253:Drivers/STM32WBxx_HAL_Driver/Inc/stm32wbxx_ll_system.h **** 
 254:Drivers/STM32WBxx_HAL_Driver/Inc/stm32wbxx_ll_system.h **** /** @defgroup SYSTEM_LL_EC_C2_IM SYSCFG CPU2 INTERRUPT MASK
 255:Drivers/STM32WBxx_HAL_Driver/Inc/stm32wbxx_ll_system.h ****   * @{
 256:Drivers/STM32WBxx_HAL_Driver/Inc/stm32wbxx_ll_system.h ****   */
 257:Drivers/STM32WBxx_HAL_Driver/Inc/stm32wbxx_ll_system.h **** #define LL_C2_SYSCFG_GRP1_RTCSTAMP_RTCTAMP_LSECSS  SYSCFG_C2IMR1_RTCSTAMPTAMPLSECSSIM /*!< Enabling
 258:Drivers/STM32WBxx_HAL_Driver/Inc/stm32wbxx_ll_system.h ****                                                                                       and LSE Clock
ARM GAS  /tmp/ccFx4qIG.s 			page 52


