ARM GAS  /tmp/ccL4sKcp.s 			page 1


   1              		.cpu cortex-m4
   2              		.eabi_attribute 27, 1
   3              		.eabi_attribute 28, 1
   4              		.eabi_attribute 20, 1
   5              		.eabi_attribute 21, 1
   6              		.eabi_attribute 23, 3
   7              		.eabi_attribute 24, 1
   8              		.eabi_attribute 25, 1
   9              		.eabi_attribute 26, 1
  10              		.eabi_attribute 30, 1
  11              		.eabi_attribute 34, 1
  12              		.eabi_attribute 18, 4
  13              		.file	"usbd_conf.c"
  14              		.text
  15              	.Ltext0:
  16              		.cfi_sections	.debug_frame
  17              		.section	.text.USBD_Get_USB_Status,"ax",%progbits
  18              		.align	1
  19              		.arch armv7e-m
  20              		.syntax unified
  21              		.thumb
  22              		.thumb_func
  23              		.fpu fpv4-sp-d16
  25              	USBD_Get_USB_Status:
  26              	.LVL0:
  27              	.LFB976:
  28              		.file 1 "Src/usbd_conf.c"
   1:Src/usbd_conf.c **** /* USER CODE BEGIN Header */
   2:Src/usbd_conf.c **** /**
   3:Src/usbd_conf.c ****   ******************************************************************************
   4:Src/usbd_conf.c ****   * @file           : usbd_conf.c
   5:Src/usbd_conf.c ****   * @version        : v3.0_Cube
   6:Src/usbd_conf.c ****   * @brief          : This file implements the board support package for the USB device library
   7:Src/usbd_conf.c ****   ******************************************************************************
   8:Src/usbd_conf.c ****   * @attention
   9:Src/usbd_conf.c ****   *
  10:Src/usbd_conf.c ****   * <h2><center>&copy; Copyright (c) 2019 STMicroelectronics.
  11:Src/usbd_conf.c ****   * All rights reserved.</center></h2>
  12:Src/usbd_conf.c ****   *
  13:Src/usbd_conf.c ****   * This software component is licensed by ST under Ultimate Liberty license
  14:Src/usbd_conf.c ****   * SLA0044, the "License"; You may not use this file except in compliance with
  15:Src/usbd_conf.c ****   * the License. You may obtain a copy of the License at:
  16:Src/usbd_conf.c ****   *                             www.st.com/SLA0044
  17:Src/usbd_conf.c ****   *
  18:Src/usbd_conf.c ****   ******************************************************************************
  19:Src/usbd_conf.c ****   */
  20:Src/usbd_conf.c **** /* USER CODE END Header */
  21:Src/usbd_conf.c **** 
  22:Src/usbd_conf.c **** /* Includes ------------------------------------------------------------------*/
  23:Src/usbd_conf.c **** #include "stm32wbxx.h"
  24:Src/usbd_conf.c **** #include "stm32wbxx_hal.h"
  25:Src/usbd_conf.c **** #include "usbd_def.h"
  26:Src/usbd_conf.c **** #include "usbd_core.h"
  27:Src/usbd_conf.c **** 
  28:Src/usbd_conf.c **** #include "usbd_cdc.h"
  29:Src/usbd_conf.c **** 
  30:Src/usbd_conf.c **** /* USER CODE BEGIN Includes */
ARM GAS  /tmp/ccL4sKcp.s 			page 2


  31:Src/usbd_conf.c **** 
  32:Src/usbd_conf.c **** /* USER CODE END Includes */
  33:Src/usbd_conf.c **** 
  34:Src/usbd_conf.c **** /* Private typedef -----------------------------------------------------------*/
  35:Src/usbd_conf.c **** /* Private define ------------------------------------------------------------*/
  36:Src/usbd_conf.c **** /* Private macro -------------------------------------------------------------*/
  37:Src/usbd_conf.c **** 
  38:Src/usbd_conf.c **** /* Private variables ---------------------------------------------------------*/
  39:Src/usbd_conf.c **** /* USER CODE BEGIN PV */
  40:Src/usbd_conf.c **** 
  41:Src/usbd_conf.c **** /* USER CODE END PV */
  42:Src/usbd_conf.c **** 
  43:Src/usbd_conf.c **** PCD_HandleTypeDef hpcd_USB_FS;
  44:Src/usbd_conf.c **** void Error_Handler(void);
  45:Src/usbd_conf.c **** 
  46:Src/usbd_conf.c **** /* USER CODE BEGIN 0 */
  47:Src/usbd_conf.c **** 
  48:Src/usbd_conf.c **** /* USER CODE END 0 */
  49:Src/usbd_conf.c **** 
  50:Src/usbd_conf.c **** /* Exported function prototypes ----------------------------------------------*/
  51:Src/usbd_conf.c **** 
  52:Src/usbd_conf.c **** /* USER CODE BEGIN PFP */
  53:Src/usbd_conf.c **** /* Private function prototypes -----------------------------------------------*/
  54:Src/usbd_conf.c **** 
  55:Src/usbd_conf.c **** /* USER CODE END PFP */
  56:Src/usbd_conf.c **** 
  57:Src/usbd_conf.c **** /* Private functions ---------------------------------------------------------*/
  58:Src/usbd_conf.c **** static USBD_StatusTypeDef USBD_Get_USB_Status(HAL_StatusTypeDef hal_status);
  59:Src/usbd_conf.c **** /* USER CODE BEGIN 1 */
  60:Src/usbd_conf.c **** static void SystemClockConfig_Resume(void);
  61:Src/usbd_conf.c **** 
  62:Src/usbd_conf.c **** /* USER CODE END 1 */
  63:Src/usbd_conf.c **** extern void SystemClock_Config(void);
  64:Src/usbd_conf.c **** 
  65:Src/usbd_conf.c **** /*******************************************************************************
  66:Src/usbd_conf.c ****                        LL Driver Callbacks (PCD -> USB Device Library)
  67:Src/usbd_conf.c **** *******************************************************************************/
  68:Src/usbd_conf.c **** /* MSP Init */
  69:Src/usbd_conf.c **** 
  70:Src/usbd_conf.c **** #if (USE_HAL_PCD_REGISTER_CALLBACK == 1U)
  71:Src/usbd_conf.c **** static void HAL_PCD_MspInit(PCD_HandleTypeDef* pcdHandle)
  72:Src/usbd_conf.c **** #else
  73:Src/usbd_conf.c **** void HAL_PCD_MspInit(PCD_HandleTypeDef* pcdHandle)
  74:Src/usbd_conf.c **** #endif /* USE_HAL_PCD_REGISTER_CALLBACK */
  75:Src/usbd_conf.c **** {
  76:Src/usbd_conf.c ****   GPIO_InitTypeDef GPIO_InitStruct = {0};
  77:Src/usbd_conf.c ****   if(pcdHandle->Instance==USB)
  78:Src/usbd_conf.c ****   {
  79:Src/usbd_conf.c ****   /* USER CODE BEGIN USB_MspInit 0 */
  80:Src/usbd_conf.c **** 
  81:Src/usbd_conf.c ****   /* USER CODE END USB_MspInit 0 */
  82:Src/usbd_conf.c ****   
  83:Src/usbd_conf.c ****     __HAL_RCC_GPIOA_CLK_ENABLE();
  84:Src/usbd_conf.c ****     /**USB GPIO Configuration    
  85:Src/usbd_conf.c ****     PA11     ------> USB_DM
  86:Src/usbd_conf.c ****     PA12     ------> USB_DP 
  87:Src/usbd_conf.c ****     */
ARM GAS  /tmp/ccL4sKcp.s 			page 3


  88:Src/usbd_conf.c ****     GPIO_InitStruct.Pin = GPIO_PIN_11|GPIO_PIN_12;
  89:Src/usbd_conf.c ****     GPIO_InitStruct.Mode = GPIO_MODE_AF_PP;
  90:Src/usbd_conf.c ****     GPIO_InitStruct.Pull = GPIO_NOPULL;
  91:Src/usbd_conf.c ****     GPIO_InitStruct.Speed = GPIO_SPEED_FREQ_LOW;
  92:Src/usbd_conf.c ****     GPIO_InitStruct.Alternate = GPIO_AF10_USB;
  93:Src/usbd_conf.c ****     HAL_GPIO_Init(GPIOA, &GPIO_InitStruct);
  94:Src/usbd_conf.c **** 
  95:Src/usbd_conf.c ****     /* Peripheral clock enable */
  96:Src/usbd_conf.c ****     __HAL_RCC_USB_CLK_ENABLE();
  97:Src/usbd_conf.c **** 
  98:Src/usbd_conf.c ****     /* Peripheral interrupt init */
  99:Src/usbd_conf.c ****     HAL_NVIC_SetPriority(USB_LP_IRQn, 0, 0);
 100:Src/usbd_conf.c ****     HAL_NVIC_EnableIRQ(USB_LP_IRQn);
 101:Src/usbd_conf.c ****   /* USER CODE BEGIN USB_MspInit 1 */
 102:Src/usbd_conf.c **** 
 103:Src/usbd_conf.c ****   /* USER CODE END USB_MspInit 1 */
 104:Src/usbd_conf.c ****   }
 105:Src/usbd_conf.c **** }
 106:Src/usbd_conf.c **** 
 107:Src/usbd_conf.c **** #if (USE_HAL_PCD_REGISTER_CALLBACK == 1U)
 108:Src/usbd_conf.c **** static void HAL_PCD_MspDeInit(PCD_HandleTypeDef* pcdHandle)
 109:Src/usbd_conf.c **** #else
 110:Src/usbd_conf.c **** void HAL_PCD_MspDeInit(PCD_HandleTypeDef* pcdHandle)
 111:Src/usbd_conf.c **** #endif /* USE_HAL_PCD_REGISTER_CALLBACK */
 112:Src/usbd_conf.c **** {
 113:Src/usbd_conf.c ****   if(pcdHandle->Instance==USB)
 114:Src/usbd_conf.c ****   {
 115:Src/usbd_conf.c ****   /* USER CODE BEGIN USB_MspDeInit 0 */
 116:Src/usbd_conf.c **** 
 117:Src/usbd_conf.c ****   /* USER CODE END USB_MspDeInit 0 */
 118:Src/usbd_conf.c ****     /* Peripheral clock disable */
 119:Src/usbd_conf.c ****     __HAL_RCC_USB_CLK_DISABLE();
 120:Src/usbd_conf.c ****   
 121:Src/usbd_conf.c ****     /**USB GPIO Configuration    
 122:Src/usbd_conf.c ****     PA11     ------> USB_DM
 123:Src/usbd_conf.c ****     PA12     ------> USB_DP 
 124:Src/usbd_conf.c ****     */
 125:Src/usbd_conf.c ****     HAL_GPIO_DeInit(GPIOA, GPIO_PIN_11|GPIO_PIN_12);
 126:Src/usbd_conf.c **** 
 127:Src/usbd_conf.c ****     /* Peripheral interrupt Deinit*/
 128:Src/usbd_conf.c ****     HAL_NVIC_DisableIRQ(USB_LP_IRQn);
 129:Src/usbd_conf.c **** 
 130:Src/usbd_conf.c ****   /* USER CODE BEGIN USB_MspDeInit 1 */
 131:Src/usbd_conf.c **** 
 132:Src/usbd_conf.c ****   /* USER CODE END USB_MspDeInit 1 */
 133:Src/usbd_conf.c ****   }
 134:Src/usbd_conf.c **** }
 135:Src/usbd_conf.c **** 
 136:Src/usbd_conf.c **** /**
 137:Src/usbd_conf.c ****   * @brief  Setup stage callback
 138:Src/usbd_conf.c ****   * @param  hpcd: PCD handle
 139:Src/usbd_conf.c ****   * @retval None
 140:Src/usbd_conf.c ****   */
 141:Src/usbd_conf.c **** #if (USE_HAL_PCD_REGISTER_CALLBACKS == 1U)
 142:Src/usbd_conf.c **** static void PCD_SetupStageCallback(PCD_HandleTypeDef *hpcd)
 143:Src/usbd_conf.c **** #else
 144:Src/usbd_conf.c **** void HAL_PCD_SetupStageCallback(PCD_HandleTypeDef *hpcd)
ARM GAS  /tmp/ccL4sKcp.s 			page 4


 145:Src/usbd_conf.c **** #endif /* USE_HAL_PCD_REGISTER_CALLBACKS */
 146:Src/usbd_conf.c **** {
 147:Src/usbd_conf.c ****   /* USER CODE BEGIN HAL_PCD_SetupStageCallback_PreTreatment */
 148:Src/usbd_conf.c ****   
 149:Src/usbd_conf.c ****   /* USER CODE END  HAL_PCD_SetupStageCallback_PreTreatment */
 150:Src/usbd_conf.c ****   USBD_LL_SetupStage((USBD_HandleTypeDef*)hpcd->pData, (uint8_t *)hpcd->Setup);  
 151:Src/usbd_conf.c ****   /* USER CODE BEGIN HAL_PCD_SetupStageCallback_PostTreatment */
 152:Src/usbd_conf.c ****   
 153:Src/usbd_conf.c ****   /* USER CODE END  HAL_PCD_SetupStageCallback_PostTreatment */
 154:Src/usbd_conf.c **** }
 155:Src/usbd_conf.c **** 
 156:Src/usbd_conf.c **** /**
 157:Src/usbd_conf.c ****   * @brief  Data Out stage callback.
 158:Src/usbd_conf.c ****   * @param  hpcd: PCD handle
 159:Src/usbd_conf.c ****   * @param  epnum: Endpoint number
 160:Src/usbd_conf.c ****   * @retval None
 161:Src/usbd_conf.c ****   */
 162:Src/usbd_conf.c **** #if (USE_HAL_PCD_REGISTER_CALLBACKS == 1U)
 163:Src/usbd_conf.c **** static void PCD_DataOutStageCallback(PCD_HandleTypeDef *hpcd, uint8_t epnum)
 164:Src/usbd_conf.c **** #else
 165:Src/usbd_conf.c **** void HAL_PCD_DataOutStageCallback(PCD_HandleTypeDef *hpcd, uint8_t epnum)
 166:Src/usbd_conf.c **** #endif /* USE_HAL_PCD_REGISTER_CALLBACKS */
 167:Src/usbd_conf.c **** {
 168:Src/usbd_conf.c ****   /* USER CODE BEGIN HAL_PCD_DataOutStageCallback_PreTreatment */
 169:Src/usbd_conf.c ****   
 170:Src/usbd_conf.c ****   /* USER CODE END HAL_PCD_DataOutStageCallback_PreTreatment */
 171:Src/usbd_conf.c ****   USBD_LL_DataOutStage((USBD_HandleTypeDef*)hpcd->pData, epnum, hpcd->OUT_ep[epnum].xfer_buff);  
 172:Src/usbd_conf.c ****   /* USER CODE BEGIN HAL_PCD_DataOutStageCallback_PostTreatment */
 173:Src/usbd_conf.c ****   
 174:Src/usbd_conf.c ****   /* USER CODE END HAL_PCD_DataOutStageCallback_PostTreatment */
 175:Src/usbd_conf.c **** }
 176:Src/usbd_conf.c **** 
 177:Src/usbd_conf.c **** /**
 178:Src/usbd_conf.c ****   * @brief  Data In stage callback.
 179:Src/usbd_conf.c ****   * @param  hpcd: PCD handle
 180:Src/usbd_conf.c ****   * @param  epnum: Endpoint number
 181:Src/usbd_conf.c ****   * @retval None
 182:Src/usbd_conf.c ****   */
 183:Src/usbd_conf.c **** #if (USE_HAL_PCD_REGISTER_CALLBACKS == 1U)
 184:Src/usbd_conf.c **** static void PCD_DataInStageCallback(PCD_HandleTypeDef *hpcd, uint8_t epnum)
 185:Src/usbd_conf.c **** #else
 186:Src/usbd_conf.c **** void HAL_PCD_DataInStageCallback(PCD_HandleTypeDef *hpcd, uint8_t epnum)
 187:Src/usbd_conf.c **** #endif /* USE_HAL_PCD_REGISTER_CALLBACKS */
 188:Src/usbd_conf.c **** {
 189:Src/usbd_conf.c ****   /* USER CODE BEGIN HAL_PCD_DataInStageCallback_PreTreatment */
 190:Src/usbd_conf.c ****   
 191:Src/usbd_conf.c ****   /* USER CODE END HAL_PCD_DataInStageCallback_PreTreatment */  
 192:Src/usbd_conf.c ****   USBD_LL_DataInStage((USBD_HandleTypeDef*)hpcd->pData, epnum, hpcd->IN_ep[epnum].xfer_buff);  
 193:Src/usbd_conf.c ****   /* USER CODE BEGIN HAL_PCD_DataInStageCallback_PostTreatment  */
 194:Src/usbd_conf.c ****   
 195:Src/usbd_conf.c ****   /* USER CODE END HAL_PCD_DataInStageCallback_PostTreatment */
 196:Src/usbd_conf.c **** }
 197:Src/usbd_conf.c **** 
 198:Src/usbd_conf.c **** /**
 199:Src/usbd_conf.c ****   * @brief  SOF callback.
 200:Src/usbd_conf.c ****   * @param  hpcd: PCD handle
 201:Src/usbd_conf.c ****   * @retval None
ARM GAS  /tmp/ccL4sKcp.s 			page 5


 202:Src/usbd_conf.c ****   */
 203:Src/usbd_conf.c **** #if (USE_HAL_PCD_REGISTER_CALLBACKS == 1U)
 204:Src/usbd_conf.c **** static void PCD_SOFCallback(PCD_HandleTypeDef *hpcd)
 205:Src/usbd_conf.c **** #else
 206:Src/usbd_conf.c **** void HAL_PCD_SOFCallback(PCD_HandleTypeDef *hpcd)
 207:Src/usbd_conf.c **** #endif /* USE_HAL_PCD_REGISTER_CALLBACKS */
 208:Src/usbd_conf.c **** {
 209:Src/usbd_conf.c ****   /* USER CODE BEGIN HAL_PCD_SOFCallback_PreTreatment */
 210:Src/usbd_conf.c ****   
 211:Src/usbd_conf.c ****   /* USER CODE END HAL_PCD_SOFCallback_PreTreatment */  
 212:Src/usbd_conf.c ****   USBD_LL_SOF((USBD_HandleTypeDef*)hpcd->pData);  
 213:Src/usbd_conf.c ****   /* USER CODE BEGIN HAL_PCD_SOFCallback_PostTreatment */
 214:Src/usbd_conf.c ****   
 215:Src/usbd_conf.c ****   /* USER CODE END HAL_PCD_SOFCallback_PostTreatment */
 216:Src/usbd_conf.c **** }
 217:Src/usbd_conf.c **** 
 218:Src/usbd_conf.c **** /**
 219:Src/usbd_conf.c ****   * @brief  Reset callback.
 220:Src/usbd_conf.c ****   * @param  hpcd: PCD handle
 221:Src/usbd_conf.c ****   * @retval None
 222:Src/usbd_conf.c ****   */
 223:Src/usbd_conf.c **** #if (USE_HAL_PCD_REGISTER_CALLBACKS == 1U)
 224:Src/usbd_conf.c **** static void PCD_ResetCallback(PCD_HandleTypeDef *hpcd)
 225:Src/usbd_conf.c **** #else
 226:Src/usbd_conf.c **** void HAL_PCD_ResetCallback(PCD_HandleTypeDef *hpcd)
 227:Src/usbd_conf.c **** #endif /* USE_HAL_PCD_REGISTER_CALLBACKS */
 228:Src/usbd_conf.c **** { 
 229:Src/usbd_conf.c ****   /* USER CODE BEGIN HAL_PCD_ResetCallback_PreTreatment */
 230:Src/usbd_conf.c ****   
 231:Src/usbd_conf.c ****   /* USER CODE END HAL_PCD_ResetCallback_PreTreatment */
 232:Src/usbd_conf.c ****   USBD_SpeedTypeDef speed = USBD_SPEED_FULL;
 233:Src/usbd_conf.c **** 
 234:Src/usbd_conf.c ****   if ( hpcd->Init.speed != PCD_SPEED_FULL)
 235:Src/usbd_conf.c ****   {
 236:Src/usbd_conf.c ****     Error_Handler();
 237:Src/usbd_conf.c ****   }
 238:Src/usbd_conf.c ****     /* Set Speed. */
 239:Src/usbd_conf.c ****   USBD_LL_SetSpeed((USBD_HandleTypeDef*)hpcd->pData, speed);
 240:Src/usbd_conf.c **** 
 241:Src/usbd_conf.c ****   /* Reset Device. */
 242:Src/usbd_conf.c ****   USBD_LL_Reset((USBD_HandleTypeDef*)hpcd->pData);
 243:Src/usbd_conf.c ****   /* USER CODE BEGIN HAL_PCD_ResetCallback_PostTreatment */
 244:Src/usbd_conf.c ****   
 245:Src/usbd_conf.c ****   /* USER CODE END HAL_PCD_ResetCallback_PostTreatment */
 246:Src/usbd_conf.c **** }
 247:Src/usbd_conf.c **** 
 248:Src/usbd_conf.c **** /**
 249:Src/usbd_conf.c ****   * @brief  Suspend callback.
 250:Src/usbd_conf.c ****   * When Low power mode is enabled the debug cannot be used (IAR, Keil doesn't support it)
 251:Src/usbd_conf.c ****   * @param  hpcd: PCD handle
 252:Src/usbd_conf.c ****   * @retval None
 253:Src/usbd_conf.c ****   */
 254:Src/usbd_conf.c **** #if (USE_HAL_PCD_REGISTER_CALLBACKS == 1U)
 255:Src/usbd_conf.c **** static void PCD_SuspendCallback(PCD_HandleTypeDef *hpcd)
 256:Src/usbd_conf.c **** #else
 257:Src/usbd_conf.c **** void HAL_PCD_SuspendCallback(PCD_HandleTypeDef *hpcd)
 258:Src/usbd_conf.c **** #endif /* USE_HAL_PCD_REGISTER_CALLBACKS */
ARM GAS  /tmp/ccL4sKcp.s 			page 6


 259:Src/usbd_conf.c **** {
 260:Src/usbd_conf.c ****   /* USER CODE BEGIN HAL_PCD_SuspendCallback_PreTreatment */
 261:Src/usbd_conf.c ****   
 262:Src/usbd_conf.c ****   /* USER CODE END HAL_PCD_SuspendCallback_PreTreatment */
 263:Src/usbd_conf.c ****   /* Inform USB library that core enters in suspend Mode. */
 264:Src/usbd_conf.c ****   USBD_LL_Suspend((USBD_HandleTypeDef*)hpcd->pData);
 265:Src/usbd_conf.c ****   /* Enter in STOP mode. */
 266:Src/usbd_conf.c ****   /* USER CODE BEGIN 2 */
 267:Src/usbd_conf.c ****   if (hpcd->Init.low_power_enable)
 268:Src/usbd_conf.c ****   {
 269:Src/usbd_conf.c ****     /* Set SLEEPDEEP bit and SleepOnExit of Cortex System Control Register. */
 270:Src/usbd_conf.c ****     SCB->SCR |= (uint32_t)((uint32_t)(SCB_SCR_SLEEPDEEP_Msk | SCB_SCR_SLEEPONEXIT_Msk));
 271:Src/usbd_conf.c ****   }
 272:Src/usbd_conf.c ****   /* USER CODE END 2 */
 273:Src/usbd_conf.c ****   /* USER CODE BEGIN HAL_PCD_SuspendCallback_PostTreatment */
 274:Src/usbd_conf.c ****   
 275:Src/usbd_conf.c ****   /* USER CODE END HAL_PCD_SuspendCallback_PostTreatment */
 276:Src/usbd_conf.c **** }
 277:Src/usbd_conf.c **** 
 278:Src/usbd_conf.c **** /**
 279:Src/usbd_conf.c ****   * @brief  Resume callback.
 280:Src/usbd_conf.c ****   * When Low power mode is enabled the debug cannot be used (IAR, Keil doesn't support it)
 281:Src/usbd_conf.c ****   * @param  hpcd: PCD handle
 282:Src/usbd_conf.c ****   * @retval None
 283:Src/usbd_conf.c ****   */
 284:Src/usbd_conf.c **** #if (USE_HAL_PCD_REGISTER_CALLBACKS == 1U)
 285:Src/usbd_conf.c **** static void PCD_ResumeCallback(PCD_HandleTypeDef *hpcd)
 286:Src/usbd_conf.c **** #else
 287:Src/usbd_conf.c **** void HAL_PCD_ResumeCallback(PCD_HandleTypeDef *hpcd)
 288:Src/usbd_conf.c **** #endif /* USE_HAL_PCD_REGISTER_CALLBACKS */
 289:Src/usbd_conf.c **** {
 290:Src/usbd_conf.c ****   /* USER CODE BEGIN HAL_PCD_ResumeCallback_PreTreatment */
 291:Src/usbd_conf.c ****   
 292:Src/usbd_conf.c ****   /* USER CODE END HAL_PCD_ResumeCallback_PreTreatment */
 293:Src/usbd_conf.c **** 
 294:Src/usbd_conf.c ****   /* USER CODE BEGIN 3 */
 295:Src/usbd_conf.c ****   if (hpcd->Init.low_power_enable)
 296:Src/usbd_conf.c ****   {
 297:Src/usbd_conf.c ****     /* Reset SLEEPDEEP bit of Cortex System Control Register. */
 298:Src/usbd_conf.c ****     SCB->SCR &= (uint32_t)~((uint32_t)(SCB_SCR_SLEEPDEEP_Msk | SCB_SCR_SLEEPONEXIT_Msk));
 299:Src/usbd_conf.c ****     SystemClockConfig_Resume();
 300:Src/usbd_conf.c ****   }
 301:Src/usbd_conf.c ****   /* USER CODE END 3 */
 302:Src/usbd_conf.c ****  
 303:Src/usbd_conf.c ****   USBD_LL_Resume((USBD_HandleTypeDef*)hpcd->pData);
 304:Src/usbd_conf.c ****   /* USER CODE BEGIN HAL_PCD_ResumeCallback_PostTreatment */
 305:Src/usbd_conf.c ****   
 306:Src/usbd_conf.c ****   /* USER CODE END HAL_PCD_ResumeCallback_PostTreatment */
 307:Src/usbd_conf.c **** }
 308:Src/usbd_conf.c **** 
 309:Src/usbd_conf.c **** /**
 310:Src/usbd_conf.c ****   * @brief  ISOOUTIncomplete callback.
 311:Src/usbd_conf.c ****   * @param  hpcd: PCD handle
 312:Src/usbd_conf.c ****   * @param  epnum: Endpoint number
 313:Src/usbd_conf.c ****   * @retval None
 314:Src/usbd_conf.c ****   */
 315:Src/usbd_conf.c **** #if (USE_HAL_PCD_REGISTER_CALLBACKS == 1U)
ARM GAS  /tmp/ccL4sKcp.s 			page 7


 316:Src/usbd_conf.c **** static void PCD_ISOOUTIncompleteCallback(PCD_HandleTypeDef *hpcd, uint8_t epnum)
 317:Src/usbd_conf.c **** #else
 318:Src/usbd_conf.c **** void HAL_PCD_ISOOUTIncompleteCallback(PCD_HandleTypeDef *hpcd, uint8_t epnum)
 319:Src/usbd_conf.c **** #endif /* USE_HAL_PCD_REGISTER_CALLBACKS */
 320:Src/usbd_conf.c **** {
 321:Src/usbd_conf.c ****   /* USER CODE BEGIN HAL_PCD_ISOOUTIncompleteCallback_PreTreatment */
 322:Src/usbd_conf.c ****   
 323:Src/usbd_conf.c ****   /* USER CODE END HAL_PCD_ISOOUTIncompleteCallback_PreTreatment */
 324:Src/usbd_conf.c ****   USBD_LL_IsoOUTIncomplete((USBD_HandleTypeDef*)hpcd->pData, epnum);
 325:Src/usbd_conf.c ****   /* USER CODE BEGIN HAL_PCD_ISOOUTIncompleteCallback_PostTreatment */
 326:Src/usbd_conf.c ****   
 327:Src/usbd_conf.c ****   /* USER CODE END HAL_PCD_ISOOUTIncompleteCallback_PostTreatment */
 328:Src/usbd_conf.c **** }
 329:Src/usbd_conf.c **** 
 330:Src/usbd_conf.c **** /**
 331:Src/usbd_conf.c ****   * @brief  ISOINIncomplete callback.
 332:Src/usbd_conf.c ****   * @param  hpcd: PCD handle
 333:Src/usbd_conf.c ****   * @param  epnum: Endpoint number
 334:Src/usbd_conf.c ****   * @retval None
 335:Src/usbd_conf.c ****   */
 336:Src/usbd_conf.c **** #if (USE_HAL_PCD_REGISTER_CALLBACKS == 1U)
 337:Src/usbd_conf.c **** static void PCD_ISOINIncompleteCallback(PCD_HandleTypeDef *hpcd, uint8_t epnum)
 338:Src/usbd_conf.c **** #else
 339:Src/usbd_conf.c **** void HAL_PCD_ISOINIncompleteCallback(PCD_HandleTypeDef *hpcd, uint8_t epnum)
 340:Src/usbd_conf.c **** #endif /* USE_HAL_PCD_REGISTER_CALLBACKS */
 341:Src/usbd_conf.c **** {
 342:Src/usbd_conf.c ****   /* USER CODE BEGIN HAL_PCD_ISOINIncompleteCallback_PreTreatment */
 343:Src/usbd_conf.c ****   
 344:Src/usbd_conf.c ****   /* USER CODE END HAL_PCD_ISOINIncompleteCallback_PreTreatment */
 345:Src/usbd_conf.c ****   USBD_LL_IsoINIncomplete((USBD_HandleTypeDef*)hpcd->pData, epnum);
 346:Src/usbd_conf.c ****   /* USER CODE BEGIN HAL_PCD_ISOINIncompleteCallback_PostTreatment */
 347:Src/usbd_conf.c ****   
 348:Src/usbd_conf.c ****   /* USER CODE END HAL_PCD_ISOINIncompleteCallback_PostTreatment */
 349:Src/usbd_conf.c **** }
 350:Src/usbd_conf.c **** 
 351:Src/usbd_conf.c **** /**
 352:Src/usbd_conf.c ****   * @brief  Connect callback.
 353:Src/usbd_conf.c ****   * @param  hpcd: PCD handle
 354:Src/usbd_conf.c ****   * @retval None
 355:Src/usbd_conf.c ****   */
 356:Src/usbd_conf.c **** #if (USE_HAL_PCD_REGISTER_CALLBACKS == 1U)
 357:Src/usbd_conf.c **** static void PCD_ConnectCallback(PCD_HandleTypeDef *hpcd)
 358:Src/usbd_conf.c **** #else
 359:Src/usbd_conf.c **** void HAL_PCD_ConnectCallback(PCD_HandleTypeDef *hpcd)
 360:Src/usbd_conf.c **** #endif /* USE_HAL_PCD_REGISTER_CALLBACKS */
 361:Src/usbd_conf.c **** {
 362:Src/usbd_conf.c ****   /* USER CODE BEGIN HAL_PCD_ConnectCallback_PreTreatment */
 363:Src/usbd_conf.c ****   
 364:Src/usbd_conf.c ****   /* USER CODE END HAL_PCD_ConnectCallback_PreTreatment */
 365:Src/usbd_conf.c ****   USBD_LL_DevConnected((USBD_HandleTypeDef*)hpcd->pData);
 366:Src/usbd_conf.c ****   /* USER CODE BEGIN HAL_PCD_ConnectCallback_PostTreatment */
 367:Src/usbd_conf.c ****   
 368:Src/usbd_conf.c ****   /* USER CODE END HAL_PCD_ConnectCallback_PostTreatment */
 369:Src/usbd_conf.c **** }
 370:Src/usbd_conf.c **** 
 371:Src/usbd_conf.c **** /**
 372:Src/usbd_conf.c ****   * @brief  Disconnect callback.
ARM GAS  /tmp/ccL4sKcp.s 			page 8


 373:Src/usbd_conf.c ****   * @param  hpcd: PCD handle
 374:Src/usbd_conf.c ****   * @retval None
 375:Src/usbd_conf.c ****   */
 376:Src/usbd_conf.c **** #if (USE_HAL_PCD_REGISTER_CALLBACKS == 1U)
 377:Src/usbd_conf.c **** static void PCD_DisconnectCallback(PCD_HandleTypeDef *hpcd)
 378:Src/usbd_conf.c **** #else
 379:Src/usbd_conf.c **** void HAL_PCD_DisconnectCallback(PCD_HandleTypeDef *hpcd)
 380:Src/usbd_conf.c **** #endif /* USE_HAL_PCD_REGISTER_CALLBACKS */
 381:Src/usbd_conf.c **** {
 382:Src/usbd_conf.c ****   /* USER CODE BEGIN HAL_PCD_DisconnectCallback_PreTreatment */
 383:Src/usbd_conf.c ****   
 384:Src/usbd_conf.c ****   /* USER CODE END HAL_PCD_DisconnectCallback_PreTreatment */
 385:Src/usbd_conf.c ****   USBD_LL_DevDisconnected((USBD_HandleTypeDef*)hpcd->pData);
 386:Src/usbd_conf.c ****   /* USER CODE BEGIN HAL_PCD_DisconnectCallback_PostTreatment */
 387:Src/usbd_conf.c ****   
 388:Src/usbd_conf.c ****   /* USER CODE END HAL_PCD_DisconnectCallback_PostTreatment */
 389:Src/usbd_conf.c **** }
 390:Src/usbd_conf.c **** 
 391:Src/usbd_conf.c ****   /* USER CODE BEGIN LowLevelInterface */
 392:Src/usbd_conf.c ****   
 393:Src/usbd_conf.c ****   /* USER CODE END LowLevelInterface */
 394:Src/usbd_conf.c **** 
 395:Src/usbd_conf.c **** /*******************************************************************************
 396:Src/usbd_conf.c ****                        LL Driver Interface (USB Device Library --> PCD)
 397:Src/usbd_conf.c **** *******************************************************************************/
 398:Src/usbd_conf.c **** 
 399:Src/usbd_conf.c **** /**
 400:Src/usbd_conf.c ****   * @brief  Initializes the low level portion of the device driver.
 401:Src/usbd_conf.c ****   * @param  pdev: Device handle
 402:Src/usbd_conf.c ****   * @retval USBD status
 403:Src/usbd_conf.c ****   */
 404:Src/usbd_conf.c **** USBD_StatusTypeDef USBD_LL_Init(USBD_HandleTypeDef *pdev)
 405:Src/usbd_conf.c **** {
 406:Src/usbd_conf.c ****   /* Init USB Ip. */
 407:Src/usbd_conf.c ****   hpcd_USB_FS.pData = pdev;
 408:Src/usbd_conf.c ****   /* Link the driver to the stack. */
 409:Src/usbd_conf.c ****   pdev->pData = &hpcd_USB_FS;
 410:Src/usbd_conf.c **** /* Enable USB power on Pwrctrl CR2 register. */
 411:Src/usbd_conf.c ****   HAL_PWREx_EnableVddUSB();
 412:Src/usbd_conf.c **** 
 413:Src/usbd_conf.c ****   hpcd_USB_FS.Instance = USB;
 414:Src/usbd_conf.c ****   hpcd_USB_FS.Init.dev_endpoints = 8;
 415:Src/usbd_conf.c ****   hpcd_USB_FS.Init.speed = PCD_SPEED_FULL;
 416:Src/usbd_conf.c ****   hpcd_USB_FS.Init.phy_itface = PCD_PHY_EMBEDDED;
 417:Src/usbd_conf.c ****   hpcd_USB_FS.Init.Sof_enable = DISABLE;
 418:Src/usbd_conf.c ****   hpcd_USB_FS.Init.low_power_enable = DISABLE;
 419:Src/usbd_conf.c ****   hpcd_USB_FS.Init.lpm_enable = DISABLE;
 420:Src/usbd_conf.c ****   hpcd_USB_FS.Init.battery_charging_enable = DISABLE;
 421:Src/usbd_conf.c **** 
 422:Src/usbd_conf.c ****   #if (USE_HAL_PCD_REGISTER_CALLBACKS == 1U)
 423:Src/usbd_conf.c ****   /* register Msp Callbacks (before the Init) */
 424:Src/usbd_conf.c ****   HAL_PCD_RegisterCallback(&hpcd_USB_FS, HAL_PCD_MSPINIT_CB_ID, PCD_MspInit);
 425:Src/usbd_conf.c ****   HAL_PCD_RegisterCallback(&hpcd_USB_FS, HAL_PCD_MSPDEINIT_CB_ID, PCD_MspDeInit);
 426:Src/usbd_conf.c ****   #endif /* USE_HAL_PCD_REGISTER_CALLBACKS */
 427:Src/usbd_conf.c **** 
 428:Src/usbd_conf.c ****   if (HAL_PCD_Init(&hpcd_USB_FS) != HAL_OK)
 429:Src/usbd_conf.c ****   {
ARM GAS  /tmp/ccL4sKcp.s 			page 9


 430:Src/usbd_conf.c ****     Error_Handler( );
 431:Src/usbd_conf.c ****   }
 432:Src/usbd_conf.c **** 
 433:Src/usbd_conf.c **** #if (USE_HAL_PCD_REGISTER_CALLBACKS == 1U)
 434:Src/usbd_conf.c ****   /* Register USB PCD CallBacks */
 435:Src/usbd_conf.c ****   HAL_PCD_RegisterCallback(&hpcd_USB_FS, HAL_PCD_SOF_CB_ID, PCD_SOFCallback);
 436:Src/usbd_conf.c ****   HAL_PCD_RegisterCallback(&hpcd_USB_FS, HAL_PCD_SETUPSTAGE_CB_ID, PCD_SetupStageCallback);
 437:Src/usbd_conf.c ****   HAL_PCD_RegisterCallback(&hpcd_USB_FS, HAL_PCD_RESET_CB_ID, PCD_ResetCallback);
 438:Src/usbd_conf.c ****   HAL_PCD_RegisterCallback(&hpcd_USB_FS, HAL_PCD_SUSPEND_CB_ID, PCD_SuspendCallback);
 439:Src/usbd_conf.c ****   HAL_PCD_RegisterCallback(&hpcd_USB_FS, HAL_PCD_RESUME_CB_ID, PCD_ResumeCallback);
 440:Src/usbd_conf.c ****   HAL_PCD_RegisterCallback(&hpcd_USB_FS, HAL_PCD_CONNECT_CB_ID, PCD_ConnectCallback);
 441:Src/usbd_conf.c ****   HAL_PCD_RegisterCallback(&hpcd_USB_FS, HAL_PCD_DISCONNECT_CB_ID, PCD_DisconnectCallback);
 442:Src/usbd_conf.c ****   /* USER CODE BEGIN RegisterCallBackFirstPart */
 443:Src/usbd_conf.c ****   
 444:Src/usbd_conf.c ****   /* USER CODE END RegisterCallBackFirstPart */
 445:Src/usbd_conf.c ****   HAL_PCD_RegisterLpmCallback(&hpcd_USB_FS, PCDEx_LPM_Callback);
 446:Src/usbd_conf.c ****   HAL_PCD_RegisterDataOutStageCallback(&hpcd_USB_FS, PCD_DataOutStageCallback);
 447:Src/usbd_conf.c ****   HAL_PCD_RegisterDataInStageCallback(&hpcd_USB_FS, PCD_DataInStageCallback);
 448:Src/usbd_conf.c ****   HAL_PCD_RegisterIsoOutIncpltCallback(&hpcd_USB_FS, PCD_ISOOUTIncompleteCallback);
 449:Src/usbd_conf.c ****   HAL_PCD_RegisterIsoInIncpltCallback(&hpcd_USB_FS, PCD_ISOINIncompleteCallback);
 450:Src/usbd_conf.c ****   /* USER CODE BEGIN RegisterCallBackSecondPart */
 451:Src/usbd_conf.c ****   
 452:Src/usbd_conf.c ****   /* USER CODE END RegisterCallBackSecondPart */
 453:Src/usbd_conf.c **** #endif /* USE_HAL_PCD_REGISTER_CALLBACKS */
 454:Src/usbd_conf.c ****   /* USER CODE BEGIN EndPoint_Configuration */
 455:Src/usbd_conf.c ****   HAL_PCDEx_PMAConfig((PCD_HandleTypeDef*)pdev->pData , 0x00 , PCD_SNG_BUF, 0x18);
 456:Src/usbd_conf.c ****   HAL_PCDEx_PMAConfig((PCD_HandleTypeDef*)pdev->pData , 0x80 , PCD_SNG_BUF, 0x58);
 457:Src/usbd_conf.c ****   /* USER CODE END EndPoint_Configuration */
 458:Src/usbd_conf.c ****   /* USER CODE BEGIN EndPoint_Configuration_CDC */
 459:Src/usbd_conf.c ****   HAL_PCDEx_PMAConfig((PCD_HandleTypeDef*)pdev->pData , 0x81 , PCD_SNG_BUF, 0xC0);
 460:Src/usbd_conf.c ****   HAL_PCDEx_PMAConfig((PCD_HandleTypeDef*)pdev->pData , 0x01 , PCD_SNG_BUF, 0x110);
 461:Src/usbd_conf.c ****   HAL_PCDEx_PMAConfig((PCD_HandleTypeDef*)pdev->pData , 0x82 , PCD_SNG_BUF, 0x100);
 462:Src/usbd_conf.c ****   /* USER CODE END EndPoint_Configuration_CDC */
 463:Src/usbd_conf.c ****   return USBD_OK;
 464:Src/usbd_conf.c **** }
 465:Src/usbd_conf.c **** 
 466:Src/usbd_conf.c **** /**
 467:Src/usbd_conf.c ****   * @brief  De-Initializes the low level portion of the device driver.
 468:Src/usbd_conf.c ****   * @param  pdev: Device handle
 469:Src/usbd_conf.c ****   * @retval USBD status
 470:Src/usbd_conf.c ****   */
 471:Src/usbd_conf.c **** USBD_StatusTypeDef USBD_LL_DeInit(USBD_HandleTypeDef *pdev)
 472:Src/usbd_conf.c **** {
 473:Src/usbd_conf.c ****   HAL_StatusTypeDef hal_status = HAL_OK;
 474:Src/usbd_conf.c ****   USBD_StatusTypeDef usb_status = USBD_OK;
 475:Src/usbd_conf.c **** 
 476:Src/usbd_conf.c ****   hal_status = HAL_PCD_DeInit(pdev->pData);
 477:Src/usbd_conf.c **** 
 478:Src/usbd_conf.c ****   usb_status =  USBD_Get_USB_Status(hal_status);
 479:Src/usbd_conf.c ****  
 480:Src/usbd_conf.c ****   return usb_status; 
 481:Src/usbd_conf.c **** }
 482:Src/usbd_conf.c **** 
 483:Src/usbd_conf.c **** /**
 484:Src/usbd_conf.c ****   * @brief  Starts the low level portion of the device driver.
 485:Src/usbd_conf.c ****   * @param  pdev: Device handle
 486:Src/usbd_conf.c ****   * @retval USBD status
ARM GAS  /tmp/ccL4sKcp.s 			page 10


 487:Src/usbd_conf.c ****   */
 488:Src/usbd_conf.c **** USBD_StatusTypeDef USBD_LL_Start(USBD_HandleTypeDef *pdev)
 489:Src/usbd_conf.c **** {
 490:Src/usbd_conf.c ****   HAL_StatusTypeDef hal_status = HAL_OK;
 491:Src/usbd_conf.c ****   USBD_StatusTypeDef usb_status = USBD_OK;
 492:Src/usbd_conf.c ****  
 493:Src/usbd_conf.c ****   hal_status = HAL_PCD_Start(pdev->pData);
 494:Src/usbd_conf.c ****      
 495:Src/usbd_conf.c ****   usb_status =  USBD_Get_USB_Status(hal_status);
 496:Src/usbd_conf.c ****   
 497:Src/usbd_conf.c ****   return usb_status;
 498:Src/usbd_conf.c **** }
 499:Src/usbd_conf.c **** 
 500:Src/usbd_conf.c **** /**
 501:Src/usbd_conf.c ****   * @brief  Stops the low level portion of the device driver.
 502:Src/usbd_conf.c ****   * @param  pdev: Device handle
 503:Src/usbd_conf.c ****   * @retval USBD status
 504:Src/usbd_conf.c ****   */
 505:Src/usbd_conf.c **** USBD_StatusTypeDef USBD_LL_Stop(USBD_HandleTypeDef *pdev)
 506:Src/usbd_conf.c **** {
 507:Src/usbd_conf.c ****   HAL_StatusTypeDef hal_status = HAL_OK;
 508:Src/usbd_conf.c ****   USBD_StatusTypeDef usb_status = USBD_OK;
 509:Src/usbd_conf.c **** 
 510:Src/usbd_conf.c ****   hal_status = HAL_PCD_Stop(pdev->pData);
 511:Src/usbd_conf.c **** 
 512:Src/usbd_conf.c ****   usb_status =  USBD_Get_USB_Status(hal_status);
 513:Src/usbd_conf.c ****   
 514:Src/usbd_conf.c ****   return usb_status;
 515:Src/usbd_conf.c **** }
 516:Src/usbd_conf.c **** 
 517:Src/usbd_conf.c **** /**
 518:Src/usbd_conf.c ****   * @brief  Opens an endpoint of the low level driver.
 519:Src/usbd_conf.c ****   * @param  pdev: Device handle
 520:Src/usbd_conf.c ****   * @param  ep_addr: Endpoint number
 521:Src/usbd_conf.c ****   * @param  ep_type: Endpoint type
 522:Src/usbd_conf.c ****   * @param  ep_mps: Endpoint max packet size
 523:Src/usbd_conf.c ****   * @retval USBD status
 524:Src/usbd_conf.c ****   */
 525:Src/usbd_conf.c **** USBD_StatusTypeDef USBD_LL_OpenEP(USBD_HandleTypeDef *pdev, uint8_t ep_addr, uint8_t ep_type, uint1
 526:Src/usbd_conf.c **** {
 527:Src/usbd_conf.c ****   HAL_StatusTypeDef hal_status = HAL_OK;
 528:Src/usbd_conf.c ****   USBD_StatusTypeDef usb_status = USBD_OK;
 529:Src/usbd_conf.c **** 
 530:Src/usbd_conf.c ****   hal_status = HAL_PCD_EP_Open(pdev->pData, ep_addr, ep_mps, ep_type);
 531:Src/usbd_conf.c **** 
 532:Src/usbd_conf.c ****   usb_status =  USBD_Get_USB_Status(hal_status);
 533:Src/usbd_conf.c ****  
 534:Src/usbd_conf.c ****   return usb_status;
 535:Src/usbd_conf.c **** }
 536:Src/usbd_conf.c **** 
 537:Src/usbd_conf.c **** /**
 538:Src/usbd_conf.c ****   * @brief  Closes an endpoint of the low level driver.
 539:Src/usbd_conf.c ****   * @param  pdev: Device handle
 540:Src/usbd_conf.c ****   * @param  ep_addr: Endpoint number
 541:Src/usbd_conf.c ****   * @retval USBD status
 542:Src/usbd_conf.c ****   */
 543:Src/usbd_conf.c **** USBD_StatusTypeDef USBD_LL_CloseEP(USBD_HandleTypeDef *pdev, uint8_t ep_addr)
ARM GAS  /tmp/ccL4sKcp.s 			page 11


 544:Src/usbd_conf.c **** {
 545:Src/usbd_conf.c ****   HAL_StatusTypeDef hal_status = HAL_OK;
 546:Src/usbd_conf.c ****   USBD_StatusTypeDef usb_status = USBD_OK;
 547:Src/usbd_conf.c ****   
 548:Src/usbd_conf.c ****   hal_status = HAL_PCD_EP_Close(pdev->pData, ep_addr);
 549:Src/usbd_conf.c ****       
 550:Src/usbd_conf.c ****   usb_status =  USBD_Get_USB_Status(hal_status);
 551:Src/usbd_conf.c **** 
 552:Src/usbd_conf.c ****   return usb_status;  
 553:Src/usbd_conf.c **** }
 554:Src/usbd_conf.c **** 
 555:Src/usbd_conf.c **** /**
 556:Src/usbd_conf.c ****   * @brief  Flushes an endpoint of the Low Level Driver.
 557:Src/usbd_conf.c ****   * @param  pdev: Device handle
 558:Src/usbd_conf.c ****   * @param  ep_addr: Endpoint number
 559:Src/usbd_conf.c ****   * @retval USBD status
 560:Src/usbd_conf.c ****   */
 561:Src/usbd_conf.c **** USBD_StatusTypeDef USBD_LL_FlushEP(USBD_HandleTypeDef *pdev, uint8_t ep_addr)
 562:Src/usbd_conf.c **** {
 563:Src/usbd_conf.c ****   HAL_StatusTypeDef hal_status = HAL_OK;
 564:Src/usbd_conf.c ****   USBD_StatusTypeDef usb_status = USBD_OK;
 565:Src/usbd_conf.c ****   
 566:Src/usbd_conf.c ****   hal_status = HAL_PCD_EP_Flush(pdev->pData, ep_addr);
 567:Src/usbd_conf.c ****       
 568:Src/usbd_conf.c ****   usb_status =  USBD_Get_USB_Status(hal_status);
 569:Src/usbd_conf.c ****   
 570:Src/usbd_conf.c ****   return usb_status;  
 571:Src/usbd_conf.c **** }
 572:Src/usbd_conf.c **** 
 573:Src/usbd_conf.c **** /**
 574:Src/usbd_conf.c ****   * @brief  Sets a Stall condition on an endpoint of the Low Level Driver.
 575:Src/usbd_conf.c ****   * @param  pdev: Device handle
 576:Src/usbd_conf.c ****   * @param  ep_addr: Endpoint number
 577:Src/usbd_conf.c ****   * @retval USBD status
 578:Src/usbd_conf.c ****   */
 579:Src/usbd_conf.c **** USBD_StatusTypeDef USBD_LL_StallEP(USBD_HandleTypeDef *pdev, uint8_t ep_addr)
 580:Src/usbd_conf.c **** {
 581:Src/usbd_conf.c ****   HAL_StatusTypeDef hal_status = HAL_OK;
 582:Src/usbd_conf.c ****   USBD_StatusTypeDef usb_status = USBD_OK;
 583:Src/usbd_conf.c ****   
 584:Src/usbd_conf.c ****   hal_status = HAL_PCD_EP_SetStall(pdev->pData, ep_addr);
 585:Src/usbd_conf.c **** 
 586:Src/usbd_conf.c ****   usb_status =  USBD_Get_USB_Status(hal_status);
 587:Src/usbd_conf.c ****  
 588:Src/usbd_conf.c ****   return usb_status;  
 589:Src/usbd_conf.c **** }
 590:Src/usbd_conf.c **** 
 591:Src/usbd_conf.c **** /**
 592:Src/usbd_conf.c ****   * @brief  Clears a Stall condition on an endpoint of the Low Level Driver.
 593:Src/usbd_conf.c ****   * @param  pdev: Device handle
 594:Src/usbd_conf.c ****   * @param  ep_addr: Endpoint number
 595:Src/usbd_conf.c ****   * @retval USBD status
 596:Src/usbd_conf.c ****   */
 597:Src/usbd_conf.c **** USBD_StatusTypeDef USBD_LL_ClearStallEP(USBD_HandleTypeDef *pdev, uint8_t ep_addr)
 598:Src/usbd_conf.c **** {
 599:Src/usbd_conf.c ****   HAL_StatusTypeDef hal_status = HAL_OK;
 600:Src/usbd_conf.c ****   USBD_StatusTypeDef usb_status = USBD_OK;
ARM GAS  /tmp/ccL4sKcp.s 			page 12


 601:Src/usbd_conf.c ****   
 602:Src/usbd_conf.c ****   hal_status = HAL_PCD_EP_ClrStall(pdev->pData, ep_addr);  
 603:Src/usbd_conf.c ****      
 604:Src/usbd_conf.c ****   usb_status =  USBD_Get_USB_Status(hal_status);
 605:Src/usbd_conf.c **** 
 606:Src/usbd_conf.c ****   return usb_status; 
 607:Src/usbd_conf.c **** }
 608:Src/usbd_conf.c **** 
 609:Src/usbd_conf.c **** /**
 610:Src/usbd_conf.c ****   * @brief  Returns Stall condition.
 611:Src/usbd_conf.c ****   * @param  pdev: Device handle
 612:Src/usbd_conf.c ****   * @param  ep_addr: Endpoint number
 613:Src/usbd_conf.c ****   * @retval Stall (1: Yes, 0: No)
 614:Src/usbd_conf.c ****   */
 615:Src/usbd_conf.c **** uint8_t USBD_LL_IsStallEP(USBD_HandleTypeDef *pdev, uint8_t ep_addr)
 616:Src/usbd_conf.c **** {
 617:Src/usbd_conf.c ****   PCD_HandleTypeDef *hpcd = (PCD_HandleTypeDef*) pdev->pData;
 618:Src/usbd_conf.c ****   
 619:Src/usbd_conf.c ****   if((ep_addr & 0x80) == 0x80)
 620:Src/usbd_conf.c ****   {
 621:Src/usbd_conf.c ****     return hpcd->IN_ep[ep_addr & 0x7F].is_stall; 
 622:Src/usbd_conf.c ****   }
 623:Src/usbd_conf.c ****   else
 624:Src/usbd_conf.c ****   {
 625:Src/usbd_conf.c ****     return hpcd->OUT_ep[ep_addr & 0x7F].is_stall; 
 626:Src/usbd_conf.c ****   }
 627:Src/usbd_conf.c **** }
 628:Src/usbd_conf.c **** 
 629:Src/usbd_conf.c **** /**
 630:Src/usbd_conf.c ****   * @brief  Assigns a USB address to the device.
 631:Src/usbd_conf.c ****   * @param  pdev: Device handle
 632:Src/usbd_conf.c ****   * @param  dev_addr: Device address
 633:Src/usbd_conf.c ****   * @retval USBD status
 634:Src/usbd_conf.c ****   */
 635:Src/usbd_conf.c **** USBD_StatusTypeDef USBD_LL_SetUSBAddress(USBD_HandleTypeDef *pdev, uint8_t dev_addr)
 636:Src/usbd_conf.c **** {
 637:Src/usbd_conf.c ****   HAL_StatusTypeDef hal_status = HAL_OK;
 638:Src/usbd_conf.c ****   USBD_StatusTypeDef usb_status = USBD_OK;
 639:Src/usbd_conf.c ****   
 640:Src/usbd_conf.c ****   hal_status = HAL_PCD_SetAddress(pdev->pData, dev_addr);
 641:Src/usbd_conf.c ****      
 642:Src/usbd_conf.c ****   usb_status =  USBD_Get_USB_Status(hal_status);
 643:Src/usbd_conf.c ****  
 644:Src/usbd_conf.c ****   return usb_status;  
 645:Src/usbd_conf.c **** }
 646:Src/usbd_conf.c **** 
 647:Src/usbd_conf.c **** /**
 648:Src/usbd_conf.c ****   * @brief  Transmits data over an endpoint.
 649:Src/usbd_conf.c ****   * @param  pdev: Device handle
 650:Src/usbd_conf.c ****   * @param  ep_addr: Endpoint number
 651:Src/usbd_conf.c ****   * @param  pbuf: Pointer to data to be sent
 652:Src/usbd_conf.c ****   * @param  size: Data size    
 653:Src/usbd_conf.c ****   * @retval USBD status
 654:Src/usbd_conf.c ****   */
 655:Src/usbd_conf.c **** USBD_StatusTypeDef USBD_LL_Transmit(USBD_HandleTypeDef *pdev, uint8_t ep_addr, uint8_t *pbuf, uint1
 656:Src/usbd_conf.c **** {
 657:Src/usbd_conf.c ****   HAL_StatusTypeDef hal_status = HAL_OK;
ARM GAS  /tmp/ccL4sKcp.s 			page 13


 658:Src/usbd_conf.c ****   USBD_StatusTypeDef usb_status = USBD_OK;
 659:Src/usbd_conf.c **** 
 660:Src/usbd_conf.c ****   hal_status = HAL_PCD_EP_Transmit(pdev->pData, ep_addr, pbuf, size);
 661:Src/usbd_conf.c ****      
 662:Src/usbd_conf.c ****   usb_status =  USBD_Get_USB_Status(hal_status);
 663:Src/usbd_conf.c ****   
 664:Src/usbd_conf.c ****   return usb_status;    
 665:Src/usbd_conf.c **** }
 666:Src/usbd_conf.c **** 
 667:Src/usbd_conf.c **** /**
 668:Src/usbd_conf.c ****   * @brief  Prepares an endpoint for reception.
 669:Src/usbd_conf.c ****   * @param  pdev: Device handle
 670:Src/usbd_conf.c ****   * @param  ep_addr: Endpoint number
 671:Src/usbd_conf.c ****   * @param  pbuf: Pointer to data to be received
 672:Src/usbd_conf.c ****   * @param  size: Data size
 673:Src/usbd_conf.c ****   * @retval USBD status
 674:Src/usbd_conf.c ****   */
 675:Src/usbd_conf.c **** USBD_StatusTypeDef USBD_LL_PrepareReceive(USBD_HandleTypeDef *pdev, uint8_t ep_addr, uint8_t *pbuf,
 676:Src/usbd_conf.c **** {
 677:Src/usbd_conf.c ****   HAL_StatusTypeDef hal_status = HAL_OK;
 678:Src/usbd_conf.c ****   USBD_StatusTypeDef usb_status = USBD_OK;
 679:Src/usbd_conf.c **** 
 680:Src/usbd_conf.c ****   hal_status = HAL_PCD_EP_Receive(pdev->pData, ep_addr, pbuf, size);
 681:Src/usbd_conf.c ****      
 682:Src/usbd_conf.c ****   usb_status =  USBD_Get_USB_Status(hal_status);
 683:Src/usbd_conf.c ****   	
 684:Src/usbd_conf.c ****   return usb_status; 
 685:Src/usbd_conf.c **** }
 686:Src/usbd_conf.c **** 
 687:Src/usbd_conf.c **** /**
 688:Src/usbd_conf.c ****   * @brief  Returns the last transfered packet size.
 689:Src/usbd_conf.c ****   * @param  pdev: Device handle
 690:Src/usbd_conf.c ****   * @param  ep_addr: Endpoint number
 691:Src/usbd_conf.c ****   * @retval Recived Data Size
 692:Src/usbd_conf.c ****   */
 693:Src/usbd_conf.c **** uint32_t USBD_LL_GetRxDataSize(USBD_HandleTypeDef *pdev, uint8_t ep_addr)
 694:Src/usbd_conf.c **** {
 695:Src/usbd_conf.c ****   return HAL_PCD_EP_GetRxCount((PCD_HandleTypeDef*) pdev->pData, ep_addr);
 696:Src/usbd_conf.c **** }
 697:Src/usbd_conf.c **** 
 698:Src/usbd_conf.c **** /**
 699:Src/usbd_conf.c ****   * @brief  Send LPM message to user layer
 700:Src/usbd_conf.c ****   * @param  hpcd: PCD handle
 701:Src/usbd_conf.c ****   * @param  msg: LPM message
 702:Src/usbd_conf.c ****   * @retval None
 703:Src/usbd_conf.c ****   */          
 704:Src/usbd_conf.c **** #if (USE_HAL_PCD_REGISTER_CALLBACKS == 1U)
 705:Src/usbd_conf.c **** static void PCDEx_LPM_Callback(PCD_HandleTypeDef *hpcd, PCD_LPM_MsgTypeDef msg)
 706:Src/usbd_conf.c **** #else
 707:Src/usbd_conf.c **** void HAL_PCDEx_LPM_Callback(PCD_HandleTypeDef *hpcd, PCD_LPM_MsgTypeDef msg)
 708:Src/usbd_conf.c **** #endif /* USE_HAL_PCD_REGISTER_CALLBACKS */
 709:Src/usbd_conf.c **** {
 710:Src/usbd_conf.c ****   /* USER CODE BEGIN LPM_Callback */
 711:Src/usbd_conf.c ****   switch (msg)
 712:Src/usbd_conf.c ****   {
 713:Src/usbd_conf.c ****   case PCD_LPM_L0_ACTIVE:
 714:Src/usbd_conf.c ****     if (hpcd->Init.low_power_enable)
ARM GAS  /tmp/ccL4sKcp.s 			page 14


 715:Src/usbd_conf.c ****     {
 716:Src/usbd_conf.c ****       SystemClockConfig_Resume();
 717:Src/usbd_conf.c ****       
 718:Src/usbd_conf.c ****       /* Reset SLEEPDEEP bit of Cortex System Control Register. */
 719:Src/usbd_conf.c ****       SCB->SCR &= (uint32_t)~((uint32_t)(SCB_SCR_SLEEPDEEP_Msk | SCB_SCR_SLEEPONEXIT_Msk));
 720:Src/usbd_conf.c ****     }
 721:Src/usbd_conf.c ****     USBD_LL_Resume(hpcd->pData);
 722:Src/usbd_conf.c ****     break;
 723:Src/usbd_conf.c ****     
 724:Src/usbd_conf.c ****   case PCD_LPM_L1_ACTIVE:
 725:Src/usbd_conf.c ****     USBD_LL_Suspend(hpcd->pData);
 726:Src/usbd_conf.c ****     
 727:Src/usbd_conf.c ****     /* Enter in STOP mode. */
 728:Src/usbd_conf.c ****     if (hpcd->Init.low_power_enable)
 729:Src/usbd_conf.c ****     {   
 730:Src/usbd_conf.c ****       /* Set SLEEPDEEP bit and SleepOnExit of Cortex System Control Register. */
 731:Src/usbd_conf.c ****       SCB->SCR |= (uint32_t)((uint32_t)(SCB_SCR_SLEEPDEEP_Msk | SCB_SCR_SLEEPONEXIT_Msk));
 732:Src/usbd_conf.c ****     }
 733:Src/usbd_conf.c ****     break;   
 734:Src/usbd_conf.c ****   }
 735:Src/usbd_conf.c ****   /* USER CODE END LPM_Callback */
 736:Src/usbd_conf.c **** }
 737:Src/usbd_conf.c **** 
 738:Src/usbd_conf.c **** /**
 739:Src/usbd_conf.c ****   * @brief  Delays routine for the USB Device Library.
 740:Src/usbd_conf.c ****   * @param  Delay: Delay in ms
 741:Src/usbd_conf.c ****   * @retval None
 742:Src/usbd_conf.c ****   */
 743:Src/usbd_conf.c **** void USBD_LL_Delay(uint32_t Delay)
 744:Src/usbd_conf.c **** {
 745:Src/usbd_conf.c ****   HAL_Delay(Delay);
 746:Src/usbd_conf.c **** }
 747:Src/usbd_conf.c **** 
 748:Src/usbd_conf.c **** /**
 749:Src/usbd_conf.c ****   * @brief  Static single allocation.
 750:Src/usbd_conf.c ****   * @param  size: Size of allocated memory
 751:Src/usbd_conf.c ****   * @retval None
 752:Src/usbd_conf.c ****   */
 753:Src/usbd_conf.c **** void *USBD_static_malloc(uint32_t size)
 754:Src/usbd_conf.c **** {
 755:Src/usbd_conf.c ****   static uint32_t mem[(sizeof(USBD_CDC_HandleTypeDef)/4)+1];/* On 32-bit boundary */
 756:Src/usbd_conf.c ****   return mem;
 757:Src/usbd_conf.c **** }
 758:Src/usbd_conf.c **** 
 759:Src/usbd_conf.c **** /**
 760:Src/usbd_conf.c ****   * @brief  Dummy memory free
 761:Src/usbd_conf.c ****   * @param  p: Pointer to allocated  memory address
 762:Src/usbd_conf.c ****   * @retval None
 763:Src/usbd_conf.c ****   */
 764:Src/usbd_conf.c **** void USBD_static_free(void *p)
 765:Src/usbd_conf.c **** {
 766:Src/usbd_conf.c **** 
 767:Src/usbd_conf.c **** }
 768:Src/usbd_conf.c **** 
 769:Src/usbd_conf.c **** /* USER CODE BEGIN 5 */
 770:Src/usbd_conf.c **** /**
 771:Src/usbd_conf.c ****   * @brief  Configures system clock after wake-up from USB resume callBack:
ARM GAS  /tmp/ccL4sKcp.s 			page 15


 772:Src/usbd_conf.c ****   *         enable HSI, PLL and select PLL as system clock source.
 773:Src/usbd_conf.c ****   * @retval None
 774:Src/usbd_conf.c ****   */
 775:Src/usbd_conf.c **** static void SystemClockConfig_Resume(void)
 776:Src/usbd_conf.c **** {
 777:Src/usbd_conf.c ****   SystemClock_Config();
 778:Src/usbd_conf.c **** }
 779:Src/usbd_conf.c **** /* USER CODE END 5 */
 780:Src/usbd_conf.c **** 
 781:Src/usbd_conf.c **** /**
 782:Src/usbd_conf.c ****   * @brief  Retuns the USB status depending on the HAL status:
 783:Src/usbd_conf.c ****   * @param  hal_status: HAL status
 784:Src/usbd_conf.c ****   * @retval USB status
 785:Src/usbd_conf.c ****   */
 786:Src/usbd_conf.c **** USBD_StatusTypeDef USBD_Get_USB_Status(HAL_StatusTypeDef hal_status)
 787:Src/usbd_conf.c **** {
  29              		.loc 1 787 1 view -0
  30              		.cfi_startproc
  31              		@ args = 0, pretend = 0, frame = 0
  32              		@ frame_needed = 0, uses_anonymous_args = 0
  33              		@ link register save eliminated.
 788:Src/usbd_conf.c ****   USBD_StatusTypeDef usb_status = USBD_OK;
  34              		.loc 1 788 3 view .LVU1
 789:Src/usbd_conf.c **** 
 790:Src/usbd_conf.c ****   switch (hal_status)
  35              		.loc 1 790 3 view .LVU2
  36 0000 0228     		cmp	r0, #2
  37 0002 05D8     		bhi	.L6
  38 0004 DFE800F0 		tbb	[pc, r0]
  39              	.L4:
  40 0008 05       		.byte	(.L2-.L4)/2
  41 0009 04       		.byte	(.L6-.L4)/2
  42 000a 02       		.byte	(.L3-.L4)/2
  43 000b 00       		.p2align 1
  44              	.L3:
 791:Src/usbd_conf.c ****   {
 792:Src/usbd_conf.c ****     case HAL_OK :
 793:Src/usbd_conf.c ****       usb_status = USBD_OK;
 794:Src/usbd_conf.c ****     break;
 795:Src/usbd_conf.c ****     case HAL_ERROR :
 796:Src/usbd_conf.c ****       usb_status = USBD_FAIL;
 797:Src/usbd_conf.c ****     break;
 798:Src/usbd_conf.c ****     case HAL_BUSY :
 799:Src/usbd_conf.c ****       usb_status = USBD_BUSY;
  45              		.loc 1 799 7 view .LVU3
  46              	.LVL1:
 800:Src/usbd_conf.c ****     break;
  47              		.loc 1 800 5 view .LVU4
 799:Src/usbd_conf.c ****     break;
  48              		.loc 1 799 18 is_stmt 0 view .LVU5
  49 000c 0120     		movs	r0, #1
  50              	.LVL2:
  51              		.loc 1 800 5 view .LVU6
  52 000e 7047     		bx	lr
  53              	.LVL3:
  54              	.L6:
 796:Src/usbd_conf.c ****     break;
ARM GAS  /tmp/ccL4sKcp.s 			page 16


  55              		.loc 1 796 18 view .LVU7
  56 0010 0220     		movs	r0, #2
  57              	.LVL4:
  58              	.L2:
 801:Src/usbd_conf.c ****     case HAL_TIMEOUT :
 802:Src/usbd_conf.c ****       usb_status = USBD_FAIL;
 803:Src/usbd_conf.c ****     break;
 804:Src/usbd_conf.c ****     default :
 805:Src/usbd_conf.c ****       usb_status = USBD_FAIL;
 806:Src/usbd_conf.c ****     break;
 807:Src/usbd_conf.c ****   }
 808:Src/usbd_conf.c ****   return usb_status;
  59              		.loc 1 808 3 is_stmt 1 view .LVU8
 809:Src/usbd_conf.c **** }
  60              		.loc 1 809 1 is_stmt 0 view .LVU9
  61 0012 7047     		bx	lr
  62              		.cfi_endproc
  63              	.LFE976:
  65              		.section	.text.SystemClockConfig_Resume,"ax",%progbits
  66              		.align	1
  67              		.syntax unified
  68              		.thumb
  69              		.thumb_func
  70              		.fpu fpv4-sp-d16
  72              	SystemClockConfig_Resume:
  73              	.LFB975:
 776:Src/usbd_conf.c ****   SystemClock_Config();
  74              		.loc 1 776 1 is_stmt 1 view -0
  75              		.cfi_startproc
  76              		@ args = 0, pretend = 0, frame = 0
  77              		@ frame_needed = 0, uses_anonymous_args = 0
  78 0000 08B5     		push	{r3, lr}
  79              	.LCFI0:
  80              		.cfi_def_cfa_offset 8
  81              		.cfi_offset 3, -8
  82              		.cfi_offset 14, -4
 777:Src/usbd_conf.c **** }
  83              		.loc 1 777 3 view .LVU11
  84 0002 FFF7FEFF 		bl	SystemClock_Config
  85              	.LVL5:
 778:Src/usbd_conf.c **** /* USER CODE END 5 */
  86              		.loc 1 778 1 is_stmt 0 view .LVU12
  87 0006 08BD     		pop	{r3, pc}
  88              		.cfi_endproc
  89              	.LFE975:
  91              		.section	.text.HAL_PCD_MspInit,"ax",%progbits
  92              		.align	1
  93              		.global	HAL_PCD_MspInit
  94              		.syntax unified
  95              		.thumb
  96              		.thumb_func
  97              		.fpu fpv4-sp-d16
  99              	HAL_PCD_MspInit:
 100              	.LVL6:
 101              	.LFB944:
  75:Src/usbd_conf.c ****   GPIO_InitTypeDef GPIO_InitStruct = {0};
 102              		.loc 1 75 1 is_stmt 1 view -0
ARM GAS  /tmp/ccL4sKcp.s 			page 17


 103              		.cfi_startproc
 104              		@ args = 0, pretend = 0, frame = 32
 105              		@ frame_needed = 0, uses_anonymous_args = 0
  75:Src/usbd_conf.c ****   GPIO_InitTypeDef GPIO_InitStruct = {0};
 106              		.loc 1 75 1 is_stmt 0 view .LVU14
 107 0000 30B5     		push	{r4, r5, lr}
 108              	.LCFI1:
 109              		.cfi_def_cfa_offset 12
 110              		.cfi_offset 4, -12
 111              		.cfi_offset 5, -8
 112              		.cfi_offset 14, -4
 113 0002 89B0     		sub	sp, sp, #36
 114              	.LCFI2:
 115              		.cfi_def_cfa_offset 48
  76:Src/usbd_conf.c ****   if(pcdHandle->Instance==USB)
 116              		.loc 1 76 3 is_stmt 1 view .LVU15
  76:Src/usbd_conf.c ****   if(pcdHandle->Instance==USB)
 117              		.loc 1 76 20 is_stmt 0 view .LVU16
 118 0004 0023     		movs	r3, #0
 119 0006 0393     		str	r3, [sp, #12]
 120 0008 0493     		str	r3, [sp, #16]
 121 000a 0593     		str	r3, [sp, #20]
 122 000c 0693     		str	r3, [sp, #24]
 123 000e 0793     		str	r3, [sp, #28]
  77:Src/usbd_conf.c ****   {
 124              		.loc 1 77 3 is_stmt 1 view .LVU17
  77:Src/usbd_conf.c ****   {
 125              		.loc 1 77 15 is_stmt 0 view .LVU18
 126 0010 0268     		ldr	r2, [r0]
  77:Src/usbd_conf.c ****   {
 127              		.loc 1 77 5 view .LVU19
 128 0012 184B     		ldr	r3, .L13
 129 0014 9A42     		cmp	r2, r3
 130 0016 01D0     		beq	.L12
 131              	.LVL7:
 132              	.L9:
 105:Src/usbd_conf.c **** 
 133              		.loc 1 105 1 view .LVU20
 134 0018 09B0     		add	sp, sp, #36
 135              	.LCFI3:
 136              		.cfi_remember_state
 137              		.cfi_def_cfa_offset 12
 138              		@ sp needed
 139 001a 30BD     		pop	{r4, r5, pc}
 140              	.LVL8:
 141              	.L12:
 142              	.LCFI4:
 143              		.cfi_restore_state
  83:Src/usbd_conf.c ****     /**USB GPIO Configuration    
 144              		.loc 1 83 5 is_stmt 1 view .LVU21
 145              	.LBB8:
 146              	.LBI8:
 147              		.file 2 "Drivers/STM32WBxx_HAL_Driver/Inc/stm32wbxx_ll_bus.h"
   1:Drivers/STM32WBxx_HAL_Driver/Inc/stm32wbxx_ll_bus.h **** /**
   2:Drivers/STM32WBxx_HAL_Driver/Inc/stm32wbxx_ll_bus.h ****   ******************************************************************************
   3:Drivers/STM32WBxx_HAL_Driver/Inc/stm32wbxx_ll_bus.h ****   * @file    stm32wbxx_ll_bus.h
   4:Drivers/STM32WBxx_HAL_Driver/Inc/stm32wbxx_ll_bus.h ****   * @author  MCD Application Team
ARM GAS  /tmp/ccL4sKcp.s 			page 18


   5:Drivers/STM32WBxx_HAL_Driver/Inc/stm32wbxx_ll_bus.h ****   * @brief   Header file of BUS LL module.
   6:Drivers/STM32WBxx_HAL_Driver/Inc/stm32wbxx_ll_bus.h **** 
   7:Drivers/STM32WBxx_HAL_Driver/Inc/stm32wbxx_ll_bus.h ****   @verbatim
   8:Drivers/STM32WBxx_HAL_Driver/Inc/stm32wbxx_ll_bus.h ****                       ##### RCC Limitations #####
   9:Drivers/STM32WBxx_HAL_Driver/Inc/stm32wbxx_ll_bus.h ****   ==============================================================================
  10:Drivers/STM32WBxx_HAL_Driver/Inc/stm32wbxx_ll_bus.h ****     [..]
  11:Drivers/STM32WBxx_HAL_Driver/Inc/stm32wbxx_ll_bus.h ****       A delay between an RCC peripheral clock enable and the effective peripheral
  12:Drivers/STM32WBxx_HAL_Driver/Inc/stm32wbxx_ll_bus.h ****       enabling should be taken into account in order to manage the peripheral read/write
  13:Drivers/STM32WBxx_HAL_Driver/Inc/stm32wbxx_ll_bus.h ****       from/to registers.
  14:Drivers/STM32WBxx_HAL_Driver/Inc/stm32wbxx_ll_bus.h ****       (+) This delay depends on the peripheral mapping.
  15:Drivers/STM32WBxx_HAL_Driver/Inc/stm32wbxx_ll_bus.h ****         (++) AHB & APB peripherals, 1 dummy read is necessary
  16:Drivers/STM32WBxx_HAL_Driver/Inc/stm32wbxx_ll_bus.h **** 
  17:Drivers/STM32WBxx_HAL_Driver/Inc/stm32wbxx_ll_bus.h ****     [..]
  18:Drivers/STM32WBxx_HAL_Driver/Inc/stm32wbxx_ll_bus.h ****       Workarounds:
  19:Drivers/STM32WBxx_HAL_Driver/Inc/stm32wbxx_ll_bus.h ****       (#) For AHB & APB peripherals, a dummy read to the peripheral register has been
  20:Drivers/STM32WBxx_HAL_Driver/Inc/stm32wbxx_ll_bus.h ****           inserted in each LL_{BUS}_GRP{x}_EnableClock() function.
  21:Drivers/STM32WBxx_HAL_Driver/Inc/stm32wbxx_ll_bus.h **** 
  22:Drivers/STM32WBxx_HAL_Driver/Inc/stm32wbxx_ll_bus.h ****   @endverbatim
  23:Drivers/STM32WBxx_HAL_Driver/Inc/stm32wbxx_ll_bus.h ****   ******************************************************************************
  24:Drivers/STM32WBxx_HAL_Driver/Inc/stm32wbxx_ll_bus.h ****   * @attention
  25:Drivers/STM32WBxx_HAL_Driver/Inc/stm32wbxx_ll_bus.h ****   *
  26:Drivers/STM32WBxx_HAL_Driver/Inc/stm32wbxx_ll_bus.h ****   * <h2><center>&copy; Copyright (c) 2019 STMicroelectronics.
  27:Drivers/STM32WBxx_HAL_Driver/Inc/stm32wbxx_ll_bus.h ****   * All rights reserved.</center></h2>
  28:Drivers/STM32WBxx_HAL_Driver/Inc/stm32wbxx_ll_bus.h ****   *
  29:Drivers/STM32WBxx_HAL_Driver/Inc/stm32wbxx_ll_bus.h ****   * This software component is licensed by ST under BSD 3-Clause license,
  30:Drivers/STM32WBxx_HAL_Driver/Inc/stm32wbxx_ll_bus.h ****   * the "License"; You may not use this file except in compliance with the
  31:Drivers/STM32WBxx_HAL_Driver/Inc/stm32wbxx_ll_bus.h ****   * License. You may obtain a copy of the License at:
  32:Drivers/STM32WBxx_HAL_Driver/Inc/stm32wbxx_ll_bus.h ****   *                        opensource.org/licenses/BSD-3-Clause
  33:Drivers/STM32WBxx_HAL_Driver/Inc/stm32wbxx_ll_bus.h ****   *
  34:Drivers/STM32WBxx_HAL_Driver/Inc/stm32wbxx_ll_bus.h ****   ******************************************************************************
  35:Drivers/STM32WBxx_HAL_Driver/Inc/stm32wbxx_ll_bus.h ****   */
  36:Drivers/STM32WBxx_HAL_Driver/Inc/stm32wbxx_ll_bus.h **** 
  37:Drivers/STM32WBxx_HAL_Driver/Inc/stm32wbxx_ll_bus.h **** /* Define to prevent recursive inclusion -------------------------------------*/
  38:Drivers/STM32WBxx_HAL_Driver/Inc/stm32wbxx_ll_bus.h **** #ifndef STM32WBxx_LL_BUS_H
  39:Drivers/STM32WBxx_HAL_Driver/Inc/stm32wbxx_ll_bus.h **** #define STM32WBxx_LL_BUS_H
  40:Drivers/STM32WBxx_HAL_Driver/Inc/stm32wbxx_ll_bus.h **** 
  41:Drivers/STM32WBxx_HAL_Driver/Inc/stm32wbxx_ll_bus.h **** #ifdef __cplusplus
  42:Drivers/STM32WBxx_HAL_Driver/Inc/stm32wbxx_ll_bus.h **** extern "C" {
  43:Drivers/STM32WBxx_HAL_Driver/Inc/stm32wbxx_ll_bus.h **** #endif
  44:Drivers/STM32WBxx_HAL_Driver/Inc/stm32wbxx_ll_bus.h **** 
  45:Drivers/STM32WBxx_HAL_Driver/Inc/stm32wbxx_ll_bus.h **** /* Includes ------------------------------------------------------------------*/
  46:Drivers/STM32WBxx_HAL_Driver/Inc/stm32wbxx_ll_bus.h **** #include "stm32wbxx.h"
  47:Drivers/STM32WBxx_HAL_Driver/Inc/stm32wbxx_ll_bus.h **** 
  48:Drivers/STM32WBxx_HAL_Driver/Inc/stm32wbxx_ll_bus.h **** /** @addtogroup STM32WBxx_LL_Driver
  49:Drivers/STM32WBxx_HAL_Driver/Inc/stm32wbxx_ll_bus.h ****   * @{
  50:Drivers/STM32WBxx_HAL_Driver/Inc/stm32wbxx_ll_bus.h ****   */
  51:Drivers/STM32WBxx_HAL_Driver/Inc/stm32wbxx_ll_bus.h **** 
  52:Drivers/STM32WBxx_HAL_Driver/Inc/stm32wbxx_ll_bus.h **** #if defined(RCC)
  53:Drivers/STM32WBxx_HAL_Driver/Inc/stm32wbxx_ll_bus.h **** 
  54:Drivers/STM32WBxx_HAL_Driver/Inc/stm32wbxx_ll_bus.h **** /** @defgroup BUS_LL BUS
  55:Drivers/STM32WBxx_HAL_Driver/Inc/stm32wbxx_ll_bus.h ****   * @{
  56:Drivers/STM32WBxx_HAL_Driver/Inc/stm32wbxx_ll_bus.h ****   */
  57:Drivers/STM32WBxx_HAL_Driver/Inc/stm32wbxx_ll_bus.h **** 
  58:Drivers/STM32WBxx_HAL_Driver/Inc/stm32wbxx_ll_bus.h **** /* Private types -------------------------------------------------------------*/
  59:Drivers/STM32WBxx_HAL_Driver/Inc/stm32wbxx_ll_bus.h **** /* Private variables ---------------------------------------------------------*/
  60:Drivers/STM32WBxx_HAL_Driver/Inc/stm32wbxx_ll_bus.h **** 
  61:Drivers/STM32WBxx_HAL_Driver/Inc/stm32wbxx_ll_bus.h **** /* Private constants ---------------------------------------------------------*/
ARM GAS  /tmp/ccL4sKcp.s 			page 19


  62:Drivers/STM32WBxx_HAL_Driver/Inc/stm32wbxx_ll_bus.h **** 
  63:Drivers/STM32WBxx_HAL_Driver/Inc/stm32wbxx_ll_bus.h **** /* Private macros ------------------------------------------------------------*/
  64:Drivers/STM32WBxx_HAL_Driver/Inc/stm32wbxx_ll_bus.h **** 
  65:Drivers/STM32WBxx_HAL_Driver/Inc/stm32wbxx_ll_bus.h **** /* Exported types ------------------------------------------------------------*/
  66:Drivers/STM32WBxx_HAL_Driver/Inc/stm32wbxx_ll_bus.h **** 
  67:Drivers/STM32WBxx_HAL_Driver/Inc/stm32wbxx_ll_bus.h **** /* Exported constants --------------------------------------------------------*/
  68:Drivers/STM32WBxx_HAL_Driver/Inc/stm32wbxx_ll_bus.h **** /** @defgroup BUS_LL_Exported_Constants BUS Exported Constants
  69:Drivers/STM32WBxx_HAL_Driver/Inc/stm32wbxx_ll_bus.h ****   * @{
  70:Drivers/STM32WBxx_HAL_Driver/Inc/stm32wbxx_ll_bus.h ****   */
  71:Drivers/STM32WBxx_HAL_Driver/Inc/stm32wbxx_ll_bus.h **** 
  72:Drivers/STM32WBxx_HAL_Driver/Inc/stm32wbxx_ll_bus.h **** /** @defgroup BUS_LL_EC_AHB1_GRP1_PERIPH  AHB1 GRP1 PERIPH
  73:Drivers/STM32WBxx_HAL_Driver/Inc/stm32wbxx_ll_bus.h ****   * @{
  74:Drivers/STM32WBxx_HAL_Driver/Inc/stm32wbxx_ll_bus.h ****   */
  75:Drivers/STM32WBxx_HAL_Driver/Inc/stm32wbxx_ll_bus.h **** #define LL_AHB1_GRP1_PERIPH_ALL            (0xFFFFFFFFU)
  76:Drivers/STM32WBxx_HAL_Driver/Inc/stm32wbxx_ll_bus.h **** 
  77:Drivers/STM32WBxx_HAL_Driver/Inc/stm32wbxx_ll_bus.h **** #define LL_AHB1_GRP1_PERIPH_DMA1           RCC_AHB1ENR_DMA1EN
  78:Drivers/STM32WBxx_HAL_Driver/Inc/stm32wbxx_ll_bus.h **** #if defined(DMA2)
  79:Drivers/STM32WBxx_HAL_Driver/Inc/stm32wbxx_ll_bus.h **** #define LL_AHB1_GRP1_PERIPH_DMA2           RCC_AHB1ENR_DMA2EN
  80:Drivers/STM32WBxx_HAL_Driver/Inc/stm32wbxx_ll_bus.h **** #endif
  81:Drivers/STM32WBxx_HAL_Driver/Inc/stm32wbxx_ll_bus.h **** #define LL_AHB1_GRP1_PERIPH_DMAMUX1        RCC_AHB1ENR_DMAMUX1EN
  82:Drivers/STM32WBxx_HAL_Driver/Inc/stm32wbxx_ll_bus.h **** #define LL_AHB1_GRP1_PERIPH_SRAM1          RCC_AHB1SMENR_SRAM1SMEN
  83:Drivers/STM32WBxx_HAL_Driver/Inc/stm32wbxx_ll_bus.h **** #define LL_AHB1_GRP1_PERIPH_CRC            RCC_AHB1ENR_CRCEN
  84:Drivers/STM32WBxx_HAL_Driver/Inc/stm32wbxx_ll_bus.h **** #define LL_AHB1_GRP1_PERIPH_TSC            RCC_AHB1ENR_TSCEN
  85:Drivers/STM32WBxx_HAL_Driver/Inc/stm32wbxx_ll_bus.h **** /**
  86:Drivers/STM32WBxx_HAL_Driver/Inc/stm32wbxx_ll_bus.h ****   * @}
  87:Drivers/STM32WBxx_HAL_Driver/Inc/stm32wbxx_ll_bus.h ****   */
  88:Drivers/STM32WBxx_HAL_Driver/Inc/stm32wbxx_ll_bus.h **** 
  89:Drivers/STM32WBxx_HAL_Driver/Inc/stm32wbxx_ll_bus.h **** /** @defgroup BUS_LL_EC_AHB2_GRP1_PERIPH  AHB2 GRP1 PERIPH
  90:Drivers/STM32WBxx_HAL_Driver/Inc/stm32wbxx_ll_bus.h ****   * @{
  91:Drivers/STM32WBxx_HAL_Driver/Inc/stm32wbxx_ll_bus.h ****   */
  92:Drivers/STM32WBxx_HAL_Driver/Inc/stm32wbxx_ll_bus.h **** #define LL_AHB2_GRP1_PERIPH_ALL            (0xFFFFFFFFU)
  93:Drivers/STM32WBxx_HAL_Driver/Inc/stm32wbxx_ll_bus.h **** 
  94:Drivers/STM32WBxx_HAL_Driver/Inc/stm32wbxx_ll_bus.h **** #define LL_AHB2_GRP1_PERIPH_GPIOA          RCC_AHB2ENR_GPIOAEN
  95:Drivers/STM32WBxx_HAL_Driver/Inc/stm32wbxx_ll_bus.h **** #define LL_AHB2_GRP1_PERIPH_GPIOB          RCC_AHB2ENR_GPIOBEN
  96:Drivers/STM32WBxx_HAL_Driver/Inc/stm32wbxx_ll_bus.h **** #define LL_AHB2_GRP1_PERIPH_GPIOC          RCC_AHB2ENR_GPIOCEN
  97:Drivers/STM32WBxx_HAL_Driver/Inc/stm32wbxx_ll_bus.h **** #if defined(GPIOD)
  98:Drivers/STM32WBxx_HAL_Driver/Inc/stm32wbxx_ll_bus.h **** #define LL_AHB2_GRP1_PERIPH_GPIOD          RCC_AHB2ENR_GPIODEN
  99:Drivers/STM32WBxx_HAL_Driver/Inc/stm32wbxx_ll_bus.h **** #endif
 100:Drivers/STM32WBxx_HAL_Driver/Inc/stm32wbxx_ll_bus.h **** #define LL_AHB2_GRP1_PERIPH_GPIOE          RCC_AHB2ENR_GPIOEEN
 101:Drivers/STM32WBxx_HAL_Driver/Inc/stm32wbxx_ll_bus.h **** #define LL_AHB2_GRP1_PERIPH_GPIOH          RCC_AHB2ENR_GPIOHEN
 102:Drivers/STM32WBxx_HAL_Driver/Inc/stm32wbxx_ll_bus.h **** #define LL_AHB2_GRP1_PERIPH_ADC            RCC_AHB2ENR_ADCEN
 103:Drivers/STM32WBxx_HAL_Driver/Inc/stm32wbxx_ll_bus.h **** #if defined(AES1)
 104:Drivers/STM32WBxx_HAL_Driver/Inc/stm32wbxx_ll_bus.h **** #define LL_AHB2_GRP1_PERIPH_AES1           RCC_AHB2ENR_AES1EN
 105:Drivers/STM32WBxx_HAL_Driver/Inc/stm32wbxx_ll_bus.h **** #endif
 106:Drivers/STM32WBxx_HAL_Driver/Inc/stm32wbxx_ll_bus.h **** /**
 107:Drivers/STM32WBxx_HAL_Driver/Inc/stm32wbxx_ll_bus.h ****   * @}
 108:Drivers/STM32WBxx_HAL_Driver/Inc/stm32wbxx_ll_bus.h ****   */
 109:Drivers/STM32WBxx_HAL_Driver/Inc/stm32wbxx_ll_bus.h **** 
 110:Drivers/STM32WBxx_HAL_Driver/Inc/stm32wbxx_ll_bus.h **** /** @defgroup BUS_LL_EC_AHB3_GRP1_PERIPH  AHB3 GRP1 PERIPH
 111:Drivers/STM32WBxx_HAL_Driver/Inc/stm32wbxx_ll_bus.h ****   * @{
 112:Drivers/STM32WBxx_HAL_Driver/Inc/stm32wbxx_ll_bus.h ****   */
 113:Drivers/STM32WBxx_HAL_Driver/Inc/stm32wbxx_ll_bus.h **** #define LL_AHB3_GRP1_PERIPH_ALL            (0xFFFFFFFFU)
 114:Drivers/STM32WBxx_HAL_Driver/Inc/stm32wbxx_ll_bus.h **** #if defined(QUADSPI)
 115:Drivers/STM32WBxx_HAL_Driver/Inc/stm32wbxx_ll_bus.h **** #define LL_AHB3_GRP1_PERIPH_QUADSPI        RCC_AHB3ENR_QUADSPIEN
 116:Drivers/STM32WBxx_HAL_Driver/Inc/stm32wbxx_ll_bus.h **** #endif
 117:Drivers/STM32WBxx_HAL_Driver/Inc/stm32wbxx_ll_bus.h **** #define LL_AHB3_GRP1_PERIPH_PKA            RCC_AHB3ENR_PKAEN
 118:Drivers/STM32WBxx_HAL_Driver/Inc/stm32wbxx_ll_bus.h **** #define LL_AHB3_GRP1_PERIPH_AES2           RCC_AHB3ENR_AES2EN
ARM GAS  /tmp/ccL4sKcp.s 			page 20


 119:Drivers/STM32WBxx_HAL_Driver/Inc/stm32wbxx_ll_bus.h **** #define LL_AHB3_GRP1_PERIPH_RNG            RCC_AHB3ENR_RNGEN
 120:Drivers/STM32WBxx_HAL_Driver/Inc/stm32wbxx_ll_bus.h **** #define LL_AHB3_GRP1_PERIPH_HSEM           RCC_AHB3ENR_HSEMEN
 121:Drivers/STM32WBxx_HAL_Driver/Inc/stm32wbxx_ll_bus.h **** #define LL_AHB3_GRP1_PERIPH_IPCC           RCC_AHB3ENR_IPCCEN
 122:Drivers/STM32WBxx_HAL_Driver/Inc/stm32wbxx_ll_bus.h **** #define LL_AHB3_GRP1_PERIPH_SRAM2          RCC_AHB3SMENR_SRAM2SMEN
 123:Drivers/STM32WBxx_HAL_Driver/Inc/stm32wbxx_ll_bus.h **** #define LL_AHB3_GRP1_PERIPH_FLASH          RCC_AHB3ENR_FLASHEN
 124:Drivers/STM32WBxx_HAL_Driver/Inc/stm32wbxx_ll_bus.h **** /**
 125:Drivers/STM32WBxx_HAL_Driver/Inc/stm32wbxx_ll_bus.h ****   * @}
 126:Drivers/STM32WBxx_HAL_Driver/Inc/stm32wbxx_ll_bus.h ****   */
 127:Drivers/STM32WBxx_HAL_Driver/Inc/stm32wbxx_ll_bus.h **** 
 128:Drivers/STM32WBxx_HAL_Driver/Inc/stm32wbxx_ll_bus.h **** /** @defgroup BUS_LL_EC_APB1_GRP1_PERIPH  APB1 GRP1 PERIPH
 129:Drivers/STM32WBxx_HAL_Driver/Inc/stm32wbxx_ll_bus.h ****   * @{
 130:Drivers/STM32WBxx_HAL_Driver/Inc/stm32wbxx_ll_bus.h ****   */
 131:Drivers/STM32WBxx_HAL_Driver/Inc/stm32wbxx_ll_bus.h **** #define LL_APB1_GRP1_PERIPH_ALL            (0xFFFFFFFFU)
 132:Drivers/STM32WBxx_HAL_Driver/Inc/stm32wbxx_ll_bus.h **** #define LL_APB1_GRP1_PERIPH_TIM2           RCC_APB1ENR1_TIM2EN
 133:Drivers/STM32WBxx_HAL_Driver/Inc/stm32wbxx_ll_bus.h **** #if defined(LCD)
 134:Drivers/STM32WBxx_HAL_Driver/Inc/stm32wbxx_ll_bus.h **** #define LL_APB1_GRP1_PERIPH_LCD            RCC_APB1ENR1_LCDEN
 135:Drivers/STM32WBxx_HAL_Driver/Inc/stm32wbxx_ll_bus.h **** #endif
 136:Drivers/STM32WBxx_HAL_Driver/Inc/stm32wbxx_ll_bus.h **** #define LL_APB1_GRP1_PERIPH_RTCAPB         RCC_APB1ENR1_RTCAPBEN
 137:Drivers/STM32WBxx_HAL_Driver/Inc/stm32wbxx_ll_bus.h **** #define LL_APB1_GRP1_PERIPH_WWDG           RCC_APB1ENR1_WWDGEN
 138:Drivers/STM32WBxx_HAL_Driver/Inc/stm32wbxx_ll_bus.h **** #if defined(SPI2)
 139:Drivers/STM32WBxx_HAL_Driver/Inc/stm32wbxx_ll_bus.h **** #define LL_APB1_GRP1_PERIPH_SPI2           RCC_APB1ENR1_SPI2EN
 140:Drivers/STM32WBxx_HAL_Driver/Inc/stm32wbxx_ll_bus.h **** #endif
 141:Drivers/STM32WBxx_HAL_Driver/Inc/stm32wbxx_ll_bus.h **** #define LL_APB1_GRP1_PERIPH_I2C1           RCC_APB1ENR1_I2C1EN
 142:Drivers/STM32WBxx_HAL_Driver/Inc/stm32wbxx_ll_bus.h **** #if defined(I2C3)
 143:Drivers/STM32WBxx_HAL_Driver/Inc/stm32wbxx_ll_bus.h **** #define LL_APB1_GRP1_PERIPH_I2C3           RCC_APB1ENR1_I2C3EN
 144:Drivers/STM32WBxx_HAL_Driver/Inc/stm32wbxx_ll_bus.h **** #endif
 145:Drivers/STM32WBxx_HAL_Driver/Inc/stm32wbxx_ll_bus.h **** #if defined(CRS)
 146:Drivers/STM32WBxx_HAL_Driver/Inc/stm32wbxx_ll_bus.h **** #define LL_APB1_GRP1_PERIPH_CRS            RCC_APB1ENR1_CRSEN
 147:Drivers/STM32WBxx_HAL_Driver/Inc/stm32wbxx_ll_bus.h **** #endif
 148:Drivers/STM32WBxx_HAL_Driver/Inc/stm32wbxx_ll_bus.h **** #if defined(USB)
 149:Drivers/STM32WBxx_HAL_Driver/Inc/stm32wbxx_ll_bus.h **** #define LL_APB1_GRP1_PERIPH_USB            RCC_APB1ENR1_USBEN
 150:Drivers/STM32WBxx_HAL_Driver/Inc/stm32wbxx_ll_bus.h **** #endif
 151:Drivers/STM32WBxx_HAL_Driver/Inc/stm32wbxx_ll_bus.h **** #define LL_APB1_GRP1_PERIPH_LPTIM1         RCC_APB1ENR1_LPTIM1EN
 152:Drivers/STM32WBxx_HAL_Driver/Inc/stm32wbxx_ll_bus.h **** /**
 153:Drivers/STM32WBxx_HAL_Driver/Inc/stm32wbxx_ll_bus.h ****   * @}
 154:Drivers/STM32WBxx_HAL_Driver/Inc/stm32wbxx_ll_bus.h ****   */
 155:Drivers/STM32WBxx_HAL_Driver/Inc/stm32wbxx_ll_bus.h **** 
 156:Drivers/STM32WBxx_HAL_Driver/Inc/stm32wbxx_ll_bus.h **** 
 157:Drivers/STM32WBxx_HAL_Driver/Inc/stm32wbxx_ll_bus.h **** /** @defgroup BUS_LL_EC_APB1_GRP2_PERIPH  APB1 GRP2 PERIPH
 158:Drivers/STM32WBxx_HAL_Driver/Inc/stm32wbxx_ll_bus.h ****   * @{
 159:Drivers/STM32WBxx_HAL_Driver/Inc/stm32wbxx_ll_bus.h ****   */
 160:Drivers/STM32WBxx_HAL_Driver/Inc/stm32wbxx_ll_bus.h **** #define LL_APB1_GRP2_PERIPH_ALL            (0xFFFFFFFFU)
 161:Drivers/STM32WBxx_HAL_Driver/Inc/stm32wbxx_ll_bus.h **** 
 162:Drivers/STM32WBxx_HAL_Driver/Inc/stm32wbxx_ll_bus.h **** #if defined(LPUART1)
 163:Drivers/STM32WBxx_HAL_Driver/Inc/stm32wbxx_ll_bus.h **** #define LL_APB1_GRP2_PERIPH_LPUART1        RCC_APB1ENR2_LPUART1EN
 164:Drivers/STM32WBxx_HAL_Driver/Inc/stm32wbxx_ll_bus.h **** #endif
 165:Drivers/STM32WBxx_HAL_Driver/Inc/stm32wbxx_ll_bus.h **** #define LL_APB1_GRP2_PERIPH_LPTIM2         RCC_APB1ENR2_LPTIM2EN
 166:Drivers/STM32WBxx_HAL_Driver/Inc/stm32wbxx_ll_bus.h **** /**
 167:Drivers/STM32WBxx_HAL_Driver/Inc/stm32wbxx_ll_bus.h ****   * @}
 168:Drivers/STM32WBxx_HAL_Driver/Inc/stm32wbxx_ll_bus.h ****   */
 169:Drivers/STM32WBxx_HAL_Driver/Inc/stm32wbxx_ll_bus.h **** 
 170:Drivers/STM32WBxx_HAL_Driver/Inc/stm32wbxx_ll_bus.h **** /** @defgroup BUS_LL_EC_APB2_GRP1_PERIPH  APB2 GRP1 PERIPH
 171:Drivers/STM32WBxx_HAL_Driver/Inc/stm32wbxx_ll_bus.h ****   * @{
 172:Drivers/STM32WBxx_HAL_Driver/Inc/stm32wbxx_ll_bus.h ****   */
 173:Drivers/STM32WBxx_HAL_Driver/Inc/stm32wbxx_ll_bus.h **** #define LL_APB2_GRP1_PERIPH_ALL            (0xFFFFFFFFU)
 174:Drivers/STM32WBxx_HAL_Driver/Inc/stm32wbxx_ll_bus.h **** 
 175:Drivers/STM32WBxx_HAL_Driver/Inc/stm32wbxx_ll_bus.h **** #define LL_APB2_GRP1_PERIPH_TIM1           RCC_APB2ENR_TIM1EN
ARM GAS  /tmp/ccL4sKcp.s 			page 21


 176:Drivers/STM32WBxx_HAL_Driver/Inc/stm32wbxx_ll_bus.h **** #define LL_APB2_GRP1_PERIPH_SPI1           RCC_APB2ENR_SPI1EN
 177:Drivers/STM32WBxx_HAL_Driver/Inc/stm32wbxx_ll_bus.h **** #define LL_APB2_GRP1_PERIPH_USART1         RCC_APB2ENR_USART1EN
 178:Drivers/STM32WBxx_HAL_Driver/Inc/stm32wbxx_ll_bus.h **** #define LL_APB2_GRP1_PERIPH_TIM16          RCC_APB2ENR_TIM16EN
 179:Drivers/STM32WBxx_HAL_Driver/Inc/stm32wbxx_ll_bus.h **** #define LL_APB2_GRP1_PERIPH_TIM17          RCC_APB2ENR_TIM17EN
 180:Drivers/STM32WBxx_HAL_Driver/Inc/stm32wbxx_ll_bus.h **** #if defined(SAI1)
 181:Drivers/STM32WBxx_HAL_Driver/Inc/stm32wbxx_ll_bus.h **** #define LL_APB2_GRP1_PERIPH_SAI1           RCC_APB2ENR_SAI1EN
 182:Drivers/STM32WBxx_HAL_Driver/Inc/stm32wbxx_ll_bus.h **** #endif
 183:Drivers/STM32WBxx_HAL_Driver/Inc/stm32wbxx_ll_bus.h **** /**
 184:Drivers/STM32WBxx_HAL_Driver/Inc/stm32wbxx_ll_bus.h ****   * @}
 185:Drivers/STM32WBxx_HAL_Driver/Inc/stm32wbxx_ll_bus.h ****   */
 186:Drivers/STM32WBxx_HAL_Driver/Inc/stm32wbxx_ll_bus.h **** 
 187:Drivers/STM32WBxx_HAL_Driver/Inc/stm32wbxx_ll_bus.h **** /** @defgroup BUS_LL_EC_APB3_GRP1_PERIPH  APB3 GRP1 PERIPH
 188:Drivers/STM32WBxx_HAL_Driver/Inc/stm32wbxx_ll_bus.h ****   * @{
 189:Drivers/STM32WBxx_HAL_Driver/Inc/stm32wbxx_ll_bus.h ****   */
 190:Drivers/STM32WBxx_HAL_Driver/Inc/stm32wbxx_ll_bus.h **** #define LL_APB3_GRP1_PERIPH_ALL            (0xFFFFFFFFU)
 191:Drivers/STM32WBxx_HAL_Driver/Inc/stm32wbxx_ll_bus.h **** #define LL_APB3_GRP1_PERIPH_RF             RCC_APB3RSTR_RFRST
 192:Drivers/STM32WBxx_HAL_Driver/Inc/stm32wbxx_ll_bus.h **** /**
 193:Drivers/STM32WBxx_HAL_Driver/Inc/stm32wbxx_ll_bus.h ****   * @}
 194:Drivers/STM32WBxx_HAL_Driver/Inc/stm32wbxx_ll_bus.h ****   */
 195:Drivers/STM32WBxx_HAL_Driver/Inc/stm32wbxx_ll_bus.h **** 
 196:Drivers/STM32WBxx_HAL_Driver/Inc/stm32wbxx_ll_bus.h **** 
 197:Drivers/STM32WBxx_HAL_Driver/Inc/stm32wbxx_ll_bus.h **** /** @defgroup BUS_LL_EC_C2_AHB1_GRP1_PERIPH  C2 AHB1 GRP1 PERIPH
 198:Drivers/STM32WBxx_HAL_Driver/Inc/stm32wbxx_ll_bus.h ****   * @{
 199:Drivers/STM32WBxx_HAL_Driver/Inc/stm32wbxx_ll_bus.h ****   */
 200:Drivers/STM32WBxx_HAL_Driver/Inc/stm32wbxx_ll_bus.h **** #define LL_C2_AHB1_GRP1_PERIPH_DMA1         RCC_C2AHB1ENR_DMA1EN
 201:Drivers/STM32WBxx_HAL_Driver/Inc/stm32wbxx_ll_bus.h **** #if defined(DMA2)
 202:Drivers/STM32WBxx_HAL_Driver/Inc/stm32wbxx_ll_bus.h **** #define LL_C2_AHB1_GRP1_PERIPH_DMA2         RCC_C2AHB1ENR_DMA2EN
 203:Drivers/STM32WBxx_HAL_Driver/Inc/stm32wbxx_ll_bus.h **** #endif
 204:Drivers/STM32WBxx_HAL_Driver/Inc/stm32wbxx_ll_bus.h **** #define LL_C2_AHB1_GRP1_PERIPH_DMAMUX1      RCC_C2AHB1ENR_DMAMUX1EN
 205:Drivers/STM32WBxx_HAL_Driver/Inc/stm32wbxx_ll_bus.h **** #define LL_C2_AHB1_GRP1_PERIPH_SRAM1        RCC_C2AHB1ENR_SRAM1EN
 206:Drivers/STM32WBxx_HAL_Driver/Inc/stm32wbxx_ll_bus.h **** #define LL_C2_AHB1_GRP1_PERIPH_CRC          RCC_C2AHB1ENR_CRCEN
 207:Drivers/STM32WBxx_HAL_Driver/Inc/stm32wbxx_ll_bus.h **** #define LL_C2_AHB1_GRP1_PERIPH_TSC          RCC_C2AHB1ENR_TSCEN
 208:Drivers/STM32WBxx_HAL_Driver/Inc/stm32wbxx_ll_bus.h **** /**
 209:Drivers/STM32WBxx_HAL_Driver/Inc/stm32wbxx_ll_bus.h ****   * @}
 210:Drivers/STM32WBxx_HAL_Driver/Inc/stm32wbxx_ll_bus.h ****   */
 211:Drivers/STM32WBxx_HAL_Driver/Inc/stm32wbxx_ll_bus.h **** 
 212:Drivers/STM32WBxx_HAL_Driver/Inc/stm32wbxx_ll_bus.h **** 
 213:Drivers/STM32WBxx_HAL_Driver/Inc/stm32wbxx_ll_bus.h **** /** @defgroup BUS_LL_EC_C2_AHB2_GRP1_PERIPH  C2 AHB2 GRP1 PERIPH
 214:Drivers/STM32WBxx_HAL_Driver/Inc/stm32wbxx_ll_bus.h ****   * @{
 215:Drivers/STM32WBxx_HAL_Driver/Inc/stm32wbxx_ll_bus.h ****   */
 216:Drivers/STM32WBxx_HAL_Driver/Inc/stm32wbxx_ll_bus.h **** #define LL_C2_AHB2_GRP1_PERIPH_GPIOA        RCC_C2AHB2ENR_GPIOAEN
 217:Drivers/STM32WBxx_HAL_Driver/Inc/stm32wbxx_ll_bus.h **** #define LL_C2_AHB2_GRP1_PERIPH_GPIOB        RCC_C2AHB2ENR_GPIOBEN
 218:Drivers/STM32WBxx_HAL_Driver/Inc/stm32wbxx_ll_bus.h **** #define LL_C2_AHB2_GRP1_PERIPH_GPIOC        RCC_C2AHB2ENR_GPIOCEN
 219:Drivers/STM32WBxx_HAL_Driver/Inc/stm32wbxx_ll_bus.h **** #if defined(GPIOD)
 220:Drivers/STM32WBxx_HAL_Driver/Inc/stm32wbxx_ll_bus.h **** #define LL_C2_AHB2_GRP1_PERIPH_GPIOD        RCC_C2AHB2ENR_GPIODEN
 221:Drivers/STM32WBxx_HAL_Driver/Inc/stm32wbxx_ll_bus.h **** #endif
 222:Drivers/STM32WBxx_HAL_Driver/Inc/stm32wbxx_ll_bus.h **** #define LL_C2_AHB2_GRP1_PERIPH_GPIOE        RCC_C2AHB2ENR_GPIOEEN
 223:Drivers/STM32WBxx_HAL_Driver/Inc/stm32wbxx_ll_bus.h **** #define LL_C2_AHB2_GRP1_PERIPH_GPIOH        RCC_C2AHB2ENR_GPIOHEN
 224:Drivers/STM32WBxx_HAL_Driver/Inc/stm32wbxx_ll_bus.h **** #define LL_C2_AHB2_GRP1_PERIPH_ADC          RCC_C2AHB2ENR_ADCEN
 225:Drivers/STM32WBxx_HAL_Driver/Inc/stm32wbxx_ll_bus.h **** #if defined(AES1)
 226:Drivers/STM32WBxx_HAL_Driver/Inc/stm32wbxx_ll_bus.h **** #define LL_C2_AHB2_GRP1_PERIPH_AES1         RCC_C2AHB2ENR_AES1EN
 227:Drivers/STM32WBxx_HAL_Driver/Inc/stm32wbxx_ll_bus.h **** #endif
 228:Drivers/STM32WBxx_HAL_Driver/Inc/stm32wbxx_ll_bus.h **** /**
 229:Drivers/STM32WBxx_HAL_Driver/Inc/stm32wbxx_ll_bus.h ****   * @}
 230:Drivers/STM32WBxx_HAL_Driver/Inc/stm32wbxx_ll_bus.h ****   */
 231:Drivers/STM32WBxx_HAL_Driver/Inc/stm32wbxx_ll_bus.h **** 
 232:Drivers/STM32WBxx_HAL_Driver/Inc/stm32wbxx_ll_bus.h **** 
ARM GAS  /tmp/ccL4sKcp.s 			page 22


 233:Drivers/STM32WBxx_HAL_Driver/Inc/stm32wbxx_ll_bus.h **** /** @defgroup BUS_LL_EC_C2_AHB3_GRP1_PERIPH  C2 AHB3 GRP1 PERIPH
 234:Drivers/STM32WBxx_HAL_Driver/Inc/stm32wbxx_ll_bus.h ****   * @{
 235:Drivers/STM32WBxx_HAL_Driver/Inc/stm32wbxx_ll_bus.h ****   */
 236:Drivers/STM32WBxx_HAL_Driver/Inc/stm32wbxx_ll_bus.h **** #define LL_C2_AHB3_GRP1_PERIPH_PKA          RCC_C2AHB3ENR_PKAEN
 237:Drivers/STM32WBxx_HAL_Driver/Inc/stm32wbxx_ll_bus.h **** #define LL_C2_AHB3_GRP1_PERIPH_AES2         RCC_C2AHB3ENR_AES2EN
 238:Drivers/STM32WBxx_HAL_Driver/Inc/stm32wbxx_ll_bus.h **** #define LL_C2_AHB3_GRP1_PERIPH_RNG          RCC_C2AHB3ENR_RNGEN
 239:Drivers/STM32WBxx_HAL_Driver/Inc/stm32wbxx_ll_bus.h **** #define LL_C2_AHB3_GRP1_PERIPH_HSEM         RCC_C2AHB3ENR_HSEMEN
 240:Drivers/STM32WBxx_HAL_Driver/Inc/stm32wbxx_ll_bus.h **** #define LL_C2_AHB3_GRP1_PERIPH_IPCC         RCC_C2AHB3ENR_IPCCEN
 241:Drivers/STM32WBxx_HAL_Driver/Inc/stm32wbxx_ll_bus.h **** #define LL_C2_AHB3_GRP1_PERIPH_FLASH        RCC_C2AHB3ENR_FLASHEN
 242:Drivers/STM32WBxx_HAL_Driver/Inc/stm32wbxx_ll_bus.h **** #define LL_C2_AHB3_GRP1_PERIPH_SRAM2        RCC_C2AHB3SMENR_SRAM2SMEN
 243:Drivers/STM32WBxx_HAL_Driver/Inc/stm32wbxx_ll_bus.h **** /**
 244:Drivers/STM32WBxx_HAL_Driver/Inc/stm32wbxx_ll_bus.h ****   * @}
 245:Drivers/STM32WBxx_HAL_Driver/Inc/stm32wbxx_ll_bus.h ****   */
 246:Drivers/STM32WBxx_HAL_Driver/Inc/stm32wbxx_ll_bus.h **** 
 247:Drivers/STM32WBxx_HAL_Driver/Inc/stm32wbxx_ll_bus.h **** 
 248:Drivers/STM32WBxx_HAL_Driver/Inc/stm32wbxx_ll_bus.h **** /** @defgroup BUS_LL_EC_C2_APB1_GRP1_PERIPH  C2 APB1 GRP1 PERIPH
 249:Drivers/STM32WBxx_HAL_Driver/Inc/stm32wbxx_ll_bus.h ****   * @{
 250:Drivers/STM32WBxx_HAL_Driver/Inc/stm32wbxx_ll_bus.h ****   */
 251:Drivers/STM32WBxx_HAL_Driver/Inc/stm32wbxx_ll_bus.h **** #define LL_C2_APB1_GRP1_PERIPH_TIM2         RCC_C2APB1ENR1_TIM2EN
 252:Drivers/STM32WBxx_HAL_Driver/Inc/stm32wbxx_ll_bus.h **** #if defined(LCD)
 253:Drivers/STM32WBxx_HAL_Driver/Inc/stm32wbxx_ll_bus.h **** #define LL_C2_APB1_GRP1_PERIPH_LCD          RCC_C2APB1ENR1_LCDEN
 254:Drivers/STM32WBxx_HAL_Driver/Inc/stm32wbxx_ll_bus.h **** #endif
 255:Drivers/STM32WBxx_HAL_Driver/Inc/stm32wbxx_ll_bus.h **** #define LL_C2_APB1_GRP1_PERIPH_RTCAPB       RCC_C2APB1ENR1_RTCAPBEN
 256:Drivers/STM32WBxx_HAL_Driver/Inc/stm32wbxx_ll_bus.h **** #if defined(SPI2)
 257:Drivers/STM32WBxx_HAL_Driver/Inc/stm32wbxx_ll_bus.h **** #define LL_C2_APB1_GRP1_PERIPH_SPI2         RCC_C2APB1ENR1_SPI2EN
 258:Drivers/STM32WBxx_HAL_Driver/Inc/stm32wbxx_ll_bus.h **** #endif
 259:Drivers/STM32WBxx_HAL_Driver/Inc/stm32wbxx_ll_bus.h **** #define LL_C2_APB1_GRP1_PERIPH_I2C1         RCC_C2APB1ENR1_I2C1EN
 260:Drivers/STM32WBxx_HAL_Driver/Inc/stm32wbxx_ll_bus.h **** #if defined(I2C3)
 261:Drivers/STM32WBxx_HAL_Driver/Inc/stm32wbxx_ll_bus.h **** #define LL_C2_APB1_GRP1_PERIPH_I2C3         RCC_C2APB1ENR1_I2C3EN
 262:Drivers/STM32WBxx_HAL_Driver/Inc/stm32wbxx_ll_bus.h **** #define LL_C2_APB1_GRP1_PERIPH_CRS          RCC_C2APB1ENR1_CRSEN
 263:Drivers/STM32WBxx_HAL_Driver/Inc/stm32wbxx_ll_bus.h **** #define LL_C2_APB1_GRP1_PERIPH_USB          RCC_C2APB1ENR1_USBEN
 264:Drivers/STM32WBxx_HAL_Driver/Inc/stm32wbxx_ll_bus.h **** #endif
 265:Drivers/STM32WBxx_HAL_Driver/Inc/stm32wbxx_ll_bus.h **** #define LL_C2_APB1_GRP1_PERIPH_LPTIM1       RCC_C2APB1ENR1_LPTIM1EN
 266:Drivers/STM32WBxx_HAL_Driver/Inc/stm32wbxx_ll_bus.h **** /**
 267:Drivers/STM32WBxx_HAL_Driver/Inc/stm32wbxx_ll_bus.h ****   * @}
 268:Drivers/STM32WBxx_HAL_Driver/Inc/stm32wbxx_ll_bus.h ****   */
 269:Drivers/STM32WBxx_HAL_Driver/Inc/stm32wbxx_ll_bus.h **** 
 270:Drivers/STM32WBxx_HAL_Driver/Inc/stm32wbxx_ll_bus.h **** 
 271:Drivers/STM32WBxx_HAL_Driver/Inc/stm32wbxx_ll_bus.h **** /** @defgroup BUS_LL_EC_C2_APB1_GRP2_PERIPH  C2 APB1 GRP2 PERIPH
 272:Drivers/STM32WBxx_HAL_Driver/Inc/stm32wbxx_ll_bus.h ****   * @{
 273:Drivers/STM32WBxx_HAL_Driver/Inc/stm32wbxx_ll_bus.h ****   */
 274:Drivers/STM32WBxx_HAL_Driver/Inc/stm32wbxx_ll_bus.h **** #if defined(LPUART1)
 275:Drivers/STM32WBxx_HAL_Driver/Inc/stm32wbxx_ll_bus.h **** #define LL_C2_APB1_GRP2_PERIPH_LPUART1      RCC_C2APB1ENR2_LPUART1EN
 276:Drivers/STM32WBxx_HAL_Driver/Inc/stm32wbxx_ll_bus.h **** #endif
 277:Drivers/STM32WBxx_HAL_Driver/Inc/stm32wbxx_ll_bus.h **** #define LL_C2_APB1_GRP2_PERIPH_LPTIM2       RCC_C2APB1ENR2_LPTIM2EN
 278:Drivers/STM32WBxx_HAL_Driver/Inc/stm32wbxx_ll_bus.h **** /**
 279:Drivers/STM32WBxx_HAL_Driver/Inc/stm32wbxx_ll_bus.h ****   * @}
 280:Drivers/STM32WBxx_HAL_Driver/Inc/stm32wbxx_ll_bus.h ****   */
 281:Drivers/STM32WBxx_HAL_Driver/Inc/stm32wbxx_ll_bus.h **** 
 282:Drivers/STM32WBxx_HAL_Driver/Inc/stm32wbxx_ll_bus.h **** 
 283:Drivers/STM32WBxx_HAL_Driver/Inc/stm32wbxx_ll_bus.h **** /** @defgroup BUS_LL_EC_C2_APB2_GRP1_PERIPH  C2 APB2 GRP1 PERIPH
 284:Drivers/STM32WBxx_HAL_Driver/Inc/stm32wbxx_ll_bus.h ****   * @{
 285:Drivers/STM32WBxx_HAL_Driver/Inc/stm32wbxx_ll_bus.h ****   */
 286:Drivers/STM32WBxx_HAL_Driver/Inc/stm32wbxx_ll_bus.h **** #define LL_C2_APB2_GRP1_PERIPH_TIM1         RCC_C2APB2ENR_TIM1EN
 287:Drivers/STM32WBxx_HAL_Driver/Inc/stm32wbxx_ll_bus.h **** #define LL_C2_APB2_GRP1_PERIPH_SPI1         RCC_C2APB2ENR_SPI1EN
 288:Drivers/STM32WBxx_HAL_Driver/Inc/stm32wbxx_ll_bus.h **** #define LL_C2_APB2_GRP1_PERIPH_USART1       RCC_C2APB2ENR_USART1EN
 289:Drivers/STM32WBxx_HAL_Driver/Inc/stm32wbxx_ll_bus.h **** #define LL_C2_APB2_GRP1_PERIPH_TIM16        RCC_C2APB2ENR_TIM16EN
ARM GAS  /tmp/ccL4sKcp.s 			page 23


 290:Drivers/STM32WBxx_HAL_Driver/Inc/stm32wbxx_ll_bus.h **** #define LL_C2_APB2_GRP1_PERIPH_TIM17        RCC_C2APB2ENR_TIM17EN
 291:Drivers/STM32WBxx_HAL_Driver/Inc/stm32wbxx_ll_bus.h **** #if defined(SAI1)
 292:Drivers/STM32WBxx_HAL_Driver/Inc/stm32wbxx_ll_bus.h **** #define LL_C2_APB2_GRP1_PERIPH_SAI1         RCC_C2APB2ENR_SAI1EN
 293:Drivers/STM32WBxx_HAL_Driver/Inc/stm32wbxx_ll_bus.h **** #endif
 294:Drivers/STM32WBxx_HAL_Driver/Inc/stm32wbxx_ll_bus.h **** /**
 295:Drivers/STM32WBxx_HAL_Driver/Inc/stm32wbxx_ll_bus.h ****   * @}
 296:Drivers/STM32WBxx_HAL_Driver/Inc/stm32wbxx_ll_bus.h ****   */
 297:Drivers/STM32WBxx_HAL_Driver/Inc/stm32wbxx_ll_bus.h **** 
 298:Drivers/STM32WBxx_HAL_Driver/Inc/stm32wbxx_ll_bus.h **** 
 299:Drivers/STM32WBxx_HAL_Driver/Inc/stm32wbxx_ll_bus.h **** /** @defgroup BUS_LL_EC_C2_APB3_GRP1_PERIPH  C2 APB3 GRP1 PERIPH
 300:Drivers/STM32WBxx_HAL_Driver/Inc/stm32wbxx_ll_bus.h ****   * @{
 301:Drivers/STM32WBxx_HAL_Driver/Inc/stm32wbxx_ll_bus.h ****   */
 302:Drivers/STM32WBxx_HAL_Driver/Inc/stm32wbxx_ll_bus.h **** #define LL_C2_APB3_GRP1_PERIPH_BLE          RCC_C2APB3ENR_BLEEN
 303:Drivers/STM32WBxx_HAL_Driver/Inc/stm32wbxx_ll_bus.h **** #define LL_C2_APB3_GRP1_PERIPH_802          RCC_C2APB3ENR_802EN
 304:Drivers/STM32WBxx_HAL_Driver/Inc/stm32wbxx_ll_bus.h **** /**
 305:Drivers/STM32WBxx_HAL_Driver/Inc/stm32wbxx_ll_bus.h ****   * @}
 306:Drivers/STM32WBxx_HAL_Driver/Inc/stm32wbxx_ll_bus.h ****   */
 307:Drivers/STM32WBxx_HAL_Driver/Inc/stm32wbxx_ll_bus.h **** 
 308:Drivers/STM32WBxx_HAL_Driver/Inc/stm32wbxx_ll_bus.h **** 
 309:Drivers/STM32WBxx_HAL_Driver/Inc/stm32wbxx_ll_bus.h **** /**
 310:Drivers/STM32WBxx_HAL_Driver/Inc/stm32wbxx_ll_bus.h ****   * @}
 311:Drivers/STM32WBxx_HAL_Driver/Inc/stm32wbxx_ll_bus.h ****   */
 312:Drivers/STM32WBxx_HAL_Driver/Inc/stm32wbxx_ll_bus.h **** 
 313:Drivers/STM32WBxx_HAL_Driver/Inc/stm32wbxx_ll_bus.h **** /* Exported macro ------------------------------------------------------------*/
 314:Drivers/STM32WBxx_HAL_Driver/Inc/stm32wbxx_ll_bus.h **** 
 315:Drivers/STM32WBxx_HAL_Driver/Inc/stm32wbxx_ll_bus.h **** /* Exported functions --------------------------------------------------------*/
 316:Drivers/STM32WBxx_HAL_Driver/Inc/stm32wbxx_ll_bus.h **** 
 317:Drivers/STM32WBxx_HAL_Driver/Inc/stm32wbxx_ll_bus.h **** /** @defgroup BUS_LL_Exported_Functions BUS Exported Functions
 318:Drivers/STM32WBxx_HAL_Driver/Inc/stm32wbxx_ll_bus.h ****   * @{
 319:Drivers/STM32WBxx_HAL_Driver/Inc/stm32wbxx_ll_bus.h ****   */
 320:Drivers/STM32WBxx_HAL_Driver/Inc/stm32wbxx_ll_bus.h **** 
 321:Drivers/STM32WBxx_HAL_Driver/Inc/stm32wbxx_ll_bus.h **** /** @defgroup BUS_LL_EF_AHB1 AHB1
 322:Drivers/STM32WBxx_HAL_Driver/Inc/stm32wbxx_ll_bus.h ****   * @{
 323:Drivers/STM32WBxx_HAL_Driver/Inc/stm32wbxx_ll_bus.h ****   */
 324:Drivers/STM32WBxx_HAL_Driver/Inc/stm32wbxx_ll_bus.h **** 
 325:Drivers/STM32WBxx_HAL_Driver/Inc/stm32wbxx_ll_bus.h **** /**
 326:Drivers/STM32WBxx_HAL_Driver/Inc/stm32wbxx_ll_bus.h ****   * @brief  Enable AHB1 peripherals clock.
 327:Drivers/STM32WBxx_HAL_Driver/Inc/stm32wbxx_ll_bus.h ****   * @rmtoll AHB1ENR      DMA1EN        LL_AHB1_GRP1_EnableClock\n
 328:Drivers/STM32WBxx_HAL_Driver/Inc/stm32wbxx_ll_bus.h ****   *         AHB1ENR      DMA2EN        LL_AHB1_GRP1_EnableClock\n
 329:Drivers/STM32WBxx_HAL_Driver/Inc/stm32wbxx_ll_bus.h ****   *         AHB1ENR      DMAMUX1EN      LL_AHB1_GRP1_EnableClock\n
 330:Drivers/STM32WBxx_HAL_Driver/Inc/stm32wbxx_ll_bus.h ****   *         AHB1ENR      CRCEN         LL_AHB1_GRP1_EnableClock\n
 331:Drivers/STM32WBxx_HAL_Driver/Inc/stm32wbxx_ll_bus.h ****   *         AHB1ENR      TSCEN         LL_AHB1_GRP1_EnableClock
 332:Drivers/STM32WBxx_HAL_Driver/Inc/stm32wbxx_ll_bus.h ****   * @param  Periphs This parameter can be a combination of the following values:
 333:Drivers/STM32WBxx_HAL_Driver/Inc/stm32wbxx_ll_bus.h ****   *         @arg @ref LL_AHB1_GRP1_PERIPH_DMA1
 334:Drivers/STM32WBxx_HAL_Driver/Inc/stm32wbxx_ll_bus.h ****   *         @arg @ref LL_AHB1_GRP1_PERIPH_DMA2
 335:Drivers/STM32WBxx_HAL_Driver/Inc/stm32wbxx_ll_bus.h ****   *         @arg @ref LL_AHB1_GRP1_PERIPH_DMAMUX1
 336:Drivers/STM32WBxx_HAL_Driver/Inc/stm32wbxx_ll_bus.h ****   *         @arg @ref LL_AHB1_GRP1_PERIPH_CRC
 337:Drivers/STM32WBxx_HAL_Driver/Inc/stm32wbxx_ll_bus.h ****   *         @arg @ref LL_AHB1_GRP1_PERIPH_TSC
 338:Drivers/STM32WBxx_HAL_Driver/Inc/stm32wbxx_ll_bus.h ****   * @retval None
 339:Drivers/STM32WBxx_HAL_Driver/Inc/stm32wbxx_ll_bus.h **** */
 340:Drivers/STM32WBxx_HAL_Driver/Inc/stm32wbxx_ll_bus.h **** __STATIC_INLINE void LL_AHB1_GRP1_EnableClock(uint32_t Periphs)
 341:Drivers/STM32WBxx_HAL_Driver/Inc/stm32wbxx_ll_bus.h **** {
 342:Drivers/STM32WBxx_HAL_Driver/Inc/stm32wbxx_ll_bus.h ****   __IO uint32_t tmpreg;
 343:Drivers/STM32WBxx_HAL_Driver/Inc/stm32wbxx_ll_bus.h ****   SET_BIT(RCC->AHB1ENR, Periphs);
 344:Drivers/STM32WBxx_HAL_Driver/Inc/stm32wbxx_ll_bus.h ****   /* Delay after an RCC peripheral clock enabling */
 345:Drivers/STM32WBxx_HAL_Driver/Inc/stm32wbxx_ll_bus.h ****   tmpreg = READ_BIT(RCC->AHB1ENR, Periphs);
 346:Drivers/STM32WBxx_HAL_Driver/Inc/stm32wbxx_ll_bus.h ****   (void)tmpreg;
ARM GAS  /tmp/ccL4sKcp.s 			page 24


 347:Drivers/STM32WBxx_HAL_Driver/Inc/stm32wbxx_ll_bus.h **** }
 348:Drivers/STM32WBxx_HAL_Driver/Inc/stm32wbxx_ll_bus.h **** 
 349:Drivers/STM32WBxx_HAL_Driver/Inc/stm32wbxx_ll_bus.h **** /**
 350:Drivers/STM32WBxx_HAL_Driver/Inc/stm32wbxx_ll_bus.h ****   * @brief  Check if AHB1 peripheral clock is enabled or not
 351:Drivers/STM32WBxx_HAL_Driver/Inc/stm32wbxx_ll_bus.h ****   * @rmtoll AHB1ENR      DMA1EN        LL_AHB1_GRP1_IsEnabledClock\n
 352:Drivers/STM32WBxx_HAL_Driver/Inc/stm32wbxx_ll_bus.h ****   *         AHB1ENR      DMA2EN        LL_AHB1_GRP1_IsEnabledClock\n
 353:Drivers/STM32WBxx_HAL_Driver/Inc/stm32wbxx_ll_bus.h ****   *         AHB1ENR      DMAMUX1EN      LL_AHB1_GRP1_IsEnabledClock\n
 354:Drivers/STM32WBxx_HAL_Driver/Inc/stm32wbxx_ll_bus.h ****   *         AHB1ENR      CRCEN         LL_AHB1_GRP1_IsEnabledClock\n
 355:Drivers/STM32WBxx_HAL_Driver/Inc/stm32wbxx_ll_bus.h ****   *         AHB1ENR      TSCEN         LL_AHB1_GRP1_IsEnabledClock
 356:Drivers/STM32WBxx_HAL_Driver/Inc/stm32wbxx_ll_bus.h ****   * @param  Periphs This parameter can be a combination of the following values:
 357:Drivers/STM32WBxx_HAL_Driver/Inc/stm32wbxx_ll_bus.h ****   *         @arg @ref LL_AHB1_GRP1_PERIPH_DMA1
 358:Drivers/STM32WBxx_HAL_Driver/Inc/stm32wbxx_ll_bus.h ****   *         @arg @ref LL_AHB1_GRP1_PERIPH_DMA2
 359:Drivers/STM32WBxx_HAL_Driver/Inc/stm32wbxx_ll_bus.h ****   *         @arg @ref LL_AHB1_GRP1_PERIPH_DMAMUX1
 360:Drivers/STM32WBxx_HAL_Driver/Inc/stm32wbxx_ll_bus.h ****   *         @arg @ref LL_AHB1_GRP1_PERIPH_CRC
 361:Drivers/STM32WBxx_HAL_Driver/Inc/stm32wbxx_ll_bus.h ****   *         @arg @ref LL_AHB1_GRP1_PERIPH_TSC
 362:Drivers/STM32WBxx_HAL_Driver/Inc/stm32wbxx_ll_bus.h ****   * @retval uint32_t
 363:Drivers/STM32WBxx_HAL_Driver/Inc/stm32wbxx_ll_bus.h **** */
 364:Drivers/STM32WBxx_HAL_Driver/Inc/stm32wbxx_ll_bus.h **** __STATIC_INLINE uint32_t LL_AHB1_GRP1_IsEnabledClock(uint32_t Periphs)
 365:Drivers/STM32WBxx_HAL_Driver/Inc/stm32wbxx_ll_bus.h **** {
 366:Drivers/STM32WBxx_HAL_Driver/Inc/stm32wbxx_ll_bus.h ****   return ((READ_BIT(RCC->AHB1ENR, Periphs) == (Periphs)) ? 1UL : 0UL);
 367:Drivers/STM32WBxx_HAL_Driver/Inc/stm32wbxx_ll_bus.h **** }
 368:Drivers/STM32WBxx_HAL_Driver/Inc/stm32wbxx_ll_bus.h **** 
 369:Drivers/STM32WBxx_HAL_Driver/Inc/stm32wbxx_ll_bus.h **** /**
 370:Drivers/STM32WBxx_HAL_Driver/Inc/stm32wbxx_ll_bus.h ****   * @brief  Disable AHB1 peripherals clock.
 371:Drivers/STM32WBxx_HAL_Driver/Inc/stm32wbxx_ll_bus.h ****   * @rmtoll AHB1ENR      DMA1EN        LL_AHB1_GRP1_DisableClock\n
 372:Drivers/STM32WBxx_HAL_Driver/Inc/stm32wbxx_ll_bus.h ****   *         AHB1ENR      DMA2EN        LL_AHB1_GRP1_DisableClock\n
 373:Drivers/STM32WBxx_HAL_Driver/Inc/stm32wbxx_ll_bus.h ****   *         AHB1ENR      DMAMUX1EN      LL_AHB1_GRP1_DisableClock\n
 374:Drivers/STM32WBxx_HAL_Driver/Inc/stm32wbxx_ll_bus.h ****   *         AHB1ENR      CRCEN         LL_AHB1_GRP1_DisableClock\n
 375:Drivers/STM32WBxx_HAL_Driver/Inc/stm32wbxx_ll_bus.h ****   *         AHB1ENR      TSCEN         LL_AHB1_GRP1_DisableClock
 376:Drivers/STM32WBxx_HAL_Driver/Inc/stm32wbxx_ll_bus.h ****   * @param  Periphs This parameter can be a combination of the following values:
 377:Drivers/STM32WBxx_HAL_Driver/Inc/stm32wbxx_ll_bus.h ****   *         @arg @ref LL_AHB1_GRP1_PERIPH_DMA1
 378:Drivers/STM32WBxx_HAL_Driver/Inc/stm32wbxx_ll_bus.h ****   *         @arg @ref LL_AHB1_GRP1_PERIPH_DMA2
 379:Drivers/STM32WBxx_HAL_Driver/Inc/stm32wbxx_ll_bus.h ****   *         @arg @ref LL_AHB1_GRP1_PERIPH_DMAMUX1
 380:Drivers/STM32WBxx_HAL_Driver/Inc/stm32wbxx_ll_bus.h ****   *         @arg @ref LL_AHB1_GRP1_PERIPH_CRC
 381:Drivers/STM32WBxx_HAL_Driver/Inc/stm32wbxx_ll_bus.h ****   *         @arg @ref LL_AHB1_GRP1_PERIPH_TSC
 382:Drivers/STM32WBxx_HAL_Driver/Inc/stm32wbxx_ll_bus.h ****   * @retval None
 383:Drivers/STM32WBxx_HAL_Driver/Inc/stm32wbxx_ll_bus.h **** */
 384:Drivers/STM32WBxx_HAL_Driver/Inc/stm32wbxx_ll_bus.h **** __STATIC_INLINE void LL_AHB1_GRP1_DisableClock(uint32_t Periphs)
 385:Drivers/STM32WBxx_HAL_Driver/Inc/stm32wbxx_ll_bus.h **** {
 386:Drivers/STM32WBxx_HAL_Driver/Inc/stm32wbxx_ll_bus.h ****   CLEAR_BIT(RCC->AHB1ENR, Periphs);
 387:Drivers/STM32WBxx_HAL_Driver/Inc/stm32wbxx_ll_bus.h **** }
 388:Drivers/STM32WBxx_HAL_Driver/Inc/stm32wbxx_ll_bus.h **** 
 389:Drivers/STM32WBxx_HAL_Driver/Inc/stm32wbxx_ll_bus.h **** /**
 390:Drivers/STM32WBxx_HAL_Driver/Inc/stm32wbxx_ll_bus.h ****   * @brief  Force AHB1 peripherals reset.
 391:Drivers/STM32WBxx_HAL_Driver/Inc/stm32wbxx_ll_bus.h ****   * @rmtoll AHB1RSTR     DMA1RST       LL_AHB1_GRP1_ForceReset\n
 392:Drivers/STM32WBxx_HAL_Driver/Inc/stm32wbxx_ll_bus.h ****   *         AHB1RSTR     DMA2RST       LL_AHB1_GRP1_ForceReset\n
 393:Drivers/STM32WBxx_HAL_Driver/Inc/stm32wbxx_ll_bus.h ****   *         AHB1RSTR     DMAMUX1RST     LL_AHB1_GRP1_ForceReset\n
 394:Drivers/STM32WBxx_HAL_Driver/Inc/stm32wbxx_ll_bus.h ****   *         AHB1RSTR     CRCRST        LL_AHB1_GRP1_ForceReset\n
 395:Drivers/STM32WBxx_HAL_Driver/Inc/stm32wbxx_ll_bus.h ****   *         AHB1RSTR     TSCRST        LL_AHB1_GRP1_ForceReset
 396:Drivers/STM32WBxx_HAL_Driver/Inc/stm32wbxx_ll_bus.h ****   * @param  Periphs This parameter can be a combination of the following values:
 397:Drivers/STM32WBxx_HAL_Driver/Inc/stm32wbxx_ll_bus.h ****   *         @arg @ref LL_AHB1_GRP1_PERIPH_ALL
 398:Drivers/STM32WBxx_HAL_Driver/Inc/stm32wbxx_ll_bus.h ****   *         @arg @ref LL_AHB1_GRP1_PERIPH_DMA1
 399:Drivers/STM32WBxx_HAL_Driver/Inc/stm32wbxx_ll_bus.h ****   *         @arg @ref LL_AHB1_GRP1_PERIPH_DMA2
 400:Drivers/STM32WBxx_HAL_Driver/Inc/stm32wbxx_ll_bus.h ****   *         @arg @ref LL_AHB1_GRP1_PERIPH_DMAMUX1
 401:Drivers/STM32WBxx_HAL_Driver/Inc/stm32wbxx_ll_bus.h ****   *         @arg @ref LL_AHB1_GRP1_PERIPH_CRC
 402:Drivers/STM32WBxx_HAL_Driver/Inc/stm32wbxx_ll_bus.h ****   *         @arg @ref LL_AHB1_GRP1_PERIPH_TSC
 403:Drivers/STM32WBxx_HAL_Driver/Inc/stm32wbxx_ll_bus.h ****   * @retval None
ARM GAS  /tmp/ccL4sKcp.s 			page 25


 404:Drivers/STM32WBxx_HAL_Driver/Inc/stm32wbxx_ll_bus.h **** */
 405:Drivers/STM32WBxx_HAL_Driver/Inc/stm32wbxx_ll_bus.h **** __STATIC_INLINE void LL_AHB1_GRP1_ForceReset(uint32_t Periphs)
 406:Drivers/STM32WBxx_HAL_Driver/Inc/stm32wbxx_ll_bus.h **** {
 407:Drivers/STM32WBxx_HAL_Driver/Inc/stm32wbxx_ll_bus.h ****   SET_BIT(RCC->AHB1RSTR, Periphs);
 408:Drivers/STM32WBxx_HAL_Driver/Inc/stm32wbxx_ll_bus.h **** }
 409:Drivers/STM32WBxx_HAL_Driver/Inc/stm32wbxx_ll_bus.h **** 
 410:Drivers/STM32WBxx_HAL_Driver/Inc/stm32wbxx_ll_bus.h **** /**
 411:Drivers/STM32WBxx_HAL_Driver/Inc/stm32wbxx_ll_bus.h ****   * @brief  Release AHB1 peripherals reset.
 412:Drivers/STM32WBxx_HAL_Driver/Inc/stm32wbxx_ll_bus.h ****   * @rmtoll AHB1RSTR     DMA1RST       LL_AHB1_GRP1_ReleaseReset\n
 413:Drivers/STM32WBxx_HAL_Driver/Inc/stm32wbxx_ll_bus.h ****   *         AHB1RSTR     DMA2RST       LL_AHB1_GRP1_ReleaseReset\n
 414:Drivers/STM32WBxx_HAL_Driver/Inc/stm32wbxx_ll_bus.h ****   *         AHB1RSTR     DMAMUX1RST     LL_AHB1_GRP1_ReleaseReset\n
 415:Drivers/STM32WBxx_HAL_Driver/Inc/stm32wbxx_ll_bus.h ****   *         AHB1RSTR     CRCRST        LL_AHB1_GRP1_ReleaseReset\n
 416:Drivers/STM32WBxx_HAL_Driver/Inc/stm32wbxx_ll_bus.h ****   *         AHB1RSTR     TSCRST        LL_AHB1_GRP1_ReleaseReset
 417:Drivers/STM32WBxx_HAL_Driver/Inc/stm32wbxx_ll_bus.h ****   * @param  Periphs This parameter can be a combination of the following values:
 418:Drivers/STM32WBxx_HAL_Driver/Inc/stm32wbxx_ll_bus.h ****   *         @arg @ref LL_AHB1_GRP1_PERIPH_ALL
 419:Drivers/STM32WBxx_HAL_Driver/Inc/stm32wbxx_ll_bus.h ****   *         @arg @ref LL_AHB1_GRP1_PERIPH_DMA1
 420:Drivers/STM32WBxx_HAL_Driver/Inc/stm32wbxx_ll_bus.h ****   *         @arg @ref LL_AHB1_GRP1_PERIPH_DMA2
 421:Drivers/STM32WBxx_HAL_Driver/Inc/stm32wbxx_ll_bus.h ****   *         @arg @ref LL_AHB1_GRP1_PERIPH_DMAMUX1
 422:Drivers/STM32WBxx_HAL_Driver/Inc/stm32wbxx_ll_bus.h ****   *         @arg @ref LL_AHB1_GRP1_PERIPH_CRC
 423:Drivers/STM32WBxx_HAL_Driver/Inc/stm32wbxx_ll_bus.h ****   *         @arg @ref LL_AHB1_GRP1_PERIPH_TSC
 424:Drivers/STM32WBxx_HAL_Driver/Inc/stm32wbxx_ll_bus.h ****   * @retval None
 425:Drivers/STM32WBxx_HAL_Driver/Inc/stm32wbxx_ll_bus.h **** */
 426:Drivers/STM32WBxx_HAL_Driver/Inc/stm32wbxx_ll_bus.h **** __STATIC_INLINE void LL_AHB1_GRP1_ReleaseReset(uint32_t Periphs)
 427:Drivers/STM32WBxx_HAL_Driver/Inc/stm32wbxx_ll_bus.h **** {
 428:Drivers/STM32WBxx_HAL_Driver/Inc/stm32wbxx_ll_bus.h ****   CLEAR_BIT(RCC->AHB1RSTR, Periphs);
 429:Drivers/STM32WBxx_HAL_Driver/Inc/stm32wbxx_ll_bus.h **** }
 430:Drivers/STM32WBxx_HAL_Driver/Inc/stm32wbxx_ll_bus.h **** 
 431:Drivers/STM32WBxx_HAL_Driver/Inc/stm32wbxx_ll_bus.h **** /**
 432:Drivers/STM32WBxx_HAL_Driver/Inc/stm32wbxx_ll_bus.h ****   * @brief  Enable AHB1 peripherals clock during Low Power (Sleep) mode.
 433:Drivers/STM32WBxx_HAL_Driver/Inc/stm32wbxx_ll_bus.h ****   * @rmtoll AHB1SMENR    DMA1SMEN      LL_AHB1_GRP1_EnableClockSleep\n
 434:Drivers/STM32WBxx_HAL_Driver/Inc/stm32wbxx_ll_bus.h ****   *         AHB1SMENR    DMA2SMEN      LL_AHB1_GRP1_EnableClockSleep\n
 435:Drivers/STM32WBxx_HAL_Driver/Inc/stm32wbxx_ll_bus.h ****   *         AHB1SMENR    DMAMUX1SMEN    LL_AHB1_GRP1_EnableClockSleep\n
 436:Drivers/STM32WBxx_HAL_Driver/Inc/stm32wbxx_ll_bus.h ****   *         AHB1SMENR    SRAM1SMEN     LL_AHB1_GRP1_EnableClockSleep\n
 437:Drivers/STM32WBxx_HAL_Driver/Inc/stm32wbxx_ll_bus.h ****   *         AHB1SMENR    CRCSMEN       LL_AHB1_GRP1_EnableClockSleep\n
 438:Drivers/STM32WBxx_HAL_Driver/Inc/stm32wbxx_ll_bus.h ****   *         AHB1SMENR    TSCSMEN       LL_AHB1_GRP1_EnableClockSleep
 439:Drivers/STM32WBxx_HAL_Driver/Inc/stm32wbxx_ll_bus.h ****   * @param  Periphs This parameter can be a combination of the following values:
 440:Drivers/STM32WBxx_HAL_Driver/Inc/stm32wbxx_ll_bus.h ****   *         @arg @ref LL_AHB1_GRP1_PERIPH_DMA1
 441:Drivers/STM32WBxx_HAL_Driver/Inc/stm32wbxx_ll_bus.h ****   *         @arg @ref LL_AHB1_GRP1_PERIPH_DMA2
 442:Drivers/STM32WBxx_HAL_Driver/Inc/stm32wbxx_ll_bus.h ****   *         @arg @ref LL_AHB1_GRP1_PERIPH_DMAMUX1
 443:Drivers/STM32WBxx_HAL_Driver/Inc/stm32wbxx_ll_bus.h ****   *         @arg @ref LL_AHB1_GRP1_PERIPH_SRAM1
 444:Drivers/STM32WBxx_HAL_Driver/Inc/stm32wbxx_ll_bus.h ****   *         @arg @ref LL_AHB1_GRP1_PERIPH_CRC
 445:Drivers/STM32WBxx_HAL_Driver/Inc/stm32wbxx_ll_bus.h ****   *         @arg @ref LL_AHB1_GRP1_PERIPH_TSC
 446:Drivers/STM32WBxx_HAL_Driver/Inc/stm32wbxx_ll_bus.h ****   * @retval None
 447:Drivers/STM32WBxx_HAL_Driver/Inc/stm32wbxx_ll_bus.h **** */
 448:Drivers/STM32WBxx_HAL_Driver/Inc/stm32wbxx_ll_bus.h **** __STATIC_INLINE void LL_AHB1_GRP1_EnableClockSleep(uint32_t Periphs)
 449:Drivers/STM32WBxx_HAL_Driver/Inc/stm32wbxx_ll_bus.h **** {
 450:Drivers/STM32WBxx_HAL_Driver/Inc/stm32wbxx_ll_bus.h ****   __IO uint32_t tmpreg;
 451:Drivers/STM32WBxx_HAL_Driver/Inc/stm32wbxx_ll_bus.h ****   SET_BIT(RCC->AHB1SMENR, Periphs);
 452:Drivers/STM32WBxx_HAL_Driver/Inc/stm32wbxx_ll_bus.h ****   /* Delay after an RCC peripheral clock enabling */
 453:Drivers/STM32WBxx_HAL_Driver/Inc/stm32wbxx_ll_bus.h ****   tmpreg = READ_BIT(RCC->AHB1SMENR, Periphs);
 454:Drivers/STM32WBxx_HAL_Driver/Inc/stm32wbxx_ll_bus.h ****   (void)tmpreg;
 455:Drivers/STM32WBxx_HAL_Driver/Inc/stm32wbxx_ll_bus.h **** }
 456:Drivers/STM32WBxx_HAL_Driver/Inc/stm32wbxx_ll_bus.h **** 
 457:Drivers/STM32WBxx_HAL_Driver/Inc/stm32wbxx_ll_bus.h **** /**
 458:Drivers/STM32WBxx_HAL_Driver/Inc/stm32wbxx_ll_bus.h ****   * @brief  Disable AHB1 peripherals clock during Low Power (Sleep) mode.
 459:Drivers/STM32WBxx_HAL_Driver/Inc/stm32wbxx_ll_bus.h ****   * @rmtoll AHB1SMENR    DMA1SMEN      LL_AHB1_GRP1_DisableClockSleep\n
 460:Drivers/STM32WBxx_HAL_Driver/Inc/stm32wbxx_ll_bus.h ****   *         AHB1SMENR    DMA2SMEN      LL_AHB1_GRP1_DisableClockSleep\n
ARM GAS  /tmp/ccL4sKcp.s 			page 26


 461:Drivers/STM32WBxx_HAL_Driver/Inc/stm32wbxx_ll_bus.h ****   *         AHB1SMENR    DMAMUX1SMEN    LL_AHB1_GRP1_DisableClockSleep\n
 462:Drivers/STM32WBxx_HAL_Driver/Inc/stm32wbxx_ll_bus.h ****   *         AHB1SMENR    SRAM1SMEN     LL_AHB1_GRP1_DisableClockSleep\n
 463:Drivers/STM32WBxx_HAL_Driver/Inc/stm32wbxx_ll_bus.h ****   *         AHB1SMENR    CRCSMEN       LL_AHB1_GRP1_DisableClockSleep\n
 464:Drivers/STM32WBxx_HAL_Driver/Inc/stm32wbxx_ll_bus.h ****   *         AHB1SMENR    TSCSMEN       LL_AHB1_GRP1_DisableClockSleep
 465:Drivers/STM32WBxx_HAL_Driver/Inc/stm32wbxx_ll_bus.h ****   * @param  Periphs This parameter can be a combination of the following values:
 466:Drivers/STM32WBxx_HAL_Driver/Inc/stm32wbxx_ll_bus.h ****   *         @arg @ref LL_AHB1_GRP1_PERIPH_DMA1
 467:Drivers/STM32WBxx_HAL_Driver/Inc/stm32wbxx_ll_bus.h ****   *         @arg @ref LL_AHB1_GRP1_PERIPH_DMA2
 468:Drivers/STM32WBxx_HAL_Driver/Inc/stm32wbxx_ll_bus.h ****   *         @arg @ref LL_AHB1_GRP1_PERIPH_DMAMUX1
 469:Drivers/STM32WBxx_HAL_Driver/Inc/stm32wbxx_ll_bus.h ****   *         @arg @ref LL_AHB1_GRP1_PERIPH_SRAM1
 470:Drivers/STM32WBxx_HAL_Driver/Inc/stm32wbxx_ll_bus.h ****   *         @arg @ref LL_AHB1_GRP1_PERIPH_CRC
 471:Drivers/STM32WBxx_HAL_Driver/Inc/stm32wbxx_ll_bus.h ****   *         @arg @ref LL_AHB1_GRP1_PERIPH_TSC
 472:Drivers/STM32WBxx_HAL_Driver/Inc/stm32wbxx_ll_bus.h ****   * @retval None
 473:Drivers/STM32WBxx_HAL_Driver/Inc/stm32wbxx_ll_bus.h **** */
 474:Drivers/STM32WBxx_HAL_Driver/Inc/stm32wbxx_ll_bus.h **** __STATIC_INLINE void LL_AHB1_GRP1_DisableClockSleep(uint32_t Periphs)
 475:Drivers/STM32WBxx_HAL_Driver/Inc/stm32wbxx_ll_bus.h **** {
 476:Drivers/STM32WBxx_HAL_Driver/Inc/stm32wbxx_ll_bus.h ****   CLEAR_BIT(RCC->AHB1SMENR, Periphs);
 477:Drivers/STM32WBxx_HAL_Driver/Inc/stm32wbxx_ll_bus.h **** }
 478:Drivers/STM32WBxx_HAL_Driver/Inc/stm32wbxx_ll_bus.h **** 
 479:Drivers/STM32WBxx_HAL_Driver/Inc/stm32wbxx_ll_bus.h **** /**
 480:Drivers/STM32WBxx_HAL_Driver/Inc/stm32wbxx_ll_bus.h ****   * @}
 481:Drivers/STM32WBxx_HAL_Driver/Inc/stm32wbxx_ll_bus.h ****   */
 482:Drivers/STM32WBxx_HAL_Driver/Inc/stm32wbxx_ll_bus.h **** 
 483:Drivers/STM32WBxx_HAL_Driver/Inc/stm32wbxx_ll_bus.h **** /** @defgroup BUS_LL_EF_AHB2 AHB2
 484:Drivers/STM32WBxx_HAL_Driver/Inc/stm32wbxx_ll_bus.h ****   * @{
 485:Drivers/STM32WBxx_HAL_Driver/Inc/stm32wbxx_ll_bus.h ****   */
 486:Drivers/STM32WBxx_HAL_Driver/Inc/stm32wbxx_ll_bus.h **** 
 487:Drivers/STM32WBxx_HAL_Driver/Inc/stm32wbxx_ll_bus.h **** /**
 488:Drivers/STM32WBxx_HAL_Driver/Inc/stm32wbxx_ll_bus.h ****   * @brief  Enable AHB2 peripherals clock.
 489:Drivers/STM32WBxx_HAL_Driver/Inc/stm32wbxx_ll_bus.h ****   * @rmtoll AHB2ENR      GPIOAEN       LL_AHB2_GRP1_EnableClock\n
 490:Drivers/STM32WBxx_HAL_Driver/Inc/stm32wbxx_ll_bus.h ****   *         AHB2ENR      GPIOBEN       LL_AHB2_GRP1_EnableClock\n
 491:Drivers/STM32WBxx_HAL_Driver/Inc/stm32wbxx_ll_bus.h ****   *         AHB2ENR      GPIOCEN       LL_AHB2_GRP1_EnableClock\n
 492:Drivers/STM32WBxx_HAL_Driver/Inc/stm32wbxx_ll_bus.h ****   *         AHB2ENR      GPIODEN       LL_AHB2_GRP1_EnableClock\n
 493:Drivers/STM32WBxx_HAL_Driver/Inc/stm32wbxx_ll_bus.h ****   *         AHB2ENR      GPIOEEN       LL_AHB2_GRP1_EnableClock\n
 494:Drivers/STM32WBxx_HAL_Driver/Inc/stm32wbxx_ll_bus.h ****   *         AHB2ENR      GPIOHEN       LL_AHB2_GRP1_EnableClock\n
 495:Drivers/STM32WBxx_HAL_Driver/Inc/stm32wbxx_ll_bus.h ****   *         AHB2ENR      ADCEN         LL_AHB2_GRP1_EnableClock\n
 496:Drivers/STM32WBxx_HAL_Driver/Inc/stm32wbxx_ll_bus.h ****   *         AHB2ENR      AES1EN        LL_AHB2_GRP1_EnableClock
 497:Drivers/STM32WBxx_HAL_Driver/Inc/stm32wbxx_ll_bus.h ****   * @param  Periphs This parameter can be a combination of the following values:
 498:Drivers/STM32WBxx_HAL_Driver/Inc/stm32wbxx_ll_bus.h ****   *         @arg @ref LL_AHB2_GRP1_PERIPH_GPIOA
 499:Drivers/STM32WBxx_HAL_Driver/Inc/stm32wbxx_ll_bus.h ****   *         @arg @ref LL_AHB2_GRP1_PERIPH_GPIOB
 500:Drivers/STM32WBxx_HAL_Driver/Inc/stm32wbxx_ll_bus.h ****   *         @arg @ref LL_AHB2_GRP1_PERIPH_GPIOC
 501:Drivers/STM32WBxx_HAL_Driver/Inc/stm32wbxx_ll_bus.h ****   *         @arg @ref LL_AHB2_GRP1_PERIPH_GPIOD
 502:Drivers/STM32WBxx_HAL_Driver/Inc/stm32wbxx_ll_bus.h ****   *         @arg @ref LL_AHB2_GRP1_PERIPH_GPIOE
 503:Drivers/STM32WBxx_HAL_Driver/Inc/stm32wbxx_ll_bus.h ****   *         @arg @ref LL_AHB2_GRP1_PERIPH_GPIOH
 504:Drivers/STM32WBxx_HAL_Driver/Inc/stm32wbxx_ll_bus.h ****   *         @arg @ref LL_AHB2_GRP1_PERIPH_ADC
 505:Drivers/STM32WBxx_HAL_Driver/Inc/stm32wbxx_ll_bus.h ****   *         @arg @ref LL_AHB2_GRP1_PERIPH_AES1
 506:Drivers/STM32WBxx_HAL_Driver/Inc/stm32wbxx_ll_bus.h ****   * @retval None
 507:Drivers/STM32WBxx_HAL_Driver/Inc/stm32wbxx_ll_bus.h **** */
 508:Drivers/STM32WBxx_HAL_Driver/Inc/stm32wbxx_ll_bus.h **** __STATIC_INLINE void LL_AHB2_GRP1_EnableClock(uint32_t Periphs)
 148              		.loc 2 508 22 view .LVU22
 149              	.LBB9:
 509:Drivers/STM32WBxx_HAL_Driver/Inc/stm32wbxx_ll_bus.h **** {
 510:Drivers/STM32WBxx_HAL_Driver/Inc/stm32wbxx_ll_bus.h ****   __IO uint32_t tmpreg;
 150              		.loc 2 510 3 view .LVU23
 511:Drivers/STM32WBxx_HAL_Driver/Inc/stm32wbxx_ll_bus.h ****   SET_BIT(RCC->AHB2ENR, Periphs);
 151              		.loc 2 511 3 view .LVU24
 152 001c 4FF0B044 		mov	r4, #1476395008
 153 0020 E36C     		ldr	r3, [r4, #76]
ARM GAS  /tmp/ccL4sKcp.s 			page 27


 154 0022 43F00103 		orr	r3, r3, #1
 155 0026 E364     		str	r3, [r4, #76]
 512:Drivers/STM32WBxx_HAL_Driver/Inc/stm32wbxx_ll_bus.h ****   /* Delay after an RCC peripheral clock enabling */
 513:Drivers/STM32WBxx_HAL_Driver/Inc/stm32wbxx_ll_bus.h ****   tmpreg = READ_BIT(RCC->AHB2ENR, Periphs);
 156              		.loc 2 513 3 view .LVU25
 157              		.loc 2 513 12 is_stmt 0 view .LVU26
 158 0028 E36C     		ldr	r3, [r4, #76]
 159 002a 03F00103 		and	r3, r3, #1
 160              		.loc 2 513 10 view .LVU27
 161 002e 0293     		str	r3, [sp, #8]
 514:Drivers/STM32WBxx_HAL_Driver/Inc/stm32wbxx_ll_bus.h ****   (void)tmpreg;
 162              		.loc 2 514 3 is_stmt 1 view .LVU28
 163 0030 029B     		ldr	r3, [sp, #8]
 164              	.LVL9:
 165              		.loc 2 514 3 is_stmt 0 view .LVU29
 166              	.LBE9:
 167              	.LBE8:
  88:Src/usbd_conf.c ****     GPIO_InitStruct.Mode = GPIO_MODE_AF_PP;
 168              		.loc 1 88 5 is_stmt 1 view .LVU30
  88:Src/usbd_conf.c ****     GPIO_InitStruct.Mode = GPIO_MODE_AF_PP;
 169              		.loc 1 88 25 is_stmt 0 view .LVU31
 170 0032 4FF4C053 		mov	r3, #6144
 171 0036 0393     		str	r3, [sp, #12]
  89:Src/usbd_conf.c ****     GPIO_InitStruct.Pull = GPIO_NOPULL;
 172              		.loc 1 89 5 is_stmt 1 view .LVU32
  89:Src/usbd_conf.c ****     GPIO_InitStruct.Pull = GPIO_NOPULL;
 173              		.loc 1 89 26 is_stmt 0 view .LVU33
 174 0038 0223     		movs	r3, #2
 175 003a 0493     		str	r3, [sp, #16]
  90:Src/usbd_conf.c ****     GPIO_InitStruct.Speed = GPIO_SPEED_FREQ_LOW;
 176              		.loc 1 90 5 is_stmt 1 view .LVU34
  90:Src/usbd_conf.c ****     GPIO_InitStruct.Speed = GPIO_SPEED_FREQ_LOW;
 177              		.loc 1 90 26 is_stmt 0 view .LVU35
 178 003c 0025     		movs	r5, #0
 179 003e 0595     		str	r5, [sp, #20]
  91:Src/usbd_conf.c ****     GPIO_InitStruct.Alternate = GPIO_AF10_USB;
 180              		.loc 1 91 5 is_stmt 1 view .LVU36
  91:Src/usbd_conf.c ****     GPIO_InitStruct.Alternate = GPIO_AF10_USB;
 181              		.loc 1 91 27 is_stmt 0 view .LVU37
 182 0040 0695     		str	r5, [sp, #24]
  92:Src/usbd_conf.c ****     HAL_GPIO_Init(GPIOA, &GPIO_InitStruct);
 183              		.loc 1 92 5 is_stmt 1 view .LVU38
  92:Src/usbd_conf.c ****     HAL_GPIO_Init(GPIOA, &GPIO_InitStruct);
 184              		.loc 1 92 31 is_stmt 0 view .LVU39
 185 0042 0A23     		movs	r3, #10
 186 0044 0793     		str	r3, [sp, #28]
  93:Src/usbd_conf.c **** 
 187              		.loc 1 93 5 is_stmt 1 view .LVU40
 188 0046 03A9     		add	r1, sp, #12
 189 0048 4FF09040 		mov	r0, #1207959552
 190              	.LVL10:
  93:Src/usbd_conf.c **** 
 191              		.loc 1 93 5 is_stmt 0 view .LVU41
 192 004c FFF7FEFF 		bl	HAL_GPIO_Init
 193              	.LVL11:
  96:Src/usbd_conf.c **** 
 194              		.loc 1 96 5 is_stmt 1 view .LVU42
ARM GAS  /tmp/ccL4sKcp.s 			page 28


 195              	.LBB10:
 196              	.LBI10:
 515:Drivers/STM32WBxx_HAL_Driver/Inc/stm32wbxx_ll_bus.h **** }
 516:Drivers/STM32WBxx_HAL_Driver/Inc/stm32wbxx_ll_bus.h **** 
 517:Drivers/STM32WBxx_HAL_Driver/Inc/stm32wbxx_ll_bus.h **** /**
 518:Drivers/STM32WBxx_HAL_Driver/Inc/stm32wbxx_ll_bus.h ****   * @brief  Check if AHB2 peripheral clock is enabled or not
 519:Drivers/STM32WBxx_HAL_Driver/Inc/stm32wbxx_ll_bus.h ****   * @rmtoll AHB2ENR      GPIOAEN       LL_AHB2_GRP1_IsEnabledClock\n
 520:Drivers/STM32WBxx_HAL_Driver/Inc/stm32wbxx_ll_bus.h ****   *         AHB2ENR      GPIOBEN       LL_AHB2_GRP1_IsEnabledClock\n
 521:Drivers/STM32WBxx_HAL_Driver/Inc/stm32wbxx_ll_bus.h ****   *         AHB2ENR      GPIOCEN       LL_AHB2_GRP1_IsEnabledClock\n
 522:Drivers/STM32WBxx_HAL_Driver/Inc/stm32wbxx_ll_bus.h ****   *         AHB2ENR      GPIODEN       LL_AHB2_GRP1_IsEnabledClock\n
 523:Drivers/STM32WBxx_HAL_Driver/Inc/stm32wbxx_ll_bus.h ****   *         AHB2ENR      GPIOEEN       LL_AHB2_GRP1_IsEnabledClock\n
 524:Drivers/STM32WBxx_HAL_Driver/Inc/stm32wbxx_ll_bus.h ****   *         AHB2ENR      GPIOHEN       LL_AHB2_GRP1_IsEnabledClock\n
 525:Drivers/STM32WBxx_HAL_Driver/Inc/stm32wbxx_ll_bus.h ****   *         AHB2ENR      ADCEN         LL_AHB2_GRP1_IsEnabledClock\n
 526:Drivers/STM32WBxx_HAL_Driver/Inc/stm32wbxx_ll_bus.h ****   *         AHB2ENR      AES1EN        LL_AHB2_GRP1_IsEnabledClock
 527:Drivers/STM32WBxx_HAL_Driver/Inc/stm32wbxx_ll_bus.h ****   * @param  Periphs This parameter can be a combination of the following values:
 528:Drivers/STM32WBxx_HAL_Driver/Inc/stm32wbxx_ll_bus.h ****   *         @arg @ref LL_AHB2_GRP1_PERIPH_GPIOA
 529:Drivers/STM32WBxx_HAL_Driver/Inc/stm32wbxx_ll_bus.h ****   *         @arg @ref LL_AHB2_GRP1_PERIPH_GPIOB
 530:Drivers/STM32WBxx_HAL_Driver/Inc/stm32wbxx_ll_bus.h ****   *         @arg @ref LL_AHB2_GRP1_PERIPH_GPIOC
 531:Drivers/STM32WBxx_HAL_Driver/Inc/stm32wbxx_ll_bus.h ****   *         @arg @ref LL_AHB2_GRP1_PERIPH_GPIOD
 532:Drivers/STM32WBxx_HAL_Driver/Inc/stm32wbxx_ll_bus.h ****   *         @arg @ref LL_AHB2_GRP1_PERIPH_GPIOE
 533:Drivers/STM32WBxx_HAL_Driver/Inc/stm32wbxx_ll_bus.h ****   *         @arg @ref LL_AHB2_GRP1_PERIPH_GPIOH
 534:Drivers/STM32WBxx_HAL_Driver/Inc/stm32wbxx_ll_bus.h ****   *         @arg @ref LL_AHB2_GRP1_PERIPH_ADC
 535:Drivers/STM32WBxx_HAL_Driver/Inc/stm32wbxx_ll_bus.h ****   *         @arg @ref LL_AHB2_GRP1_PERIPH_AES1
 536:Drivers/STM32WBxx_HAL_Driver/Inc/stm32wbxx_ll_bus.h ****   * @retval uint32_t
 537:Drivers/STM32WBxx_HAL_Driver/Inc/stm32wbxx_ll_bus.h **** */
 538:Drivers/STM32WBxx_HAL_Driver/Inc/stm32wbxx_ll_bus.h **** __STATIC_INLINE uint32_t LL_AHB2_GRP1_IsEnabledClock(uint32_t Periphs)
 539:Drivers/STM32WBxx_HAL_Driver/Inc/stm32wbxx_ll_bus.h **** {
 540:Drivers/STM32WBxx_HAL_Driver/Inc/stm32wbxx_ll_bus.h ****   return ((READ_BIT(RCC->AHB2ENR, Periphs) == (Periphs)) ? 1UL : 0UL);
 541:Drivers/STM32WBxx_HAL_Driver/Inc/stm32wbxx_ll_bus.h **** }
 542:Drivers/STM32WBxx_HAL_Driver/Inc/stm32wbxx_ll_bus.h **** 
 543:Drivers/STM32WBxx_HAL_Driver/Inc/stm32wbxx_ll_bus.h **** /**
 544:Drivers/STM32WBxx_HAL_Driver/Inc/stm32wbxx_ll_bus.h ****   * @brief  Disable AHB2 peripherals clock.
 545:Drivers/STM32WBxx_HAL_Driver/Inc/stm32wbxx_ll_bus.h ****   * @rmtoll AHB2ENR      GPIOAEN       LL_AHB2_GRP1_DisableClock\n
 546:Drivers/STM32WBxx_HAL_Driver/Inc/stm32wbxx_ll_bus.h ****   *         AHB2ENR      GPIOBEN       LL_AHB2_GRP1_DisableClock\n
 547:Drivers/STM32WBxx_HAL_Driver/Inc/stm32wbxx_ll_bus.h ****   *         AHB2ENR      GPIOCEN       LL_AHB2_GRP1_DisableClock\n
 548:Drivers/STM32WBxx_HAL_Driver/Inc/stm32wbxx_ll_bus.h ****   *         AHB2ENR      GPIODEN       LL_AHB2_GRP1_DisableClock\n
 549:Drivers/STM32WBxx_HAL_Driver/Inc/stm32wbxx_ll_bus.h ****   *         AHB2ENR      GPIOEEN       LL_AHB2_GRP1_DisableClock\n
 550:Drivers/STM32WBxx_HAL_Driver/Inc/stm32wbxx_ll_bus.h ****   *         AHB2ENR      GPIOHEN       LL_AHB2_GRP1_DisableClock\n
 551:Drivers/STM32WBxx_HAL_Driver/Inc/stm32wbxx_ll_bus.h ****   *         AHB2ENR      ADCEN         LL_AHB2_GRP1_DisableClock\n
 552:Drivers/STM32WBxx_HAL_Driver/Inc/stm32wbxx_ll_bus.h ****   *         AHB2ENR      AES1EN        LL_AHB2_GRP1_DisableClock
 553:Drivers/STM32WBxx_HAL_Driver/Inc/stm32wbxx_ll_bus.h ****   * @param  Periphs This parameter can be a combination of the following values:
 554:Drivers/STM32WBxx_HAL_Driver/Inc/stm32wbxx_ll_bus.h ****   *         @arg @ref LL_AHB2_GRP1_PERIPH_GPIOA
 555:Drivers/STM32WBxx_HAL_Driver/Inc/stm32wbxx_ll_bus.h ****   *         @arg @ref LL_AHB2_GRP1_PERIPH_GPIOB
 556:Drivers/STM32WBxx_HAL_Driver/Inc/stm32wbxx_ll_bus.h ****   *         @arg @ref LL_AHB2_GRP1_PERIPH_GPIOC
 557:Drivers/STM32WBxx_HAL_Driver/Inc/stm32wbxx_ll_bus.h ****   *         @arg @ref LL_AHB2_GRP1_PERIPH_GPIOD
 558:Drivers/STM32WBxx_HAL_Driver/Inc/stm32wbxx_ll_bus.h ****   *         @arg @ref LL_AHB2_GRP1_PERIPH_GPIOE
 559:Drivers/STM32WBxx_HAL_Driver/Inc/stm32wbxx_ll_bus.h ****   *         @arg @ref LL_AHB2_GRP1_PERIPH_GPIOH
 560:Drivers/STM32WBxx_HAL_Driver/Inc/stm32wbxx_ll_bus.h ****   *         @arg @ref LL_AHB2_GRP1_PERIPH_ADC
 561:Drivers/STM32WBxx_HAL_Driver/Inc/stm32wbxx_ll_bus.h ****   *         @arg @ref LL_AHB2_GRP1_PERIPH_AES1
 562:Drivers/STM32WBxx_HAL_Driver/Inc/stm32wbxx_ll_bus.h ****   * @retval None
 563:Drivers/STM32WBxx_HAL_Driver/Inc/stm32wbxx_ll_bus.h **** */
 564:Drivers/STM32WBxx_HAL_Driver/Inc/stm32wbxx_ll_bus.h **** __STATIC_INLINE void LL_AHB2_GRP1_DisableClock(uint32_t Periphs)
 565:Drivers/STM32WBxx_HAL_Driver/Inc/stm32wbxx_ll_bus.h **** {
 566:Drivers/STM32WBxx_HAL_Driver/Inc/stm32wbxx_ll_bus.h ****   CLEAR_BIT(RCC->AHB2ENR, Periphs);
 567:Drivers/STM32WBxx_HAL_Driver/Inc/stm32wbxx_ll_bus.h **** }
 568:Drivers/STM32WBxx_HAL_Driver/Inc/stm32wbxx_ll_bus.h **** 
 569:Drivers/STM32WBxx_HAL_Driver/Inc/stm32wbxx_ll_bus.h **** /**
ARM GAS  /tmp/ccL4sKcp.s 			page 29


 570:Drivers/STM32WBxx_HAL_Driver/Inc/stm32wbxx_ll_bus.h ****   * @brief  Force AHB2 peripherals reset.
 571:Drivers/STM32WBxx_HAL_Driver/Inc/stm32wbxx_ll_bus.h ****   * @rmtoll AHB2RSTR     GPIOARST      LL_AHB2_GRP1_ForceReset\n
 572:Drivers/STM32WBxx_HAL_Driver/Inc/stm32wbxx_ll_bus.h ****   *         AHB2RSTR     GPIOBRST      LL_AHB2_GRP1_ForceReset\n
 573:Drivers/STM32WBxx_HAL_Driver/Inc/stm32wbxx_ll_bus.h ****   *         AHB2RSTR     GPIOCRST      LL_AHB2_GRP1_ForceReset\n
 574:Drivers/STM32WBxx_HAL_Driver/Inc/stm32wbxx_ll_bus.h ****   *         AHB2RSTR     GPIODRST      LL_AHB2_GRP1_ForceReset\n
 575:Drivers/STM32WBxx_HAL_Driver/Inc/stm32wbxx_ll_bus.h ****   *         AHB2RSTR     GPIOERST      LL_AHB2_GRP1_ForceReset\n
 576:Drivers/STM32WBxx_HAL_Driver/Inc/stm32wbxx_ll_bus.h ****   *         AHB2RSTR     GPIOHRST      LL_AHB2_GRP1_ForceReset\n
 577:Drivers/STM32WBxx_HAL_Driver/Inc/stm32wbxx_ll_bus.h ****   *         AHB2RSTR     ADCRST        LL_AHB2_GRP1_ForceReset\n
 578:Drivers/STM32WBxx_HAL_Driver/Inc/stm32wbxx_ll_bus.h ****   *         AHB2RSTR     AES1RST       LL_AHB2_GRP1_ForceReset
 579:Drivers/STM32WBxx_HAL_Driver/Inc/stm32wbxx_ll_bus.h ****   * @param  Periphs This parameter can be a combination of the following values:
 580:Drivers/STM32WBxx_HAL_Driver/Inc/stm32wbxx_ll_bus.h ****   *         @arg @ref LL_AHB2_GRP1_PERIPH_ALL
 581:Drivers/STM32WBxx_HAL_Driver/Inc/stm32wbxx_ll_bus.h ****   *         @arg @ref LL_AHB2_GRP1_PERIPH_GPIOA
 582:Drivers/STM32WBxx_HAL_Driver/Inc/stm32wbxx_ll_bus.h ****   *         @arg @ref LL_AHB2_GRP1_PERIPH_GPIOB
 583:Drivers/STM32WBxx_HAL_Driver/Inc/stm32wbxx_ll_bus.h ****   *         @arg @ref LL_AHB2_GRP1_PERIPH_GPIOC
 584:Drivers/STM32WBxx_HAL_Driver/Inc/stm32wbxx_ll_bus.h ****   *         @arg @ref LL_AHB2_GRP1_PERIPH_GPIOD
 585:Drivers/STM32WBxx_HAL_Driver/Inc/stm32wbxx_ll_bus.h ****   *         @arg @ref LL_AHB2_GRP1_PERIPH_GPIOE
 586:Drivers/STM32WBxx_HAL_Driver/Inc/stm32wbxx_ll_bus.h ****   *         @arg @ref LL_AHB2_GRP1_PERIPH_GPIOH
 587:Drivers/STM32WBxx_HAL_Driver/Inc/stm32wbxx_ll_bus.h ****   *         @arg @ref LL_AHB2_GRP1_PERIPH_ADC
 588:Drivers/STM32WBxx_HAL_Driver/Inc/stm32wbxx_ll_bus.h ****   *         @arg @ref LL_AHB2_GRP1_PERIPH_AES1
 589:Drivers/STM32WBxx_HAL_Driver/Inc/stm32wbxx_ll_bus.h ****   * @retval None
 590:Drivers/STM32WBxx_HAL_Driver/Inc/stm32wbxx_ll_bus.h **** */
 591:Drivers/STM32WBxx_HAL_Driver/Inc/stm32wbxx_ll_bus.h **** __STATIC_INLINE void LL_AHB2_GRP1_ForceReset(uint32_t Periphs)
 592:Drivers/STM32WBxx_HAL_Driver/Inc/stm32wbxx_ll_bus.h **** {
 593:Drivers/STM32WBxx_HAL_Driver/Inc/stm32wbxx_ll_bus.h ****   SET_BIT(RCC->AHB2RSTR, Periphs);
 594:Drivers/STM32WBxx_HAL_Driver/Inc/stm32wbxx_ll_bus.h **** }
 595:Drivers/STM32WBxx_HAL_Driver/Inc/stm32wbxx_ll_bus.h **** 
 596:Drivers/STM32WBxx_HAL_Driver/Inc/stm32wbxx_ll_bus.h **** /**
 597:Drivers/STM32WBxx_HAL_Driver/Inc/stm32wbxx_ll_bus.h ****   * @brief  Release AHB2 peripherals reset.
 598:Drivers/STM32WBxx_HAL_Driver/Inc/stm32wbxx_ll_bus.h ****   * @rmtoll AHB2RSTR     GPIOARST      LL_AHB2_GRP1_ReleaseReset\n
 599:Drivers/STM32WBxx_HAL_Driver/Inc/stm32wbxx_ll_bus.h ****   *         AHB2RSTR     GPIOBRST      LL_AHB2_GRP1_ReleaseReset\n
 600:Drivers/STM32WBxx_HAL_Driver/Inc/stm32wbxx_ll_bus.h ****   *         AHB2RSTR     GPIOCRST      LL_AHB2_GRP1_ReleaseReset\n
 601:Drivers/STM32WBxx_HAL_Driver/Inc/stm32wbxx_ll_bus.h ****   *         AHB2RSTR     GPIODRST      LL_AHB2_GRP1_ReleaseReset\n
 602:Drivers/STM32WBxx_HAL_Driver/Inc/stm32wbxx_ll_bus.h ****   *         AHB2RSTR     GPIOERST      LL_AHB2_GRP1_ReleaseReset\n
 603:Drivers/STM32WBxx_HAL_Driver/Inc/stm32wbxx_ll_bus.h ****   *         AHB2RSTR     GPIOHRST      LL_AHB2_GRP1_ReleaseReset\n
 604:Drivers/STM32WBxx_HAL_Driver/Inc/stm32wbxx_ll_bus.h ****   *         AHB2RSTR     ADCRST        LL_AHB2_GRP1_ReleaseReset\n
 605:Drivers/STM32WBxx_HAL_Driver/Inc/stm32wbxx_ll_bus.h ****   *         AHB2RSTR     AES1RST       LL_AHB2_GRP1_ReleaseReset
 606:Drivers/STM32WBxx_HAL_Driver/Inc/stm32wbxx_ll_bus.h ****   * @param  Periphs This parameter can be a combination of the following values:
 607:Drivers/STM32WBxx_HAL_Driver/Inc/stm32wbxx_ll_bus.h ****   *         @arg @ref LL_AHB2_GRP1_PERIPH_ALL
 608:Drivers/STM32WBxx_HAL_Driver/Inc/stm32wbxx_ll_bus.h ****   *         @arg @ref LL_AHB2_GRP1_PERIPH_GPIOA
 609:Drivers/STM32WBxx_HAL_Driver/Inc/stm32wbxx_ll_bus.h ****   *         @arg @ref LL_AHB2_GRP1_PERIPH_GPIOB
 610:Drivers/STM32WBxx_HAL_Driver/Inc/stm32wbxx_ll_bus.h ****   *         @arg @ref LL_AHB2_GRP1_PERIPH_GPIOC
 611:Drivers/STM32WBxx_HAL_Driver/Inc/stm32wbxx_ll_bus.h ****   *         @arg @ref LL_AHB2_GRP1_PERIPH_GPIOD
 612:Drivers/STM32WBxx_HAL_Driver/Inc/stm32wbxx_ll_bus.h ****   *         @arg @ref LL_AHB2_GRP1_PERIPH_GPIOE
 613:Drivers/STM32WBxx_HAL_Driver/Inc/stm32wbxx_ll_bus.h ****   *         @arg @ref LL_AHB2_GRP1_PERIPH_GPIOH
 614:Drivers/STM32WBxx_HAL_Driver/Inc/stm32wbxx_ll_bus.h ****   *         @arg @ref LL_AHB2_GRP1_PERIPH_ADC
 615:Drivers/STM32WBxx_HAL_Driver/Inc/stm32wbxx_ll_bus.h ****   *         @arg @ref LL_AHB2_GRP1_PERIPH_AES1
 616:Drivers/STM32WBxx_HAL_Driver/Inc/stm32wbxx_ll_bus.h ****   * @retval None
 617:Drivers/STM32WBxx_HAL_Driver/Inc/stm32wbxx_ll_bus.h **** */
 618:Drivers/STM32WBxx_HAL_Driver/Inc/stm32wbxx_ll_bus.h **** __STATIC_INLINE void LL_AHB2_GRP1_ReleaseReset(uint32_t Periphs)
 619:Drivers/STM32WBxx_HAL_Driver/Inc/stm32wbxx_ll_bus.h **** {
 620:Drivers/STM32WBxx_HAL_Driver/Inc/stm32wbxx_ll_bus.h ****   CLEAR_BIT(RCC->AHB2RSTR, Periphs);
 621:Drivers/STM32WBxx_HAL_Driver/Inc/stm32wbxx_ll_bus.h **** }
 622:Drivers/STM32WBxx_HAL_Driver/Inc/stm32wbxx_ll_bus.h **** 
 623:Drivers/STM32WBxx_HAL_Driver/Inc/stm32wbxx_ll_bus.h **** /**
 624:Drivers/STM32WBxx_HAL_Driver/Inc/stm32wbxx_ll_bus.h ****   * @brief  Enable AHB2 peripherals clock during Low Power (Sleep) mode.
 625:Drivers/STM32WBxx_HAL_Driver/Inc/stm32wbxx_ll_bus.h ****   * @rmtoll AHB2SMENR    GPIOASMEN     LL_AHB2_GRP1_EnableClockSleep\n
 626:Drivers/STM32WBxx_HAL_Driver/Inc/stm32wbxx_ll_bus.h ****   *         AHB2SMENR    GPIOBSMEN     LL_AHB2_GRP1_EnableClockSleep\n
ARM GAS  /tmp/ccL4sKcp.s 			page 30


 627:Drivers/STM32WBxx_HAL_Driver/Inc/stm32wbxx_ll_bus.h ****   *         AHB2SMENR    GPIOCSMEN     LL_AHB2_GRP1_EnableClockSleep\n
 628:Drivers/STM32WBxx_HAL_Driver/Inc/stm32wbxx_ll_bus.h ****   *         AHB2SMENR    GPIODSMEN     LL_AHB2_GRP1_EnableClockSleep\n
 629:Drivers/STM32WBxx_HAL_Driver/Inc/stm32wbxx_ll_bus.h ****   *         AHB2SMENR    GPIOESMEN     LL_AHB2_GRP1_EnableClockSleep\n
 630:Drivers/STM32WBxx_HAL_Driver/Inc/stm32wbxx_ll_bus.h ****   *         AHB2SMENR    GPIOHSMEN     LL_AHB2_GRP1_EnableClockSleep\n
 631:Drivers/STM32WBxx_HAL_Driver/Inc/stm32wbxx_ll_bus.h ****   *         AHB2SMENR    ADCSMEN       LL_AHB2_GRP1_EnableClockSleep\n
 632:Drivers/STM32WBxx_HAL_Driver/Inc/stm32wbxx_ll_bus.h ****   *         AHB2SMENR    AES1SMEN      LL_AHB2_GRP1_EnableClockSleep
 633:Drivers/STM32WBxx_HAL_Driver/Inc/stm32wbxx_ll_bus.h ****   * @param  Periphs This parameter can be a combination of the following values:
 634:Drivers/STM32WBxx_HAL_Driver/Inc/stm32wbxx_ll_bus.h ****   *         @arg @ref LL_AHB2_GRP1_PERIPH_GPIOA
 635:Drivers/STM32WBxx_HAL_Driver/Inc/stm32wbxx_ll_bus.h ****   *         @arg @ref LL_AHB2_GRP1_PERIPH_GPIOB
 636:Drivers/STM32WBxx_HAL_Driver/Inc/stm32wbxx_ll_bus.h ****   *         @arg @ref LL_AHB2_GRP1_PERIPH_GPIOC
 637:Drivers/STM32WBxx_HAL_Driver/Inc/stm32wbxx_ll_bus.h ****   *         @arg @ref LL_AHB2_GRP1_PERIPH_GPIOD
 638:Drivers/STM32WBxx_HAL_Driver/Inc/stm32wbxx_ll_bus.h ****   *         @arg @ref LL_AHB2_GRP1_PERIPH_GPIOE
 639:Drivers/STM32WBxx_HAL_Driver/Inc/stm32wbxx_ll_bus.h ****   *         @arg @ref LL_AHB2_GRP1_PERIPH_GPIOH
 640:Drivers/STM32WBxx_HAL_Driver/Inc/stm32wbxx_ll_bus.h ****   *         @arg @ref LL_AHB2_GRP1_PERIPH_ADC
 641:Drivers/STM32WBxx_HAL_Driver/Inc/stm32wbxx_ll_bus.h ****   *         @arg @ref LL_AHB2_GRP1_PERIPH_AES1
 642:Drivers/STM32WBxx_HAL_Driver/Inc/stm32wbxx_ll_bus.h ****   * @retval None
 643:Drivers/STM32WBxx_HAL_Driver/Inc/stm32wbxx_ll_bus.h **** */
 644:Drivers/STM32WBxx_HAL_Driver/Inc/stm32wbxx_ll_bus.h **** __STATIC_INLINE void LL_AHB2_GRP1_EnableClockSleep(uint32_t Periphs)
 645:Drivers/STM32WBxx_HAL_Driver/Inc/stm32wbxx_ll_bus.h **** {
 646:Drivers/STM32WBxx_HAL_Driver/Inc/stm32wbxx_ll_bus.h ****   __IO uint32_t tmpreg;
 647:Drivers/STM32WBxx_HAL_Driver/Inc/stm32wbxx_ll_bus.h ****   SET_BIT(RCC->AHB2SMENR, Periphs);
 648:Drivers/STM32WBxx_HAL_Driver/Inc/stm32wbxx_ll_bus.h ****   /* Delay after an RCC peripheral clock enabling */
 649:Drivers/STM32WBxx_HAL_Driver/Inc/stm32wbxx_ll_bus.h ****   tmpreg = READ_BIT(RCC->AHB2SMENR, Periphs);
 650:Drivers/STM32WBxx_HAL_Driver/Inc/stm32wbxx_ll_bus.h ****   (void)tmpreg;
 651:Drivers/STM32WBxx_HAL_Driver/Inc/stm32wbxx_ll_bus.h **** }
 652:Drivers/STM32WBxx_HAL_Driver/Inc/stm32wbxx_ll_bus.h **** 
 653:Drivers/STM32WBxx_HAL_Driver/Inc/stm32wbxx_ll_bus.h **** /**
 654:Drivers/STM32WBxx_HAL_Driver/Inc/stm32wbxx_ll_bus.h ****   * @brief  Disable AHB2 peripherals clock during Low Power (Sleep) mode.
 655:Drivers/STM32WBxx_HAL_Driver/Inc/stm32wbxx_ll_bus.h ****   * @rmtoll AHB2SMENR    GPIOASMEN     LL_AHB2_GRP1_DisableClockSleep\n
 656:Drivers/STM32WBxx_HAL_Driver/Inc/stm32wbxx_ll_bus.h ****   *         AHB2SMENR    GPIOBSMEN     LL_AHB2_GRP1_DisableClockSleep\n
 657:Drivers/STM32WBxx_HAL_Driver/Inc/stm32wbxx_ll_bus.h ****   *         AHB2SMENR    GPIOCSMEN     LL_AHB2_GRP1_DisableClockSleep\n
 658:Drivers/STM32WBxx_HAL_Driver/Inc/stm32wbxx_ll_bus.h ****   *         AHB2SMENR    GPIODSMEN     LL_AHB2_GRP1_DisableClockSleep\n
 659:Drivers/STM32WBxx_HAL_Driver/Inc/stm32wbxx_ll_bus.h ****   *         AHB2SMENR    GPIOESMEN     LL_AHB2_GRP1_DisableClockSleep\n
 660:Drivers/STM32WBxx_HAL_Driver/Inc/stm32wbxx_ll_bus.h ****   *         AHB2SMENR    GPIOHSMEN     LL_AHB2_GRP1_DisableClockSleep\n
 661:Drivers/STM32WBxx_HAL_Driver/Inc/stm32wbxx_ll_bus.h ****   *         AHB2SMENR    ADCSMEN       LL_AHB2_GRP1_DisableClockSleep\n
 662:Drivers/STM32WBxx_HAL_Driver/Inc/stm32wbxx_ll_bus.h ****   *         AHB2SMENR    AES1SMEN      LL_AHB2_GRP1_DisableClockSleep
 663:Drivers/STM32WBxx_HAL_Driver/Inc/stm32wbxx_ll_bus.h ****   * @param  Periphs This parameter can be a combination of the following values:
 664:Drivers/STM32WBxx_HAL_Driver/Inc/stm32wbxx_ll_bus.h ****   *         @arg @ref LL_AHB2_GRP1_PERIPH_GPIOA
 665:Drivers/STM32WBxx_HAL_Driver/Inc/stm32wbxx_ll_bus.h ****   *         @arg @ref LL_AHB2_GRP1_PERIPH_GPIOB
 666:Drivers/STM32WBxx_HAL_Driver/Inc/stm32wbxx_ll_bus.h ****   *         @arg @ref LL_AHB2_GRP1_PERIPH_GPIOC
 667:Drivers/STM32WBxx_HAL_Driver/Inc/stm32wbxx_ll_bus.h ****   *         @arg @ref LL_AHB2_GRP1_PERIPH_GPIOD
 668:Drivers/STM32WBxx_HAL_Driver/Inc/stm32wbxx_ll_bus.h ****   *         @arg @ref LL_AHB2_GRP1_PERIPH_GPIOE
 669:Drivers/STM32WBxx_HAL_Driver/Inc/stm32wbxx_ll_bus.h ****   *         @arg @ref LL_AHB2_GRP1_PERIPH_GPIOH
 670:Drivers/STM32WBxx_HAL_Driver/Inc/stm32wbxx_ll_bus.h ****   *         @arg @ref LL_AHB2_GRP1_PERIPH_ADC
 671:Drivers/STM32WBxx_HAL_Driver/Inc/stm32wbxx_ll_bus.h ****   *         @arg @ref LL_AHB2_GRP1_PERIPH_AES1
 672:Drivers/STM32WBxx_HAL_Driver/Inc/stm32wbxx_ll_bus.h ****   * @retval None
 673:Drivers/STM32WBxx_HAL_Driver/Inc/stm32wbxx_ll_bus.h **** */
 674:Drivers/STM32WBxx_HAL_Driver/Inc/stm32wbxx_ll_bus.h **** __STATIC_INLINE void LL_AHB2_GRP1_DisableClockSleep(uint32_t Periphs)
 675:Drivers/STM32WBxx_HAL_Driver/Inc/stm32wbxx_ll_bus.h **** {
 676:Drivers/STM32WBxx_HAL_Driver/Inc/stm32wbxx_ll_bus.h ****   CLEAR_BIT(RCC->AHB2SMENR, Periphs);
 677:Drivers/STM32WBxx_HAL_Driver/Inc/stm32wbxx_ll_bus.h **** }
 678:Drivers/STM32WBxx_HAL_Driver/Inc/stm32wbxx_ll_bus.h **** 
 679:Drivers/STM32WBxx_HAL_Driver/Inc/stm32wbxx_ll_bus.h **** /**
 680:Drivers/STM32WBxx_HAL_Driver/Inc/stm32wbxx_ll_bus.h ****   * @}
 681:Drivers/STM32WBxx_HAL_Driver/Inc/stm32wbxx_ll_bus.h ****   */
 682:Drivers/STM32WBxx_HAL_Driver/Inc/stm32wbxx_ll_bus.h **** 
 683:Drivers/STM32WBxx_HAL_Driver/Inc/stm32wbxx_ll_bus.h **** /** @defgroup BUS_LL_EF_AHB3 AHB3
ARM GAS  /tmp/ccL4sKcp.s 			page 31


 684:Drivers/STM32WBxx_HAL_Driver/Inc/stm32wbxx_ll_bus.h ****   * @{
 685:Drivers/STM32WBxx_HAL_Driver/Inc/stm32wbxx_ll_bus.h ****   */
 686:Drivers/STM32WBxx_HAL_Driver/Inc/stm32wbxx_ll_bus.h **** 
 687:Drivers/STM32WBxx_HAL_Driver/Inc/stm32wbxx_ll_bus.h **** /**
 688:Drivers/STM32WBxx_HAL_Driver/Inc/stm32wbxx_ll_bus.h ****   * @brief  Enable AHB3 peripherals clock.
 689:Drivers/STM32WBxx_HAL_Driver/Inc/stm32wbxx_ll_bus.h ****   * @rmtoll AHB3ENR      QUADSPIEN     LL_AHB3_GRP1_EnableClock\n
 690:Drivers/STM32WBxx_HAL_Driver/Inc/stm32wbxx_ll_bus.h ****   *         AHB3ENR      PKAEN         LL_AHB3_GRP1_EnableClock\n
 691:Drivers/STM32WBxx_HAL_Driver/Inc/stm32wbxx_ll_bus.h ****   *         AHB3ENR      AES2EN        LL_AHB3_GRP1_EnableClock\n
 692:Drivers/STM32WBxx_HAL_Driver/Inc/stm32wbxx_ll_bus.h ****   *         AHB3ENR      RNGEN         LL_AHB3_GRP1_EnableClock\n
 693:Drivers/STM32WBxx_HAL_Driver/Inc/stm32wbxx_ll_bus.h ****   *         AHB3ENR      HSEMEN        LL_AHB3_GRP1_EnableClock\n
 694:Drivers/STM32WBxx_HAL_Driver/Inc/stm32wbxx_ll_bus.h ****   *         AHB3ENR      IPCCEN        LL_AHB3_GRP1_EnableClock\n
 695:Drivers/STM32WBxx_HAL_Driver/Inc/stm32wbxx_ll_bus.h ****   *         AHB3ENR      FLASHEN       LL_AHB3_GRP1_EnableClock
 696:Drivers/STM32WBxx_HAL_Driver/Inc/stm32wbxx_ll_bus.h ****   * @param  Periphs This parameter can be a combination of the following values:
 697:Drivers/STM32WBxx_HAL_Driver/Inc/stm32wbxx_ll_bus.h ****   *         @arg @ref LL_AHB3_GRP1_PERIPH_QUADSPI
 698:Drivers/STM32WBxx_HAL_Driver/Inc/stm32wbxx_ll_bus.h ****   *         @arg @ref LL_AHB3_GRP1_PERIPH_PKA
 699:Drivers/STM32WBxx_HAL_Driver/Inc/stm32wbxx_ll_bus.h ****   *         @arg @ref LL_AHB3_GRP1_PERIPH_AES2
 700:Drivers/STM32WBxx_HAL_Driver/Inc/stm32wbxx_ll_bus.h ****   *         @arg @ref LL_AHB3_GRP1_PERIPH_RNG
 701:Drivers/STM32WBxx_HAL_Driver/Inc/stm32wbxx_ll_bus.h ****   *         @arg @ref LL_AHB3_GRP1_PERIPH_HSEM
 702:Drivers/STM32WBxx_HAL_Driver/Inc/stm32wbxx_ll_bus.h ****   *         @arg @ref LL_AHB3_GRP1_PERIPH_IPCC
 703:Drivers/STM32WBxx_HAL_Driver/Inc/stm32wbxx_ll_bus.h ****   *         @arg @ref LL_AHB3_GRP1_PERIPH_FLASH
 704:Drivers/STM32WBxx_HAL_Driver/Inc/stm32wbxx_ll_bus.h ****   * @retval None
 705:Drivers/STM32WBxx_HAL_Driver/Inc/stm32wbxx_ll_bus.h **** */
 706:Drivers/STM32WBxx_HAL_Driver/Inc/stm32wbxx_ll_bus.h **** __STATIC_INLINE void LL_AHB3_GRP1_EnableClock(uint32_t Periphs)
 707:Drivers/STM32WBxx_HAL_Driver/Inc/stm32wbxx_ll_bus.h **** {
 708:Drivers/STM32WBxx_HAL_Driver/Inc/stm32wbxx_ll_bus.h ****   __IO uint32_t tmpreg;
 709:Drivers/STM32WBxx_HAL_Driver/Inc/stm32wbxx_ll_bus.h ****   SET_BIT(RCC->AHB3ENR, Periphs);
 710:Drivers/STM32WBxx_HAL_Driver/Inc/stm32wbxx_ll_bus.h ****   /* Delay after an RCC peripheral clock enabling */
 711:Drivers/STM32WBxx_HAL_Driver/Inc/stm32wbxx_ll_bus.h ****   tmpreg = READ_BIT(RCC->AHB3ENR, Periphs);
 712:Drivers/STM32WBxx_HAL_Driver/Inc/stm32wbxx_ll_bus.h ****   (void)tmpreg;
 713:Drivers/STM32WBxx_HAL_Driver/Inc/stm32wbxx_ll_bus.h **** }
 714:Drivers/STM32WBxx_HAL_Driver/Inc/stm32wbxx_ll_bus.h **** 
 715:Drivers/STM32WBxx_HAL_Driver/Inc/stm32wbxx_ll_bus.h **** /**
 716:Drivers/STM32WBxx_HAL_Driver/Inc/stm32wbxx_ll_bus.h ****   * @brief  Check if AHB3 peripheral clock is enabled or not
 717:Drivers/STM32WBxx_HAL_Driver/Inc/stm32wbxx_ll_bus.h ****   * @rmtoll AHB3ENR      QUADSPIEN     LL_AHB3_GRP1_IsEnabledClock\n
 718:Drivers/STM32WBxx_HAL_Driver/Inc/stm32wbxx_ll_bus.h ****   *         AHB3ENR      PKAEN         LL_AHB3_GRP1_IsEnabledClock\n
 719:Drivers/STM32WBxx_HAL_Driver/Inc/stm32wbxx_ll_bus.h ****   *         AHB3ENR      AES2EN        LL_AHB3_GRP1_IsEnabledClock\n
 720:Drivers/STM32WBxx_HAL_Driver/Inc/stm32wbxx_ll_bus.h ****   *         AHB3ENR      RNGEN         LL_AHB3_GRP1_IsEnabledClock\n
 721:Drivers/STM32WBxx_HAL_Driver/Inc/stm32wbxx_ll_bus.h ****   *         AHB3ENR      HSEMEN        LL_AHB3_GRP1_IsEnabledClock\n
 722:Drivers/STM32WBxx_HAL_Driver/Inc/stm32wbxx_ll_bus.h ****   *         AHB3ENR      IPCCEN        LL_AHB3_GRP1_IsEnabledClock\n
 723:Drivers/STM32WBxx_HAL_Driver/Inc/stm32wbxx_ll_bus.h ****   *         AHB3ENR      FLASHEN       LL_AHB3_GRP1_IsEnabledClock
 724:Drivers/STM32WBxx_HAL_Driver/Inc/stm32wbxx_ll_bus.h ****   * @param  Periphs This parameter can be a combination of the following values:
 725:Drivers/STM32WBxx_HAL_Driver/Inc/stm32wbxx_ll_bus.h ****   *         @arg @ref LL_AHB3_GRP1_PERIPH_QUADSPI
 726:Drivers/STM32WBxx_HAL_Driver/Inc/stm32wbxx_ll_bus.h ****   *         @arg @ref LL_AHB3_GRP1_PERIPH_PKA
 727:Drivers/STM32WBxx_HAL_Driver/Inc/stm32wbxx_ll_bus.h ****   *         @arg @ref LL_AHB3_GRP1_PERIPH_AES2
 728:Drivers/STM32WBxx_HAL_Driver/Inc/stm32wbxx_ll_bus.h ****   *         @arg @ref LL_AHB3_GRP1_PERIPH_RNG
 729:Drivers/STM32WBxx_HAL_Driver/Inc/stm32wbxx_ll_bus.h ****   *         @arg @ref LL_AHB3_GRP1_PERIPH_HSEM
 730:Drivers/STM32WBxx_HAL_Driver/Inc/stm32wbxx_ll_bus.h ****   *         @arg @ref LL_AHB3_GRP1_PERIPH_IPCC
 731:Drivers/STM32WBxx_HAL_Driver/Inc/stm32wbxx_ll_bus.h ****   *         @arg @ref LL_AHB3_GRP1_PERIPH_FLASH
 732:Drivers/STM32WBxx_HAL_Driver/Inc/stm32wbxx_ll_bus.h ****   * @retval uint32_t
 733:Drivers/STM32WBxx_HAL_Driver/Inc/stm32wbxx_ll_bus.h **** */
 734:Drivers/STM32WBxx_HAL_Driver/Inc/stm32wbxx_ll_bus.h **** __STATIC_INLINE uint32_t LL_AHB3_GRP1_IsEnabledClock(uint32_t Periphs)
 735:Drivers/STM32WBxx_HAL_Driver/Inc/stm32wbxx_ll_bus.h **** {
 736:Drivers/STM32WBxx_HAL_Driver/Inc/stm32wbxx_ll_bus.h ****   return ((READ_BIT(RCC->AHB3ENR, Periphs) == (Periphs)) ? 1UL : 0UL);
 737:Drivers/STM32WBxx_HAL_Driver/Inc/stm32wbxx_ll_bus.h **** }
 738:Drivers/STM32WBxx_HAL_Driver/Inc/stm32wbxx_ll_bus.h **** 
 739:Drivers/STM32WBxx_HAL_Driver/Inc/stm32wbxx_ll_bus.h **** /**
 740:Drivers/STM32WBxx_HAL_Driver/Inc/stm32wbxx_ll_bus.h ****   * @brief  Disable AHB3 peripherals clock.
ARM GAS  /tmp/ccL4sKcp.s 			page 32


 741:Drivers/STM32WBxx_HAL_Driver/Inc/stm32wbxx_ll_bus.h ****   * @rmtoll AHB3ENR      QUADSPIEN     LL_AHB3_GRP1_DisableClock\n
 742:Drivers/STM32WBxx_HAL_Driver/Inc/stm32wbxx_ll_bus.h ****   *         AHB3ENR      PKAEN         LL_AHB3_GRP1_DisableClock\n
 743:Drivers/STM32WBxx_HAL_Driver/Inc/stm32wbxx_ll_bus.h ****   *         AHB3ENR      AES2EN        LL_AHB3_GRP1_DisableClock\n
 744:Drivers/STM32WBxx_HAL_Driver/Inc/stm32wbxx_ll_bus.h ****   *         AHB3ENR      RNGEN         LL_AHB3_GRP1_DisableClock\n
 745:Drivers/STM32WBxx_HAL_Driver/Inc/stm32wbxx_ll_bus.h ****   *         AHB3ENR      HSEMEN        LL_AHB3_GRP1_DisableClock\n
 746:Drivers/STM32WBxx_HAL_Driver/Inc/stm32wbxx_ll_bus.h ****   *         AHB3ENR      IPCCEN        LL_AHB3_GRP1_DisableClock\n
 747:Drivers/STM32WBxx_HAL_Driver/Inc/stm32wbxx_ll_bus.h ****   *         AHB3ENR      FLASHEN       LL_AHB3_GRP1_DisableClock
 748:Drivers/STM32WBxx_HAL_Driver/Inc/stm32wbxx_ll_bus.h ****   * @param  Periphs This parameter can be a combination of the following values:
 749:Drivers/STM32WBxx_HAL_Driver/Inc/stm32wbxx_ll_bus.h ****   *         @arg @ref LL_AHB3_GRP1_PERIPH_QUADSPI
 750:Drivers/STM32WBxx_HAL_Driver/Inc/stm32wbxx_ll_bus.h ****   *         @arg @ref LL_AHB3_GRP1_PERIPH_PKA
 751:Drivers/STM32WBxx_HAL_Driver/Inc/stm32wbxx_ll_bus.h ****   *         @arg @ref LL_AHB3_GRP1_PERIPH_AES2
 752:Drivers/STM32WBxx_HAL_Driver/Inc/stm32wbxx_ll_bus.h ****   *         @arg @ref LL_AHB3_GRP1_PERIPH_RNG
 753:Drivers/STM32WBxx_HAL_Driver/Inc/stm32wbxx_ll_bus.h ****   *         @arg @ref LL_AHB3_GRP1_PERIPH_HSEM
 754:Drivers/STM32WBxx_HAL_Driver/Inc/stm32wbxx_ll_bus.h ****   *         @arg @ref LL_AHB3_GRP1_PERIPH_IPCC
 755:Drivers/STM32WBxx_HAL_Driver/Inc/stm32wbxx_ll_bus.h ****   *         @arg @ref LL_AHB3_GRP1_PERIPH_FLASH
 756:Drivers/STM32WBxx_HAL_Driver/Inc/stm32wbxx_ll_bus.h ****   * @retval None
 757:Drivers/STM32WBxx_HAL_Driver/Inc/stm32wbxx_ll_bus.h **** */
 758:Drivers/STM32WBxx_HAL_Driver/Inc/stm32wbxx_ll_bus.h **** __STATIC_INLINE void LL_AHB3_GRP1_DisableClock(uint32_t Periphs)
 759:Drivers/STM32WBxx_HAL_Driver/Inc/stm32wbxx_ll_bus.h **** {
 760:Drivers/STM32WBxx_HAL_Driver/Inc/stm32wbxx_ll_bus.h ****   CLEAR_BIT(RCC->AHB3ENR, Periphs);
 761:Drivers/STM32WBxx_HAL_Driver/Inc/stm32wbxx_ll_bus.h **** }
 762:Drivers/STM32WBxx_HAL_Driver/Inc/stm32wbxx_ll_bus.h **** 
 763:Drivers/STM32WBxx_HAL_Driver/Inc/stm32wbxx_ll_bus.h **** /**
 764:Drivers/STM32WBxx_HAL_Driver/Inc/stm32wbxx_ll_bus.h ****   * @brief  Force AHB3 peripherals reset.
 765:Drivers/STM32WBxx_HAL_Driver/Inc/stm32wbxx_ll_bus.h ****   * @rmtoll AHB3RSTR     QUADSPIRST       LL_AHB3_GRP1_ForceReset\n
 766:Drivers/STM32WBxx_HAL_Driver/Inc/stm32wbxx_ll_bus.h ****   *         AHB3RSTR     PKARST        LL_AHB3_GRP1_ForceReset\n
 767:Drivers/STM32WBxx_HAL_Driver/Inc/stm32wbxx_ll_bus.h ****   *         AHB3RSTR     AES2RST       LL_AHB3_GRP1_ForceReset\n
 768:Drivers/STM32WBxx_HAL_Driver/Inc/stm32wbxx_ll_bus.h ****   *         AHB3RSTR     RNGRST        LL_AHB3_GRP1_ForceReset\n
 769:Drivers/STM32WBxx_HAL_Driver/Inc/stm32wbxx_ll_bus.h ****   *         AHB3RSTR     HSEMRST       LL_AHB3_GRP1_ForceReset\n
 770:Drivers/STM32WBxx_HAL_Driver/Inc/stm32wbxx_ll_bus.h ****   *         AHB3RSTR     IPCCRST       LL_AHB3_GRP1_ForceReset\n
 771:Drivers/STM32WBxx_HAL_Driver/Inc/stm32wbxx_ll_bus.h ****   *         AHB3RSTR     FLASHRST      LL_AHB3_GRP1_ForceReset
 772:Drivers/STM32WBxx_HAL_Driver/Inc/stm32wbxx_ll_bus.h ****   * @param  Periphs This parameter can be a combination of the following values:
 773:Drivers/STM32WBxx_HAL_Driver/Inc/stm32wbxx_ll_bus.h ****   *         @arg @ref LL_AHB3_GRP1_PERIPH_ALL
 774:Drivers/STM32WBxx_HAL_Driver/Inc/stm32wbxx_ll_bus.h ****   *         @arg @ref LL_AHB3_GRP1_PERIPH_QUADSPI
 775:Drivers/STM32WBxx_HAL_Driver/Inc/stm32wbxx_ll_bus.h ****   *         @arg @ref LL_AHB3_GRP1_PERIPH_PKA
 776:Drivers/STM32WBxx_HAL_Driver/Inc/stm32wbxx_ll_bus.h ****   *         @arg @ref LL_AHB3_GRP1_PERIPH_AES2
 777:Drivers/STM32WBxx_HAL_Driver/Inc/stm32wbxx_ll_bus.h ****   *         @arg @ref LL_AHB3_GRP1_PERIPH_RNG
 778:Drivers/STM32WBxx_HAL_Driver/Inc/stm32wbxx_ll_bus.h ****   *         @arg @ref LL_AHB3_GRP1_PERIPH_HSEM
 779:Drivers/STM32WBxx_HAL_Driver/Inc/stm32wbxx_ll_bus.h ****   *         @arg @ref LL_AHB3_GRP1_PERIPH_IPCC
 780:Drivers/STM32WBxx_HAL_Driver/Inc/stm32wbxx_ll_bus.h ****   *         @arg @ref LL_AHB3_GRP1_PERIPH_FLASH
 781:Drivers/STM32WBxx_HAL_Driver/Inc/stm32wbxx_ll_bus.h ****   * @retval None
 782:Drivers/STM32WBxx_HAL_Driver/Inc/stm32wbxx_ll_bus.h **** */
 783:Drivers/STM32WBxx_HAL_Driver/Inc/stm32wbxx_ll_bus.h **** __STATIC_INLINE void LL_AHB3_GRP1_ForceReset(uint32_t Periphs)
 784:Drivers/STM32WBxx_HAL_Driver/Inc/stm32wbxx_ll_bus.h **** {
 785:Drivers/STM32WBxx_HAL_Driver/Inc/stm32wbxx_ll_bus.h ****   SET_BIT(RCC->AHB3RSTR, Periphs);
 786:Drivers/STM32WBxx_HAL_Driver/Inc/stm32wbxx_ll_bus.h **** }
 787:Drivers/STM32WBxx_HAL_Driver/Inc/stm32wbxx_ll_bus.h **** 
 788:Drivers/STM32WBxx_HAL_Driver/Inc/stm32wbxx_ll_bus.h **** /**
 789:Drivers/STM32WBxx_HAL_Driver/Inc/stm32wbxx_ll_bus.h ****   * @brief  Release AHB3 peripherals reset.
 790:Drivers/STM32WBxx_HAL_Driver/Inc/stm32wbxx_ll_bus.h ****   * @rmtoll AHB3RSTR     QUADSPIRST    LL_AHB3_GRP1_ReleaseReset\n
 791:Drivers/STM32WBxx_HAL_Driver/Inc/stm32wbxx_ll_bus.h ****   *         AHB3RSTR     PKARST        LL_AHB3_GRP1_ReleaseReset\n
 792:Drivers/STM32WBxx_HAL_Driver/Inc/stm32wbxx_ll_bus.h ****   *         AHB3RSTR     AES2RST       LL_AHB3_GRP1_ReleaseReset\n
 793:Drivers/STM32WBxx_HAL_Driver/Inc/stm32wbxx_ll_bus.h ****   *         AHB3RSTR     RNGRST        LL_AHB3_GRP1_ReleaseReset\n
 794:Drivers/STM32WBxx_HAL_Driver/Inc/stm32wbxx_ll_bus.h ****   *         AHB3RSTR     HSEMRST       LL_AHB3_GRP1_ReleaseReset\n
 795:Drivers/STM32WBxx_HAL_Driver/Inc/stm32wbxx_ll_bus.h ****   *         AHB3RSTR     IPCCRST       LL_AHB3_GRP1_ReleaseReset\n
 796:Drivers/STM32WBxx_HAL_Driver/Inc/stm32wbxx_ll_bus.h ****   *         AHB3RSTR     FLASHRST      LL_AHB3_GRP1_ReleaseReset
 797:Drivers/STM32WBxx_HAL_Driver/Inc/stm32wbxx_ll_bus.h ****   * @param  Periphs This parameter can be a combination of the following values:
ARM GAS  /tmp/ccL4sKcp.s 			page 33


 798:Drivers/STM32WBxx_HAL_Driver/Inc/stm32wbxx_ll_bus.h ****   *         @arg @ref LL_AHB2_GRP1_PERIPH_ALL
 799:Drivers/STM32WBxx_HAL_Driver/Inc/stm32wbxx_ll_bus.h ****   *         @arg @ref LL_AHB3_GRP1_PERIPH_QUADSPI
 800:Drivers/STM32WBxx_HAL_Driver/Inc/stm32wbxx_ll_bus.h ****   *         @arg @ref LL_AHB3_GRP1_PERIPH_PKA
 801:Drivers/STM32WBxx_HAL_Driver/Inc/stm32wbxx_ll_bus.h ****   *         @arg @ref LL_AHB3_GRP1_PERIPH_AES2
 802:Drivers/STM32WBxx_HAL_Driver/Inc/stm32wbxx_ll_bus.h ****   *         @arg @ref LL_AHB3_GRP1_PERIPH_RNG
 803:Drivers/STM32WBxx_HAL_Driver/Inc/stm32wbxx_ll_bus.h ****   *         @arg @ref LL_AHB3_GRP1_PERIPH_HSEM
 804:Drivers/STM32WBxx_HAL_Driver/Inc/stm32wbxx_ll_bus.h ****   *         @arg @ref LL_AHB3_GRP1_PERIPH_IPCC
 805:Drivers/STM32WBxx_HAL_Driver/Inc/stm32wbxx_ll_bus.h ****   *         @arg @ref LL_AHB3_GRP1_PERIPH_FLASH
 806:Drivers/STM32WBxx_HAL_Driver/Inc/stm32wbxx_ll_bus.h ****   * @retval None
 807:Drivers/STM32WBxx_HAL_Driver/Inc/stm32wbxx_ll_bus.h **** */
 808:Drivers/STM32WBxx_HAL_Driver/Inc/stm32wbxx_ll_bus.h **** __STATIC_INLINE void LL_AHB3_GRP1_ReleaseReset(uint32_t Periphs)
 809:Drivers/STM32WBxx_HAL_Driver/Inc/stm32wbxx_ll_bus.h **** {
 810:Drivers/STM32WBxx_HAL_Driver/Inc/stm32wbxx_ll_bus.h ****   CLEAR_BIT(RCC->AHB3RSTR, Periphs);
 811:Drivers/STM32WBxx_HAL_Driver/Inc/stm32wbxx_ll_bus.h **** }
 812:Drivers/STM32WBxx_HAL_Driver/Inc/stm32wbxx_ll_bus.h **** 
 813:Drivers/STM32WBxx_HAL_Driver/Inc/stm32wbxx_ll_bus.h **** /**
 814:Drivers/STM32WBxx_HAL_Driver/Inc/stm32wbxx_ll_bus.h ****   * @brief  Enable AHB3 peripherals clock during Low Power (Sleep) mode.
 815:Drivers/STM32WBxx_HAL_Driver/Inc/stm32wbxx_ll_bus.h ****   * @rmtoll AHB3SMENR    QUADSPISMEN   LL_AHB3_GRP1_EnableClockSleep\n
 816:Drivers/STM32WBxx_HAL_Driver/Inc/stm32wbxx_ll_bus.h ****   *         AHB3SMENR    PKASMEN       LL_AHB3_GRP1_EnableClockSleep\n
 817:Drivers/STM32WBxx_HAL_Driver/Inc/stm32wbxx_ll_bus.h ****   *         AHB3SMENR    AES2SMEN      LL_AHB3_GRP1_EnableClockSleep\n
 818:Drivers/STM32WBxx_HAL_Driver/Inc/stm32wbxx_ll_bus.h ****   *         AHB3SMENR    RNGSMEN       LL_AHB3_GRP1_EnableClockSleep\n
 819:Drivers/STM32WBxx_HAL_Driver/Inc/stm32wbxx_ll_bus.h ****   *         AHB3SMENR    SRAM2SMEN     LL_AHB3_GRP1_EnableClockSleep\n
 820:Drivers/STM32WBxx_HAL_Driver/Inc/stm32wbxx_ll_bus.h ****   *         AHB3SMENR    FLASHSMEN     LL_AHB3_GRP1_EnableClockSleep
 821:Drivers/STM32WBxx_HAL_Driver/Inc/stm32wbxx_ll_bus.h ****   * @param  Periphs This parameter can be a combination of the following values:
 822:Drivers/STM32WBxx_HAL_Driver/Inc/stm32wbxx_ll_bus.h ****   *         @arg @ref LL_AHB3_GRP1_PERIPH_QUADSPI
 823:Drivers/STM32WBxx_HAL_Driver/Inc/stm32wbxx_ll_bus.h ****   *         @arg @ref LL_AHB3_GRP1_PERIPH_PKA
 824:Drivers/STM32WBxx_HAL_Driver/Inc/stm32wbxx_ll_bus.h ****   *         @arg @ref LL_AHB3_GRP1_PERIPH_AES2
 825:Drivers/STM32WBxx_HAL_Driver/Inc/stm32wbxx_ll_bus.h ****   *         @arg @ref LL_AHB3_GRP1_PERIPH_RNG
 826:Drivers/STM32WBxx_HAL_Driver/Inc/stm32wbxx_ll_bus.h ****   *         @arg @ref LL_AHB3_GRP1_PERIPH_SRAM2
 827:Drivers/STM32WBxx_HAL_Driver/Inc/stm32wbxx_ll_bus.h ****   *         @arg @ref LL_AHB3_GRP1_PERIPH_FLASH
 828:Drivers/STM32WBxx_HAL_Driver/Inc/stm32wbxx_ll_bus.h ****   * @retval None
 829:Drivers/STM32WBxx_HAL_Driver/Inc/stm32wbxx_ll_bus.h **** */
 830:Drivers/STM32WBxx_HAL_Driver/Inc/stm32wbxx_ll_bus.h **** __STATIC_INLINE void LL_AHB3_GRP1_EnableClockSleep(uint32_t Periphs)
 831:Drivers/STM32WBxx_HAL_Driver/Inc/stm32wbxx_ll_bus.h **** {
 832:Drivers/STM32WBxx_HAL_Driver/Inc/stm32wbxx_ll_bus.h ****   __IO uint32_t tmpreg;
 833:Drivers/STM32WBxx_HAL_Driver/Inc/stm32wbxx_ll_bus.h ****   SET_BIT(RCC->AHB3SMENR, Periphs);
 834:Drivers/STM32WBxx_HAL_Driver/Inc/stm32wbxx_ll_bus.h ****   /* Delay after an RCC peripheral clock enabling */
 835:Drivers/STM32WBxx_HAL_Driver/Inc/stm32wbxx_ll_bus.h ****   tmpreg = READ_BIT(RCC->AHB3SMENR, Periphs);
 836:Drivers/STM32WBxx_HAL_Driver/Inc/stm32wbxx_ll_bus.h ****   (void)tmpreg;
 837:Drivers/STM32WBxx_HAL_Driver/Inc/stm32wbxx_ll_bus.h **** }
 838:Drivers/STM32WBxx_HAL_Driver/Inc/stm32wbxx_ll_bus.h **** 
 839:Drivers/STM32WBxx_HAL_Driver/Inc/stm32wbxx_ll_bus.h **** /**
 840:Drivers/STM32WBxx_HAL_Driver/Inc/stm32wbxx_ll_bus.h ****   * @brief  Disable AHB3 peripherals clock during Low Power (Sleep) mode.
 841:Drivers/STM32WBxx_HAL_Driver/Inc/stm32wbxx_ll_bus.h ****   * @rmtoll AHB3SMENR    QUADSPISMEN   LL_AHB3_GRP1_DisableClockSleep\n
 842:Drivers/STM32WBxx_HAL_Driver/Inc/stm32wbxx_ll_bus.h ****   *         AHB3SMENR    PKASMEN       LL_AHB3_GRP1_DisableClockSleep\n
 843:Drivers/STM32WBxx_HAL_Driver/Inc/stm32wbxx_ll_bus.h ****   *         AHB3SMENR    AES2SMEN      LL_AHB3_GRP1_DisableClockSleep\n
 844:Drivers/STM32WBxx_HAL_Driver/Inc/stm32wbxx_ll_bus.h ****   *         AHB3SMENR    RNGSMEN       LL_AHB3_GRP1_DisableClockSleep\n
 845:Drivers/STM32WBxx_HAL_Driver/Inc/stm32wbxx_ll_bus.h ****   *         AHB3SMENR    SRAM2SMEN     LL_AHB3_GRP1_DisableClockSleep\n
 846:Drivers/STM32WBxx_HAL_Driver/Inc/stm32wbxx_ll_bus.h ****   *         AHB3SMENR    FLASHSMEN     LL_AHB3_GRP1_DisableClockSleep
 847:Drivers/STM32WBxx_HAL_Driver/Inc/stm32wbxx_ll_bus.h ****   * @param  Periphs This parameter can be a combination of the following values:
 848:Drivers/STM32WBxx_HAL_Driver/Inc/stm32wbxx_ll_bus.h ****   *         @arg @ref LL_AHB3_GRP1_PERIPH_QUADSPI
 849:Drivers/STM32WBxx_HAL_Driver/Inc/stm32wbxx_ll_bus.h ****   *         @arg @ref LL_AHB3_GRP1_PERIPH_PKA
 850:Drivers/STM32WBxx_HAL_Driver/Inc/stm32wbxx_ll_bus.h ****   *         @arg @ref LL_AHB3_GRP1_PERIPH_AES2
 851:Drivers/STM32WBxx_HAL_Driver/Inc/stm32wbxx_ll_bus.h ****   *         @arg @ref LL_AHB3_GRP1_PERIPH_RNG
 852:Drivers/STM32WBxx_HAL_Driver/Inc/stm32wbxx_ll_bus.h ****   *         @arg @ref LL_AHB3_GRP1_PERIPH_SRAM2
 853:Drivers/STM32WBxx_HAL_Driver/Inc/stm32wbxx_ll_bus.h ****   *         @arg @ref LL_AHB3_GRP1_PERIPH_FLASH
 854:Drivers/STM32WBxx_HAL_Driver/Inc/stm32wbxx_ll_bus.h ****   * @retval None
ARM GAS  /tmp/ccL4sKcp.s 			page 34


 855:Drivers/STM32WBxx_HAL_Driver/Inc/stm32wbxx_ll_bus.h **** */
 856:Drivers/STM32WBxx_HAL_Driver/Inc/stm32wbxx_ll_bus.h **** __STATIC_INLINE void LL_AHB3_GRP1_DisableClockSleep(uint32_t Periphs)
 857:Drivers/STM32WBxx_HAL_Driver/Inc/stm32wbxx_ll_bus.h **** {
 858:Drivers/STM32WBxx_HAL_Driver/Inc/stm32wbxx_ll_bus.h ****   CLEAR_BIT(RCC->AHB3SMENR, Periphs);
 859:Drivers/STM32WBxx_HAL_Driver/Inc/stm32wbxx_ll_bus.h **** }
 860:Drivers/STM32WBxx_HAL_Driver/Inc/stm32wbxx_ll_bus.h **** 
 861:Drivers/STM32WBxx_HAL_Driver/Inc/stm32wbxx_ll_bus.h **** /**
 862:Drivers/STM32WBxx_HAL_Driver/Inc/stm32wbxx_ll_bus.h ****   * @}
 863:Drivers/STM32WBxx_HAL_Driver/Inc/stm32wbxx_ll_bus.h ****   */
 864:Drivers/STM32WBxx_HAL_Driver/Inc/stm32wbxx_ll_bus.h **** 
 865:Drivers/STM32WBxx_HAL_Driver/Inc/stm32wbxx_ll_bus.h **** /** @defgroup BUS_LL_EF_APB1 APB1
 866:Drivers/STM32WBxx_HAL_Driver/Inc/stm32wbxx_ll_bus.h ****   * @{
 867:Drivers/STM32WBxx_HAL_Driver/Inc/stm32wbxx_ll_bus.h ****   */
 868:Drivers/STM32WBxx_HAL_Driver/Inc/stm32wbxx_ll_bus.h **** 
 869:Drivers/STM32WBxx_HAL_Driver/Inc/stm32wbxx_ll_bus.h **** /**
 870:Drivers/STM32WBxx_HAL_Driver/Inc/stm32wbxx_ll_bus.h ****   * @brief  Enable APB1 peripherals clock.
 871:Drivers/STM32WBxx_HAL_Driver/Inc/stm32wbxx_ll_bus.h ****   * @rmtoll APB1ENR1     TIM2EN        LL_APB1_GRP1_EnableClock\n
 872:Drivers/STM32WBxx_HAL_Driver/Inc/stm32wbxx_ll_bus.h ****   *         APB1ENR1     LCDEN         LL_APB1_GRP1_EnableClock\n
 873:Drivers/STM32WBxx_HAL_Driver/Inc/stm32wbxx_ll_bus.h ****   *         APB1ENR1     RTCAPBEN      LL_APB1_GRP1_EnableClock\n
 874:Drivers/STM32WBxx_HAL_Driver/Inc/stm32wbxx_ll_bus.h ****   *         APB1ENR1     WWDGEN        LL_APB1_GRP1_EnableClock\n
 875:Drivers/STM32WBxx_HAL_Driver/Inc/stm32wbxx_ll_bus.h ****   *         APB1ENR1     SPI2EN        LL_APB1_GRP1_EnableClock\n
 876:Drivers/STM32WBxx_HAL_Driver/Inc/stm32wbxx_ll_bus.h ****   *         APB1ENR1     I2C1EN        LL_APB1_GRP1_EnableClock\n
 877:Drivers/STM32WBxx_HAL_Driver/Inc/stm32wbxx_ll_bus.h ****   *         APB1ENR1     I2C3EN        LL_APB1_GRP1_EnableClock\n
 878:Drivers/STM32WBxx_HAL_Driver/Inc/stm32wbxx_ll_bus.h ****   *         APB1ENR1     CRSEN         LL_APB1_GRP1_EnableClock\n
 879:Drivers/STM32WBxx_HAL_Driver/Inc/stm32wbxx_ll_bus.h ****   *         APB1ENR1     USBEN         LL_APB1_GRP1_EnableClock\n
 880:Drivers/STM32WBxx_HAL_Driver/Inc/stm32wbxx_ll_bus.h ****   *         APB1ENR1     LPTIM1EN      LL_APB1_GRP1_EnableClock
 881:Drivers/STM32WBxx_HAL_Driver/Inc/stm32wbxx_ll_bus.h ****   * @param  Periphs This parameter can be a combination of the following values:
 882:Drivers/STM32WBxx_HAL_Driver/Inc/stm32wbxx_ll_bus.h ****   *         @arg @ref LL_APB1_GRP1_PERIPH_TIM2
 883:Drivers/STM32WBxx_HAL_Driver/Inc/stm32wbxx_ll_bus.h ****   *         @arg @ref LL_APB1_GRP1_PERIPH_LCD
 884:Drivers/STM32WBxx_HAL_Driver/Inc/stm32wbxx_ll_bus.h ****   *         @arg @ref LL_APB1_GRP1_PERIPH_RTCAPB
 885:Drivers/STM32WBxx_HAL_Driver/Inc/stm32wbxx_ll_bus.h ****   *         @arg @ref LL_APB1_GRP1_PERIPH_WWDG
 886:Drivers/STM32WBxx_HAL_Driver/Inc/stm32wbxx_ll_bus.h ****   *         @arg @ref LL_APB1_GRP1_PERIPH_SPI2
 887:Drivers/STM32WBxx_HAL_Driver/Inc/stm32wbxx_ll_bus.h ****   *         @arg @ref LL_APB1_GRP1_PERIPH_I2C1
 888:Drivers/STM32WBxx_HAL_Driver/Inc/stm32wbxx_ll_bus.h ****   *         @arg @ref LL_APB1_GRP1_PERIPH_I2C3
 889:Drivers/STM32WBxx_HAL_Driver/Inc/stm32wbxx_ll_bus.h ****   *         @arg @ref LL_APB1_GRP1_PERIPH_CRS
 890:Drivers/STM32WBxx_HAL_Driver/Inc/stm32wbxx_ll_bus.h ****   *         @arg @ref LL_APB1_GRP1_PERIPH_USB
 891:Drivers/STM32WBxx_HAL_Driver/Inc/stm32wbxx_ll_bus.h ****   *         @arg @ref LL_APB1_GRP1_PERIPH_LPTIM1
 892:Drivers/STM32WBxx_HAL_Driver/Inc/stm32wbxx_ll_bus.h ****   * @retval None
 893:Drivers/STM32WBxx_HAL_Driver/Inc/stm32wbxx_ll_bus.h **** */
 894:Drivers/STM32WBxx_HAL_Driver/Inc/stm32wbxx_ll_bus.h **** __STATIC_INLINE void LL_APB1_GRP1_EnableClock(uint32_t Periphs)
 197              		.loc 2 894 22 view .LVU43
 198              	.LBB11:
 895:Drivers/STM32WBxx_HAL_Driver/Inc/stm32wbxx_ll_bus.h **** {
 896:Drivers/STM32WBxx_HAL_Driver/Inc/stm32wbxx_ll_bus.h ****   __IO uint32_t tmpreg;
 199              		.loc 2 896 3 view .LVU44
 897:Drivers/STM32WBxx_HAL_Driver/Inc/stm32wbxx_ll_bus.h ****   SET_BIT(RCC->APB1ENR1, Periphs);
 200              		.loc 2 897 3 view .LVU45
 201 0050 A36D     		ldr	r3, [r4, #88]
 202 0052 43F08063 		orr	r3, r3, #67108864
 203 0056 A365     		str	r3, [r4, #88]
 898:Drivers/STM32WBxx_HAL_Driver/Inc/stm32wbxx_ll_bus.h ****   /* Delay after an RCC peripheral clock enabling */
 899:Drivers/STM32WBxx_HAL_Driver/Inc/stm32wbxx_ll_bus.h ****   tmpreg = READ_BIT(RCC->APB1ENR1, Periphs);
 204              		.loc 2 899 3 view .LVU46
 205              		.loc 2 899 12 is_stmt 0 view .LVU47
 206 0058 A36D     		ldr	r3, [r4, #88]
 207 005a 03F08063 		and	r3, r3, #67108864
 208              		.loc 2 899 10 view .LVU48
ARM GAS  /tmp/ccL4sKcp.s 			page 35


 209 005e 0193     		str	r3, [sp, #4]
 900:Drivers/STM32WBxx_HAL_Driver/Inc/stm32wbxx_ll_bus.h ****   (void)tmpreg;
 210              		.loc 2 900 3 is_stmt 1 view .LVU49
 211 0060 019B     		ldr	r3, [sp, #4]
 212              	.LVL12:
 213              		.loc 2 900 3 is_stmt 0 view .LVU50
 214              	.LBE11:
 215              	.LBE10:
  99:Src/usbd_conf.c ****     HAL_NVIC_EnableIRQ(USB_LP_IRQn);
 216              		.loc 1 99 5 is_stmt 1 view .LVU51
 217 0062 2A46     		mov	r2, r5
 218 0064 2946     		mov	r1, r5
 219 0066 1420     		movs	r0, #20
 220 0068 FFF7FEFF 		bl	HAL_NVIC_SetPriority
 221              	.LVL13:
 100:Src/usbd_conf.c ****   /* USER CODE BEGIN USB_MspInit 1 */
 222              		.loc 1 100 5 view .LVU52
 223 006c 1420     		movs	r0, #20
 224 006e FFF7FEFF 		bl	HAL_NVIC_EnableIRQ
 225              	.LVL14:
 105:Src/usbd_conf.c **** 
 226              		.loc 1 105 1 is_stmt 0 view .LVU53
 227 0072 D1E7     		b	.L9
 228              	.L14:
 229              		.align	2
 230              	.L13:
 231 0074 00680040 		.word	1073768448
 232              		.cfi_endproc
 233              	.LFE944:
 235              		.section	.text.HAL_PCD_MspDeInit,"ax",%progbits
 236              		.align	1
 237              		.global	HAL_PCD_MspDeInit
 238              		.syntax unified
 239              		.thumb
 240              		.thumb_func
 241              		.fpu fpv4-sp-d16
 243              	HAL_PCD_MspDeInit:
 244              	.LVL15:
 245              	.LFB945:
 112:Src/usbd_conf.c ****   if(pcdHandle->Instance==USB)
 246              		.loc 1 112 1 is_stmt 1 view -0
 247              		.cfi_startproc
 248              		@ args = 0, pretend = 0, frame = 0
 249              		@ frame_needed = 0, uses_anonymous_args = 0
 112:Src/usbd_conf.c ****   if(pcdHandle->Instance==USB)
 250              		.loc 1 112 1 is_stmt 0 view .LVU55
 251 0000 08B5     		push	{r3, lr}
 252              	.LCFI5:
 253              		.cfi_def_cfa_offset 8
 254              		.cfi_offset 3, -8
 255              		.cfi_offset 14, -4
 113:Src/usbd_conf.c ****   {
 256              		.loc 1 113 3 is_stmt 1 view .LVU56
 113:Src/usbd_conf.c ****   {
 257              		.loc 1 113 15 is_stmt 0 view .LVU57
 258 0002 0268     		ldr	r2, [r0]
 113:Src/usbd_conf.c ****   {
ARM GAS  /tmp/ccL4sKcp.s 			page 36


 259              		.loc 1 113 5 view .LVU58
 260 0004 094B     		ldr	r3, .L19
 261 0006 9A42     		cmp	r2, r3
 262 0008 00D0     		beq	.L18
 263              	.LVL16:
 264              	.L15:
 134:Src/usbd_conf.c **** 
 265              		.loc 1 134 1 view .LVU59
 266 000a 08BD     		pop	{r3, pc}
 267              	.LVL17:
 268              	.L18:
 119:Src/usbd_conf.c ****   
 269              		.loc 1 119 5 is_stmt 1 view .LVU60
 270              	.LBB12:
 271              	.LBI12:
 901:Drivers/STM32WBxx_HAL_Driver/Inc/stm32wbxx_ll_bus.h **** }
 902:Drivers/STM32WBxx_HAL_Driver/Inc/stm32wbxx_ll_bus.h **** 
 903:Drivers/STM32WBxx_HAL_Driver/Inc/stm32wbxx_ll_bus.h **** /**
 904:Drivers/STM32WBxx_HAL_Driver/Inc/stm32wbxx_ll_bus.h ****   * @brief  Enable APB1 peripherals clock.
 905:Drivers/STM32WBxx_HAL_Driver/Inc/stm32wbxx_ll_bus.h ****   * @rmtoll APB1ENR2     LPUART1EN     LL_APB1_GRP2_EnableClock\n
 906:Drivers/STM32WBxx_HAL_Driver/Inc/stm32wbxx_ll_bus.h ****   *         APB1ENR2     LPTIM2EN      LL_APB1_GRP2_EnableClock
 907:Drivers/STM32WBxx_HAL_Driver/Inc/stm32wbxx_ll_bus.h ****   * @param  Periphs This parameter can be a combination of the following values:
 908:Drivers/STM32WBxx_HAL_Driver/Inc/stm32wbxx_ll_bus.h ****   *         @arg @ref LL_APB1_GRP2_PERIPH_LPUART1
 909:Drivers/STM32WBxx_HAL_Driver/Inc/stm32wbxx_ll_bus.h ****   *         @arg @ref LL_APB1_GRP2_PERIPH_LPTIM2
 910:Drivers/STM32WBxx_HAL_Driver/Inc/stm32wbxx_ll_bus.h ****   * @retval None
 911:Drivers/STM32WBxx_HAL_Driver/Inc/stm32wbxx_ll_bus.h **** */
 912:Drivers/STM32WBxx_HAL_Driver/Inc/stm32wbxx_ll_bus.h **** __STATIC_INLINE void LL_APB1_GRP2_EnableClock(uint32_t Periphs)
 913:Drivers/STM32WBxx_HAL_Driver/Inc/stm32wbxx_ll_bus.h **** {
 914:Drivers/STM32WBxx_HAL_Driver/Inc/stm32wbxx_ll_bus.h ****   __IO uint32_t tmpreg;
 915:Drivers/STM32WBxx_HAL_Driver/Inc/stm32wbxx_ll_bus.h ****   SET_BIT(RCC->APB1ENR2, Periphs);
 916:Drivers/STM32WBxx_HAL_Driver/Inc/stm32wbxx_ll_bus.h ****   /* Delay after an RCC peripheral clock enabling */
 917:Drivers/STM32WBxx_HAL_Driver/Inc/stm32wbxx_ll_bus.h ****   tmpreg = READ_BIT(RCC->APB1ENR2, Periphs);
 918:Drivers/STM32WBxx_HAL_Driver/Inc/stm32wbxx_ll_bus.h ****   (void)tmpreg;
 919:Drivers/STM32WBxx_HAL_Driver/Inc/stm32wbxx_ll_bus.h **** }
 920:Drivers/STM32WBxx_HAL_Driver/Inc/stm32wbxx_ll_bus.h **** 
 921:Drivers/STM32WBxx_HAL_Driver/Inc/stm32wbxx_ll_bus.h **** /**
 922:Drivers/STM32WBxx_HAL_Driver/Inc/stm32wbxx_ll_bus.h ****   * @brief  Check if APB1 peripheral clock is enabled or not
 923:Drivers/STM32WBxx_HAL_Driver/Inc/stm32wbxx_ll_bus.h ****   * @rmtoll APB1ENR1     TIM2EN        LL_APB1_GRP1_IsEnabledClock\n
 924:Drivers/STM32WBxx_HAL_Driver/Inc/stm32wbxx_ll_bus.h ****   *         APB1ENR1     LCDEN         LL_APB1_GRP1_IsEnabledClock\n
 925:Drivers/STM32WBxx_HAL_Driver/Inc/stm32wbxx_ll_bus.h ****   *         APB1ENR1     RTCAPBEN      LL_APB1_GRP1_IsEnabledClock\n
 926:Drivers/STM32WBxx_HAL_Driver/Inc/stm32wbxx_ll_bus.h ****   *         APB1ENR1     WWDGEN        LL_APB1_GRP1_IsEnabledClock\n
 927:Drivers/STM32WBxx_HAL_Driver/Inc/stm32wbxx_ll_bus.h ****   *         APB1ENR1     SPI2EN        LL_APB1_GRP1_IsEnabledClock\n
 928:Drivers/STM32WBxx_HAL_Driver/Inc/stm32wbxx_ll_bus.h ****   *         APB1ENR1     I2C1EN        LL_APB1_GRP1_IsEnabledClock\n
 929:Drivers/STM32WBxx_HAL_Driver/Inc/stm32wbxx_ll_bus.h ****   *         APB1ENR1     I2C3EN        LL_APB1_GRP1_IsEnabledClock\n
 930:Drivers/STM32WBxx_HAL_Driver/Inc/stm32wbxx_ll_bus.h ****   *         APB1ENR1     CRSEN         LL_APB1_GRP1_IsEnabledClock\n
 931:Drivers/STM32WBxx_HAL_Driver/Inc/stm32wbxx_ll_bus.h ****   *         APB1ENR1     USBEN         LL_APB1_GRP1_IsEnabledClock\n
 932:Drivers/STM32WBxx_HAL_Driver/Inc/stm32wbxx_ll_bus.h ****   *         APB1ENR1     LPTIM1EN      LL_APB1_GRP1_IsEnabledClock
 933:Drivers/STM32WBxx_HAL_Driver/Inc/stm32wbxx_ll_bus.h ****   * @param  Periphs This parameter can be a combination of the following values:
 934:Drivers/STM32WBxx_HAL_Driver/Inc/stm32wbxx_ll_bus.h ****   *         @arg @ref LL_APB1_GRP1_PERIPH_TIM2
 935:Drivers/STM32WBxx_HAL_Driver/Inc/stm32wbxx_ll_bus.h ****   *         @arg @ref LL_APB1_GRP1_PERIPH_LCD
 936:Drivers/STM32WBxx_HAL_Driver/Inc/stm32wbxx_ll_bus.h ****   *         @arg @ref LL_APB1_GRP1_PERIPH_RTCAPB
 937:Drivers/STM32WBxx_HAL_Driver/Inc/stm32wbxx_ll_bus.h ****   *         @arg @ref LL_APB1_GRP1_PERIPH_WWDG
 938:Drivers/STM32WBxx_HAL_Driver/Inc/stm32wbxx_ll_bus.h ****   *         @arg @ref LL_APB1_GRP1_PERIPH_SPI2
 939:Drivers/STM32WBxx_HAL_Driver/Inc/stm32wbxx_ll_bus.h ****   *         @arg @ref LL_APB1_GRP1_PERIPH_I2C1
 940:Drivers/STM32WBxx_HAL_Driver/Inc/stm32wbxx_ll_bus.h ****   *         @arg @ref LL_APB1_GRP1_PERIPH_I2C3
 941:Drivers/STM32WBxx_HAL_Driver/Inc/stm32wbxx_ll_bus.h ****   *         @arg @ref LL_APB1_GRP1_PERIPH_CRS
 942:Drivers/STM32WBxx_HAL_Driver/Inc/stm32wbxx_ll_bus.h ****   *         @arg @ref LL_APB1_GRP1_PERIPH_USB
ARM GAS  /tmp/ccL4sKcp.s 			page 37


 943:Drivers/STM32WBxx_HAL_Driver/Inc/stm32wbxx_ll_bus.h ****   *         @arg @ref LL_APB1_GRP1_PERIPH_LPTIM1
 944:Drivers/STM32WBxx_HAL_Driver/Inc/stm32wbxx_ll_bus.h ****   * @retval uint32_t
 945:Drivers/STM32WBxx_HAL_Driver/Inc/stm32wbxx_ll_bus.h **** */
 946:Drivers/STM32WBxx_HAL_Driver/Inc/stm32wbxx_ll_bus.h **** __STATIC_INLINE uint32_t LL_APB1_GRP1_IsEnabledClock(uint32_t Periphs)
 947:Drivers/STM32WBxx_HAL_Driver/Inc/stm32wbxx_ll_bus.h **** {
 948:Drivers/STM32WBxx_HAL_Driver/Inc/stm32wbxx_ll_bus.h ****   return ((READ_BIT(RCC->APB1ENR1, Periphs) == (Periphs)) ? 1UL : 0UL);
 949:Drivers/STM32WBxx_HAL_Driver/Inc/stm32wbxx_ll_bus.h **** }
 950:Drivers/STM32WBxx_HAL_Driver/Inc/stm32wbxx_ll_bus.h **** 
 951:Drivers/STM32WBxx_HAL_Driver/Inc/stm32wbxx_ll_bus.h **** /**
 952:Drivers/STM32WBxx_HAL_Driver/Inc/stm32wbxx_ll_bus.h ****   * @brief  Check if APB1 peripheral clock is enabled or not
 953:Drivers/STM32WBxx_HAL_Driver/Inc/stm32wbxx_ll_bus.h ****   * @rmtoll APB1ENR2     LPUART1EN     LL_APB1_GRP2_IsEnabledClock\n
 954:Drivers/STM32WBxx_HAL_Driver/Inc/stm32wbxx_ll_bus.h ****   *         APB1ENR2     LPTIM2EN      LL_APB1_GRP2_IsEnabledClock
 955:Drivers/STM32WBxx_HAL_Driver/Inc/stm32wbxx_ll_bus.h ****   * @param  Periphs This parameter can be a combination of the following values:
 956:Drivers/STM32WBxx_HAL_Driver/Inc/stm32wbxx_ll_bus.h ****   *         @arg @ref LL_APB1_GRP2_PERIPH_LPUART1
 957:Drivers/STM32WBxx_HAL_Driver/Inc/stm32wbxx_ll_bus.h ****   *         @arg @ref LL_APB1_GRP2_PERIPH_LPTIM2
 958:Drivers/STM32WBxx_HAL_Driver/Inc/stm32wbxx_ll_bus.h ****   * @retval uint32_t
 959:Drivers/STM32WBxx_HAL_Driver/Inc/stm32wbxx_ll_bus.h **** */
 960:Drivers/STM32WBxx_HAL_Driver/Inc/stm32wbxx_ll_bus.h **** __STATIC_INLINE uint32_t LL_APB1_GRP2_IsEnabledClock(uint32_t Periphs)
 961:Drivers/STM32WBxx_HAL_Driver/Inc/stm32wbxx_ll_bus.h **** {
 962:Drivers/STM32WBxx_HAL_Driver/Inc/stm32wbxx_ll_bus.h ****   return ((READ_BIT(RCC->APB1ENR2, Periphs) == (Periphs)) ? 1UL : 0UL);
 963:Drivers/STM32WBxx_HAL_Driver/Inc/stm32wbxx_ll_bus.h **** }
 964:Drivers/STM32WBxx_HAL_Driver/Inc/stm32wbxx_ll_bus.h **** 
 965:Drivers/STM32WBxx_HAL_Driver/Inc/stm32wbxx_ll_bus.h **** /**
 966:Drivers/STM32WBxx_HAL_Driver/Inc/stm32wbxx_ll_bus.h ****   * @brief  Disable APB1 peripherals clock.
 967:Drivers/STM32WBxx_HAL_Driver/Inc/stm32wbxx_ll_bus.h ****   * @rmtoll APB1ENR1     TIM2EN        LL_APB1_GRP1_DisableClock\n
 968:Drivers/STM32WBxx_HAL_Driver/Inc/stm32wbxx_ll_bus.h ****   *         APB1ENR1     LCDEN         LL_APB1_GRP1_DisableClock\n
 969:Drivers/STM32WBxx_HAL_Driver/Inc/stm32wbxx_ll_bus.h ****   *         APB1ENR1     RTCAPBEN      LL_APB1_GRP1_DisableClock\n
 970:Drivers/STM32WBxx_HAL_Driver/Inc/stm32wbxx_ll_bus.h ****   *         APB1ENR1     SPI2EN        LL_APB1_GRP1_DisableClock\n
 971:Drivers/STM32WBxx_HAL_Driver/Inc/stm32wbxx_ll_bus.h ****   *         APB1ENR1     I2C1EN        LL_APB1_GRP1_DisableClock\n
 972:Drivers/STM32WBxx_HAL_Driver/Inc/stm32wbxx_ll_bus.h ****   *         APB1ENR1     I2C3EN        LL_APB1_GRP1_DisableClock\n
 973:Drivers/STM32WBxx_HAL_Driver/Inc/stm32wbxx_ll_bus.h ****   *         APB1ENR1     CRSEN         LL_APB1_GRP1_DisableClock\n
 974:Drivers/STM32WBxx_HAL_Driver/Inc/stm32wbxx_ll_bus.h ****   *         APB1ENR1     USBEN         LL_APB1_GRP1_DisableClock\n
 975:Drivers/STM32WBxx_HAL_Driver/Inc/stm32wbxx_ll_bus.h ****   *         APB1ENR1     LPTIM1EN      LL_APB1_GRP1_DisableClock
 976:Drivers/STM32WBxx_HAL_Driver/Inc/stm32wbxx_ll_bus.h ****   * @param  Periphs This parameter can be a combination of the following values:
 977:Drivers/STM32WBxx_HAL_Driver/Inc/stm32wbxx_ll_bus.h ****   *         @arg @ref LL_APB1_GRP1_PERIPH_TIM2
 978:Drivers/STM32WBxx_HAL_Driver/Inc/stm32wbxx_ll_bus.h ****   *         @arg @ref LL_APB1_GRP1_PERIPH_LCD
 979:Drivers/STM32WBxx_HAL_Driver/Inc/stm32wbxx_ll_bus.h ****   *         @arg @ref LL_APB1_GRP1_PERIPH_RTCAPB
 980:Drivers/STM32WBxx_HAL_Driver/Inc/stm32wbxx_ll_bus.h ****   *         @arg @ref LL_APB1_GRP1_PERIPH_WWDG
 981:Drivers/STM32WBxx_HAL_Driver/Inc/stm32wbxx_ll_bus.h ****   *         @arg @ref LL_APB1_GRP1_PERIPH_SPI2
 982:Drivers/STM32WBxx_HAL_Driver/Inc/stm32wbxx_ll_bus.h ****   *         @arg @ref LL_APB1_GRP1_PERIPH_I2C1
 983:Drivers/STM32WBxx_HAL_Driver/Inc/stm32wbxx_ll_bus.h ****   *         @arg @ref LL_APB1_GRP1_PERIPH_I2C3
 984:Drivers/STM32WBxx_HAL_Driver/Inc/stm32wbxx_ll_bus.h ****   *         @arg @ref LL_APB1_GRP1_PERIPH_CRS
 985:Drivers/STM32WBxx_HAL_Driver/Inc/stm32wbxx_ll_bus.h ****   *         @arg @ref LL_APB1_GRP1_PERIPH_USB
 986:Drivers/STM32WBxx_HAL_Driver/Inc/stm32wbxx_ll_bus.h ****   *         @arg @ref LL_APB1_GRP1_PERIPH_LPTIM1
 987:Drivers/STM32WBxx_HAL_Driver/Inc/stm32wbxx_ll_bus.h ****   * @retval None
 988:Drivers/STM32WBxx_HAL_Driver/Inc/stm32wbxx_ll_bus.h **** */
 989:Drivers/STM32WBxx_HAL_Driver/Inc/stm32wbxx_ll_bus.h **** __STATIC_INLINE void LL_APB1_GRP1_DisableClock(uint32_t Periphs)
 272              		.loc 2 989 22 view .LVU61
 273              	.LBB13:
 990:Drivers/STM32WBxx_HAL_Driver/Inc/stm32wbxx_ll_bus.h **** {
 991:Drivers/STM32WBxx_HAL_Driver/Inc/stm32wbxx_ll_bus.h ****   CLEAR_BIT(RCC->APB1ENR1, Periphs);
 274              		.loc 2 991 3 view .LVU62
 275 000c 4FF0B042 		mov	r2, #1476395008
 276 0010 936D     		ldr	r3, [r2, #88]
 277 0012 23F08063 		bic	r3, r3, #67108864
 278 0016 9365     		str	r3, [r2, #88]
 279              	.LVL18:
ARM GAS  /tmp/ccL4sKcp.s 			page 38


 280              		.loc 2 991 3 is_stmt 0 view .LVU63
 281              	.LBE13:
 282              	.LBE12:
 125:Src/usbd_conf.c **** 
 283              		.loc 1 125 5 is_stmt 1 view .LVU64
 284 0018 4FF4C051 		mov	r1, #6144
 285 001c 4FF09040 		mov	r0, #1207959552
 286              	.LVL19:
 125:Src/usbd_conf.c **** 
 287              		.loc 1 125 5 is_stmt 0 view .LVU65
 288 0020 FFF7FEFF 		bl	HAL_GPIO_DeInit
 289              	.LVL20:
 128:Src/usbd_conf.c **** 
 290              		.loc 1 128 5 is_stmt 1 view .LVU66
 291 0024 1420     		movs	r0, #20
 292 0026 FFF7FEFF 		bl	HAL_NVIC_DisableIRQ
 293              	.LVL21:
 134:Src/usbd_conf.c **** 
 294              		.loc 1 134 1 is_stmt 0 view .LVU67
 295 002a EEE7     		b	.L15
 296              	.L20:
 297              		.align	2
 298              	.L19:
 299 002c 00680040 		.word	1073768448
 300              		.cfi_endproc
 301              	.LFE945:
 303              		.section	.text.HAL_PCD_SetupStageCallback,"ax",%progbits
 304              		.align	1
 305              		.global	HAL_PCD_SetupStageCallback
 306              		.syntax unified
 307              		.thumb
 308              		.thumb_func
 309              		.fpu fpv4-sp-d16
 311              	HAL_PCD_SetupStageCallback:
 312              	.LVL22:
 313              	.LFB946:
 146:Src/usbd_conf.c ****   /* USER CODE BEGIN HAL_PCD_SetupStageCallback_PreTreatment */
 314              		.loc 1 146 1 is_stmt 1 view -0
 315              		.cfi_startproc
 316              		@ args = 0, pretend = 0, frame = 0
 317              		@ frame_needed = 0, uses_anonymous_args = 0
 146:Src/usbd_conf.c ****   /* USER CODE BEGIN HAL_PCD_SetupStageCallback_PreTreatment */
 318              		.loc 1 146 1 is_stmt 0 view .LVU69
 319 0000 08B5     		push	{r3, lr}
 320              	.LCFI6:
 321              		.cfi_def_cfa_offset 8
 322              		.cfi_offset 3, -8
 323              		.cfi_offset 14, -4
 150:Src/usbd_conf.c ****   /* USER CODE BEGIN HAL_PCD_SetupStageCallback_PostTreatment */
 324              		.loc 1 150 3 is_stmt 1 view .LVU70
 325 0002 00F50C71 		add	r1, r0, #560
 326 0006 D0F87002 		ldr	r0, [r0, #624]
 327              	.LVL23:
 150:Src/usbd_conf.c ****   /* USER CODE BEGIN HAL_PCD_SetupStageCallback_PostTreatment */
 328              		.loc 1 150 3 is_stmt 0 view .LVU71
 329 000a FFF7FEFF 		bl	USBD_LL_SetupStage
 330              	.LVL24:
ARM GAS  /tmp/ccL4sKcp.s 			page 39


 154:Src/usbd_conf.c **** 
 331              		.loc 1 154 1 view .LVU72
 332 000e 08BD     		pop	{r3, pc}
 333              		.cfi_endproc
 334              	.LFE946:
 336              		.section	.text.HAL_PCD_DataOutStageCallback,"ax",%progbits
 337              		.align	1
 338              		.global	HAL_PCD_DataOutStageCallback
 339              		.syntax unified
 340              		.thumb
 341              		.thumb_func
 342              		.fpu fpv4-sp-d16
 344              	HAL_PCD_DataOutStageCallback:
 345              	.LVL25:
 346              	.LFB947:
 167:Src/usbd_conf.c ****   /* USER CODE BEGIN HAL_PCD_DataOutStageCallback_PreTreatment */
 347              		.loc 1 167 1 is_stmt 1 view -0
 348              		.cfi_startproc
 349              		@ args = 0, pretend = 0, frame = 0
 350              		@ frame_needed = 0, uses_anonymous_args = 0
 167:Src/usbd_conf.c ****   /* USER CODE BEGIN HAL_PCD_DataOutStageCallback_PreTreatment */
 351              		.loc 1 167 1 is_stmt 0 view .LVU74
 352 0000 08B5     		push	{r3, lr}
 353              	.LCFI7:
 354              		.cfi_def_cfa_offset 8
 355              		.cfi_offset 3, -8
 356              		.cfi_offset 14, -4
 171:Src/usbd_conf.c ****   /* USER CODE BEGIN HAL_PCD_DataOutStageCallback_PostTreatment */
 357              		.loc 1 171 3 is_stmt 1 view .LVU75
 358 0002 00EB4113 		add	r3, r0, r1, lsl #5
 359 0006 D3F83C21 		ldr	r2, [r3, #316]
 360 000a D0F87002 		ldr	r0, [r0, #624]
 361              	.LVL26:
 171:Src/usbd_conf.c ****   /* USER CODE BEGIN HAL_PCD_DataOutStageCallback_PostTreatment */
 362              		.loc 1 171 3 is_stmt 0 view .LVU76
 363 000e FFF7FEFF 		bl	USBD_LL_DataOutStage
 364              	.LVL27:
 175:Src/usbd_conf.c **** 
 365              		.loc 1 175 1 view .LVU77
 366 0012 08BD     		pop	{r3, pc}
 367              		.cfi_endproc
 368              	.LFE947:
 370              		.section	.text.HAL_PCD_DataInStageCallback,"ax",%progbits
 371              		.align	1
 372              		.global	HAL_PCD_DataInStageCallback
 373              		.syntax unified
 374              		.thumb
 375              		.thumb_func
 376              		.fpu fpv4-sp-d16
 378              	HAL_PCD_DataInStageCallback:
 379              	.LVL28:
 380              	.LFB948:
 188:Src/usbd_conf.c ****   /* USER CODE BEGIN HAL_PCD_DataInStageCallback_PreTreatment */
 381              		.loc 1 188 1 is_stmt 1 view -0
 382              		.cfi_startproc
 383              		@ args = 0, pretend = 0, frame = 0
 384              		@ frame_needed = 0, uses_anonymous_args = 0
ARM GAS  /tmp/ccL4sKcp.s 			page 40


 188:Src/usbd_conf.c ****   /* USER CODE BEGIN HAL_PCD_DataInStageCallback_PreTreatment */
 385              		.loc 1 188 1 is_stmt 0 view .LVU79
 386 0000 08B5     		push	{r3, lr}
 387              	.LCFI8:
 388              		.cfi_def_cfa_offset 8
 389              		.cfi_offset 3, -8
 390              		.cfi_offset 14, -4
 192:Src/usbd_conf.c ****   /* USER CODE BEGIN HAL_PCD_DataInStageCallback_PostTreatment  */
 391              		.loc 1 192 3 is_stmt 1 view .LVU80
 392 0002 00EB4113 		add	r3, r0, r1, lsl #5
 393 0006 DA6B     		ldr	r2, [r3, #60]
 394 0008 D0F87002 		ldr	r0, [r0, #624]
 395              	.LVL29:
 192:Src/usbd_conf.c ****   /* USER CODE BEGIN HAL_PCD_DataInStageCallback_PostTreatment  */
 396              		.loc 1 192 3 is_stmt 0 view .LVU81
 397 000c FFF7FEFF 		bl	USBD_LL_DataInStage
 398              	.LVL30:
 196:Src/usbd_conf.c **** 
 399              		.loc 1 196 1 view .LVU82
 400 0010 08BD     		pop	{r3, pc}
 401              		.cfi_endproc
 402              	.LFE948:
 404              		.section	.text.HAL_PCD_SOFCallback,"ax",%progbits
 405              		.align	1
 406              		.global	HAL_PCD_SOFCallback
 407              		.syntax unified
 408              		.thumb
 409              		.thumb_func
 410              		.fpu fpv4-sp-d16
 412              	HAL_PCD_SOFCallback:
 413              	.LVL31:
 414              	.LFB949:
 208:Src/usbd_conf.c ****   /* USER CODE BEGIN HAL_PCD_SOFCallback_PreTreatment */
 415              		.loc 1 208 1 is_stmt 1 view -0
 416              		.cfi_startproc
 417              		@ args = 0, pretend = 0, frame = 0
 418              		@ frame_needed = 0, uses_anonymous_args = 0
 208:Src/usbd_conf.c ****   /* USER CODE BEGIN HAL_PCD_SOFCallback_PreTreatment */
 419              		.loc 1 208 1 is_stmt 0 view .LVU84
 420 0000 08B5     		push	{r3, lr}
 421              	.LCFI9:
 422              		.cfi_def_cfa_offset 8
 423              		.cfi_offset 3, -8
 424              		.cfi_offset 14, -4
 212:Src/usbd_conf.c ****   /* USER CODE BEGIN HAL_PCD_SOFCallback_PostTreatment */
 425              		.loc 1 212 3 is_stmt 1 view .LVU85
 426 0002 D0F87002 		ldr	r0, [r0, #624]
 427              	.LVL32:
 212:Src/usbd_conf.c ****   /* USER CODE BEGIN HAL_PCD_SOFCallback_PostTreatment */
 428              		.loc 1 212 3 is_stmt 0 view .LVU86
 429 0006 FFF7FEFF 		bl	USBD_LL_SOF
 430              	.LVL33:
 216:Src/usbd_conf.c **** 
 431              		.loc 1 216 1 view .LVU87
 432 000a 08BD     		pop	{r3, pc}
 433              		.cfi_endproc
 434              	.LFE949:
ARM GAS  /tmp/ccL4sKcp.s 			page 41


 436              		.section	.text.HAL_PCD_ResetCallback,"ax",%progbits
 437              		.align	1
 438              		.global	HAL_PCD_ResetCallback
 439              		.syntax unified
 440              		.thumb
 441              		.thumb_func
 442              		.fpu fpv4-sp-d16
 444              	HAL_PCD_ResetCallback:
 445              	.LVL34:
 446              	.LFB950:
 228:Src/usbd_conf.c ****   /* USER CODE BEGIN HAL_PCD_ResetCallback_PreTreatment */
 447              		.loc 1 228 1 is_stmt 1 view -0
 448              		.cfi_startproc
 449              		@ args = 0, pretend = 0, frame = 0
 450              		@ frame_needed = 0, uses_anonymous_args = 0
 228:Src/usbd_conf.c ****   /* USER CODE BEGIN HAL_PCD_ResetCallback_PreTreatment */
 451              		.loc 1 228 1 is_stmt 0 view .LVU89
 452 0000 10B5     		push	{r4, lr}
 453              	.LCFI10:
 454              		.cfi_def_cfa_offset 8
 455              		.cfi_offset 4, -8
 456              		.cfi_offset 14, -4
 457 0002 0446     		mov	r4, r0
 232:Src/usbd_conf.c **** 
 458              		.loc 1 232 3 is_stmt 1 view .LVU90
 459              	.LVL35:
 234:Src/usbd_conf.c ****   {
 460              		.loc 1 234 3 view .LVU91
 234:Src/usbd_conf.c ****   {
 461              		.loc 1 234 18 is_stmt 0 view .LVU92
 462 0004 8368     		ldr	r3, [r0, #8]
 234:Src/usbd_conf.c ****   {
 463              		.loc 1 234 6 view .LVU93
 464 0006 022B     		cmp	r3, #2
 465 0008 09D1     		bne	.L32
 466              	.LVL36:
 467              	.L30:
 239:Src/usbd_conf.c **** 
 468              		.loc 1 239 3 is_stmt 1 view .LVU94
 469 000a 0121     		movs	r1, #1
 470 000c D4F87002 		ldr	r0, [r4, #624]
 471 0010 FFF7FEFF 		bl	USBD_LL_SetSpeed
 472              	.LVL37:
 242:Src/usbd_conf.c ****   /* USER CODE BEGIN HAL_PCD_ResetCallback_PostTreatment */
 473              		.loc 1 242 3 view .LVU95
 474 0014 D4F87002 		ldr	r0, [r4, #624]
 475 0018 FFF7FEFF 		bl	USBD_LL_Reset
 476              	.LVL38:
 246:Src/usbd_conf.c **** 
 477              		.loc 1 246 1 is_stmt 0 view .LVU96
 478 001c 10BD     		pop	{r4, pc}
 479              	.LVL39:
 480              	.L32:
 236:Src/usbd_conf.c ****   }
 481              		.loc 1 236 5 is_stmt 1 view .LVU97
 482 001e FFF7FEFF 		bl	Error_Handler
 483              	.LVL40:
ARM GAS  /tmp/ccL4sKcp.s 			page 42


 236:Src/usbd_conf.c ****   }
 484              		.loc 1 236 5 is_stmt 0 view .LVU98
 485 0022 F2E7     		b	.L30
 486              		.cfi_endproc
 487              	.LFE950:
 489              		.section	.text.HAL_PCD_SuspendCallback,"ax",%progbits
 490              		.align	1
 491              		.global	HAL_PCD_SuspendCallback
 492              		.syntax unified
 493              		.thumb
 494              		.thumb_func
 495              		.fpu fpv4-sp-d16
 497              	HAL_PCD_SuspendCallback:
 498              	.LVL41:
 499              	.LFB951:
 259:Src/usbd_conf.c ****   /* USER CODE BEGIN HAL_PCD_SuspendCallback_PreTreatment */
 500              		.loc 1 259 1 is_stmt 1 view -0
 501              		.cfi_startproc
 502              		@ args = 0, pretend = 0, frame = 0
 503              		@ frame_needed = 0, uses_anonymous_args = 0
 259:Src/usbd_conf.c ****   /* USER CODE BEGIN HAL_PCD_SuspendCallback_PreTreatment */
 504              		.loc 1 259 1 is_stmt 0 view .LVU100
 505 0000 10B5     		push	{r4, lr}
 506              	.LCFI11:
 507              		.cfi_def_cfa_offset 8
 508              		.cfi_offset 4, -8
 509              		.cfi_offset 14, -4
 510 0002 0446     		mov	r4, r0
 264:Src/usbd_conf.c ****   /* Enter in STOP mode. */
 511              		.loc 1 264 3 is_stmt 1 view .LVU101
 512 0004 D0F87002 		ldr	r0, [r0, #624]
 513              	.LVL42:
 264:Src/usbd_conf.c ****   /* Enter in STOP mode. */
 514              		.loc 1 264 3 is_stmt 0 view .LVU102
 515 0008 FFF7FEFF 		bl	USBD_LL_Suspend
 516              	.LVL43:
 267:Src/usbd_conf.c ****   {
 517              		.loc 1 267 3 is_stmt 1 view .LVU103
 267:Src/usbd_conf.c ****   {
 518              		.loc 1 267 17 is_stmt 0 view .LVU104
 519 000c A369     		ldr	r3, [r4, #24]
 267:Src/usbd_conf.c ****   {
 520              		.loc 1 267 6 view .LVU105
 521 000e 23B1     		cbz	r3, .L33
 270:Src/usbd_conf.c ****   }
 522              		.loc 1 270 5 is_stmt 1 view .LVU106
 270:Src/usbd_conf.c ****   }
 523              		.loc 1 270 14 is_stmt 0 view .LVU107
 524 0010 024A     		ldr	r2, .L36
 525 0012 1369     		ldr	r3, [r2, #16]
 526 0014 43F00603 		orr	r3, r3, #6
 527 0018 1361     		str	r3, [r2, #16]
 528              	.L33:
 276:Src/usbd_conf.c **** 
 529              		.loc 1 276 1 view .LVU108
 530 001a 10BD     		pop	{r4, pc}
 531              	.LVL44:
ARM GAS  /tmp/ccL4sKcp.s 			page 43


 532              	.L37:
 276:Src/usbd_conf.c **** 
 533              		.loc 1 276 1 view .LVU109
 534              		.align	2
 535              	.L36:
 536 001c 00ED00E0 		.word	-536810240
 537              		.cfi_endproc
 538              	.LFE951:
 540              		.section	.text.HAL_PCD_ResumeCallback,"ax",%progbits
 541              		.align	1
 542              		.global	HAL_PCD_ResumeCallback
 543              		.syntax unified
 544              		.thumb
 545              		.thumb_func
 546              		.fpu fpv4-sp-d16
 548              	HAL_PCD_ResumeCallback:
 549              	.LVL45:
 550              	.LFB952:
 289:Src/usbd_conf.c ****   /* USER CODE BEGIN HAL_PCD_ResumeCallback_PreTreatment */
 551              		.loc 1 289 1 is_stmt 1 view -0
 552              		.cfi_startproc
 553              		@ args = 0, pretend = 0, frame = 0
 554              		@ frame_needed = 0, uses_anonymous_args = 0
 289:Src/usbd_conf.c ****   /* USER CODE BEGIN HAL_PCD_ResumeCallback_PreTreatment */
 555              		.loc 1 289 1 is_stmt 0 view .LVU111
 556 0000 10B5     		push	{r4, lr}
 557              	.LCFI12:
 558              		.cfi_def_cfa_offset 8
 559              		.cfi_offset 4, -8
 560              		.cfi_offset 14, -4
 561 0002 0446     		mov	r4, r0
 295:Src/usbd_conf.c ****   {
 562              		.loc 1 295 3 is_stmt 1 view .LVU112
 295:Src/usbd_conf.c ****   {
 563              		.loc 1 295 17 is_stmt 0 view .LVU113
 564 0004 8369     		ldr	r3, [r0, #24]
 295:Src/usbd_conf.c ****   {
 565              		.loc 1 295 6 view .LVU114
 566 0006 23B9     		cbnz	r3, .L41
 567              	.LVL46:
 568              	.L39:
 303:Src/usbd_conf.c ****   /* USER CODE BEGIN HAL_PCD_ResumeCallback_PostTreatment */
 569              		.loc 1 303 3 is_stmt 1 view .LVU115
 570 0008 D4F87002 		ldr	r0, [r4, #624]
 571 000c FFF7FEFF 		bl	USBD_LL_Resume
 572              	.LVL47:
 307:Src/usbd_conf.c **** 
 573              		.loc 1 307 1 is_stmt 0 view .LVU116
 574 0010 10BD     		pop	{r4, pc}
 575              	.LVL48:
 576              	.L41:
 298:Src/usbd_conf.c ****     SystemClockConfig_Resume();
 577              		.loc 1 298 5 is_stmt 1 view .LVU117
 298:Src/usbd_conf.c ****     SystemClockConfig_Resume();
 578              		.loc 1 298 14 is_stmt 0 view .LVU118
 579 0012 044A     		ldr	r2, .L42
 580 0014 1369     		ldr	r3, [r2, #16]
ARM GAS  /tmp/ccL4sKcp.s 			page 44


 581 0016 23F00603 		bic	r3, r3, #6
 582 001a 1361     		str	r3, [r2, #16]
 299:Src/usbd_conf.c ****   }
 583              		.loc 1 299 5 is_stmt 1 view .LVU119
 584 001c FFF7FEFF 		bl	SystemClockConfig_Resume
 585              	.LVL49:
 299:Src/usbd_conf.c ****   }
 586              		.loc 1 299 5 is_stmt 0 view .LVU120
 587 0020 F2E7     		b	.L39
 588              	.L43:
 589 0022 00BF     		.align	2
 590              	.L42:
 591 0024 00ED00E0 		.word	-536810240
 592              		.cfi_endproc
 593              	.LFE952:
 595              		.section	.text.HAL_PCD_ISOOUTIncompleteCallback,"ax",%progbits
 596              		.align	1
 597              		.global	HAL_PCD_ISOOUTIncompleteCallback
 598              		.syntax unified
 599              		.thumb
 600              		.thumb_func
 601              		.fpu fpv4-sp-d16
 603              	HAL_PCD_ISOOUTIncompleteCallback:
 604              	.LVL50:
 605              	.LFB953:
 320:Src/usbd_conf.c ****   /* USER CODE BEGIN HAL_PCD_ISOOUTIncompleteCallback_PreTreatment */
 606              		.loc 1 320 1 is_stmt 1 view -0
 607              		.cfi_startproc
 608              		@ args = 0, pretend = 0, frame = 0
 609              		@ frame_needed = 0, uses_anonymous_args = 0
 320:Src/usbd_conf.c ****   /* USER CODE BEGIN HAL_PCD_ISOOUTIncompleteCallback_PreTreatment */
 610              		.loc 1 320 1 is_stmt 0 view .LVU122
 611 0000 08B5     		push	{r3, lr}
 612              	.LCFI13:
 613              		.cfi_def_cfa_offset 8
 614              		.cfi_offset 3, -8
 615              		.cfi_offset 14, -4
 324:Src/usbd_conf.c ****   /* USER CODE BEGIN HAL_PCD_ISOOUTIncompleteCallback_PostTreatment */
 616              		.loc 1 324 3 is_stmt 1 view .LVU123
 617 0002 D0F87002 		ldr	r0, [r0, #624]
 618              	.LVL51:
 324:Src/usbd_conf.c ****   /* USER CODE BEGIN HAL_PCD_ISOOUTIncompleteCallback_PostTreatment */
 619              		.loc 1 324 3 is_stmt 0 view .LVU124
 620 0006 FFF7FEFF 		bl	USBD_LL_IsoOUTIncomplete
 621              	.LVL52:
 328:Src/usbd_conf.c **** 
 622              		.loc 1 328 1 view .LVU125
 623 000a 08BD     		pop	{r3, pc}
 624              		.cfi_endproc
 625              	.LFE953:
 627              		.section	.text.HAL_PCD_ISOINIncompleteCallback,"ax",%progbits
 628              		.align	1
 629              		.global	HAL_PCD_ISOINIncompleteCallback
 630              		.syntax unified
 631              		.thumb
 632              		.thumb_func
 633              		.fpu fpv4-sp-d16
ARM GAS  /tmp/ccL4sKcp.s 			page 45


 635              	HAL_PCD_ISOINIncompleteCallback:
 636              	.LVL53:
 637              	.LFB954:
 341:Src/usbd_conf.c ****   /* USER CODE BEGIN HAL_PCD_ISOINIncompleteCallback_PreTreatment */
 638              		.loc 1 341 1 is_stmt 1 view -0
 639              		.cfi_startproc
 640              		@ args = 0, pretend = 0, frame = 0
 641              		@ frame_needed = 0, uses_anonymous_args = 0
 341:Src/usbd_conf.c ****   /* USER CODE BEGIN HAL_PCD_ISOINIncompleteCallback_PreTreatment */
 642              		.loc 1 341 1 is_stmt 0 view .LVU127
 643 0000 08B5     		push	{r3, lr}
 644              	.LCFI14:
 645              		.cfi_def_cfa_offset 8
 646              		.cfi_offset 3, -8
 647              		.cfi_offset 14, -4
 345:Src/usbd_conf.c ****   /* USER CODE BEGIN HAL_PCD_ISOINIncompleteCallback_PostTreatment */
 648              		.loc 1 345 3 is_stmt 1 view .LVU128
 649 0002 D0F87002 		ldr	r0, [r0, #624]
 650              	.LVL54:
 345:Src/usbd_conf.c ****   /* USER CODE BEGIN HAL_PCD_ISOINIncompleteCallback_PostTreatment */
 651              		.loc 1 345 3 is_stmt 0 view .LVU129
 652 0006 FFF7FEFF 		bl	USBD_LL_IsoINIncomplete
 653              	.LVL55:
 349:Src/usbd_conf.c **** 
 654              		.loc 1 349 1 view .LVU130
 655 000a 08BD     		pop	{r3, pc}
 656              		.cfi_endproc
 657              	.LFE954:
 659              		.section	.text.HAL_PCD_ConnectCallback,"ax",%progbits
 660              		.align	1
 661              		.global	HAL_PCD_ConnectCallback
 662              		.syntax unified
 663              		.thumb
 664              		.thumb_func
 665              		.fpu fpv4-sp-d16
 667              	HAL_PCD_ConnectCallback:
 668              	.LVL56:
 669              	.LFB955:
 361:Src/usbd_conf.c ****   /* USER CODE BEGIN HAL_PCD_ConnectCallback_PreTreatment */
 670              		.loc 1 361 1 is_stmt 1 view -0
 671              		.cfi_startproc
 672              		@ args = 0, pretend = 0, frame = 0
 673              		@ frame_needed = 0, uses_anonymous_args = 0
 361:Src/usbd_conf.c ****   /* USER CODE BEGIN HAL_PCD_ConnectCallback_PreTreatment */
 674              		.loc 1 361 1 is_stmt 0 view .LVU132
 675 0000 08B5     		push	{r3, lr}
 676              	.LCFI15:
 677              		.cfi_def_cfa_offset 8
 678              		.cfi_offset 3, -8
 679              		.cfi_offset 14, -4
 365:Src/usbd_conf.c ****   /* USER CODE BEGIN HAL_PCD_ConnectCallback_PostTreatment */
 680              		.loc 1 365 3 is_stmt 1 view .LVU133
 681 0002 D0F87002 		ldr	r0, [r0, #624]
 682              	.LVL57:
 365:Src/usbd_conf.c ****   /* USER CODE BEGIN HAL_PCD_ConnectCallback_PostTreatment */
 683              		.loc 1 365 3 is_stmt 0 view .LVU134
 684 0006 FFF7FEFF 		bl	USBD_LL_DevConnected
ARM GAS  /tmp/ccL4sKcp.s 			page 46


 685              	.LVL58:
 369:Src/usbd_conf.c **** 
 686              		.loc 1 369 1 view .LVU135
 687 000a 08BD     		pop	{r3, pc}
 688              		.cfi_endproc
 689              	.LFE955:
 691              		.section	.text.HAL_PCD_DisconnectCallback,"ax",%progbits
 692              		.align	1
 693              		.global	HAL_PCD_DisconnectCallback
 694              		.syntax unified
 695              		.thumb
 696              		.thumb_func
 697              		.fpu fpv4-sp-d16
 699              	HAL_PCD_DisconnectCallback:
 700              	.LVL59:
 701              	.LFB956:
 381:Src/usbd_conf.c ****   /* USER CODE BEGIN HAL_PCD_DisconnectCallback_PreTreatment */
 702              		.loc 1 381 1 is_stmt 1 view -0
 703              		.cfi_startproc
 704              		@ args = 0, pretend = 0, frame = 0
 705              		@ frame_needed = 0, uses_anonymous_args = 0
 381:Src/usbd_conf.c ****   /* USER CODE BEGIN HAL_PCD_DisconnectCallback_PreTreatment */
 706              		.loc 1 381 1 is_stmt 0 view .LVU137
 707 0000 08B5     		push	{r3, lr}
 708              	.LCFI16:
 709              		.cfi_def_cfa_offset 8
 710              		.cfi_offset 3, -8
 711              		.cfi_offset 14, -4
 385:Src/usbd_conf.c ****   /* USER CODE BEGIN HAL_PCD_DisconnectCallback_PostTreatment */
 712              		.loc 1 385 3 is_stmt 1 view .LVU138
 713 0002 D0F87002 		ldr	r0, [r0, #624]
 714              	.LVL60:
 385:Src/usbd_conf.c ****   /* USER CODE BEGIN HAL_PCD_DisconnectCallback_PostTreatment */
 715              		.loc 1 385 3 is_stmt 0 view .LVU139
 716 0006 FFF7FEFF 		bl	USBD_LL_DevDisconnected
 717              	.LVL61:
 389:Src/usbd_conf.c **** 
 718              		.loc 1 389 1 view .LVU140
 719 000a 08BD     		pop	{r3, pc}
 720              		.cfi_endproc
 721              	.LFE956:
 723              		.section	.text.USBD_LL_Init,"ax",%progbits
 724              		.align	1
 725              		.global	USBD_LL_Init
 726              		.syntax unified
 727              		.thumb
 728              		.thumb_func
 729              		.fpu fpv4-sp-d16
 731              	USBD_LL_Init:
 732              	.LVL62:
 733              	.LFB957:
 405:Src/usbd_conf.c ****   /* Init USB Ip. */
 734              		.loc 1 405 1 is_stmt 1 view -0
 735              		.cfi_startproc
 736              		@ args = 0, pretend = 0, frame = 0
 737              		@ frame_needed = 0, uses_anonymous_args = 0
 405:Src/usbd_conf.c ****   /* Init USB Ip. */
ARM GAS  /tmp/ccL4sKcp.s 			page 47


 738              		.loc 1 405 1 is_stmt 0 view .LVU142
 739 0000 38B5     		push	{r3, r4, r5, lr}
 740              	.LCFI17:
 741              		.cfi_def_cfa_offset 16
 742              		.cfi_offset 3, -16
 743              		.cfi_offset 4, -12
 744              		.cfi_offset 5, -8
 745              		.cfi_offset 14, -4
 746 0002 0546     		mov	r5, r0
 407:Src/usbd_conf.c ****   /* Link the driver to the stack. */
 747              		.loc 1 407 3 is_stmt 1 view .LVU143
 407:Src/usbd_conf.c ****   /* Link the driver to the stack. */
 748              		.loc 1 407 21 is_stmt 0 view .LVU144
 749 0004 204C     		ldr	r4, .L56
 750 0006 C4F87002 		str	r0, [r4, #624]
 409:Src/usbd_conf.c **** /* Enable USB power on Pwrctrl CR2 register. */
 751              		.loc 1 409 3 is_stmt 1 view .LVU145
 409:Src/usbd_conf.c **** /* Enable USB power on Pwrctrl CR2 register. */
 752              		.loc 1 409 15 is_stmt 0 view .LVU146
 753 000a C0F8C042 		str	r4, [r0, #704]
 411:Src/usbd_conf.c **** 
 754              		.loc 1 411 3 is_stmt 1 view .LVU147
 755 000e FFF7FEFF 		bl	HAL_PWREx_EnableVddUSB
 756              	.LVL63:
 413:Src/usbd_conf.c ****   hpcd_USB_FS.Init.dev_endpoints = 8;
 757              		.loc 1 413 3 view .LVU148
 413:Src/usbd_conf.c ****   hpcd_USB_FS.Init.dev_endpoints = 8;
 758              		.loc 1 413 24 is_stmt 0 view .LVU149
 759 0012 1E4B     		ldr	r3, .L56+4
 760 0014 2360     		str	r3, [r4]
 414:Src/usbd_conf.c ****   hpcd_USB_FS.Init.speed = PCD_SPEED_FULL;
 761              		.loc 1 414 3 is_stmt 1 view .LVU150
 414:Src/usbd_conf.c ****   hpcd_USB_FS.Init.speed = PCD_SPEED_FULL;
 762              		.loc 1 414 34 is_stmt 0 view .LVU151
 763 0016 0823     		movs	r3, #8
 764 0018 6360     		str	r3, [r4, #4]
 415:Src/usbd_conf.c ****   hpcd_USB_FS.Init.phy_itface = PCD_PHY_EMBEDDED;
 765              		.loc 1 415 3 is_stmt 1 view .LVU152
 415:Src/usbd_conf.c ****   hpcd_USB_FS.Init.phy_itface = PCD_PHY_EMBEDDED;
 766              		.loc 1 415 26 is_stmt 0 view .LVU153
 767 001a 0223     		movs	r3, #2
 768 001c A360     		str	r3, [r4, #8]
 416:Src/usbd_conf.c ****   hpcd_USB_FS.Init.Sof_enable = DISABLE;
 769              		.loc 1 416 3 is_stmt 1 view .LVU154
 416:Src/usbd_conf.c ****   hpcd_USB_FS.Init.Sof_enable = DISABLE;
 770              		.loc 1 416 31 is_stmt 0 view .LVU155
 771 001e 2361     		str	r3, [r4, #16]
 417:Src/usbd_conf.c ****   hpcd_USB_FS.Init.low_power_enable = DISABLE;
 772              		.loc 1 417 3 is_stmt 1 view .LVU156
 417:Src/usbd_conf.c ****   hpcd_USB_FS.Init.low_power_enable = DISABLE;
 773              		.loc 1 417 31 is_stmt 0 view .LVU157
 774 0020 0023     		movs	r3, #0
 775 0022 6361     		str	r3, [r4, #20]
 418:Src/usbd_conf.c ****   hpcd_USB_FS.Init.lpm_enable = DISABLE;
 776              		.loc 1 418 3 is_stmt 1 view .LVU158
 418:Src/usbd_conf.c ****   hpcd_USB_FS.Init.lpm_enable = DISABLE;
 777              		.loc 1 418 37 is_stmt 0 view .LVU159
ARM GAS  /tmp/ccL4sKcp.s 			page 48


 778 0024 A361     		str	r3, [r4, #24]
 419:Src/usbd_conf.c ****   hpcd_USB_FS.Init.battery_charging_enable = DISABLE;
 779              		.loc 1 419 3 is_stmt 1 view .LVU160
 419:Src/usbd_conf.c ****   hpcd_USB_FS.Init.battery_charging_enable = DISABLE;
 780              		.loc 1 419 31 is_stmt 0 view .LVU161
 781 0026 E361     		str	r3, [r4, #28]
 420:Src/usbd_conf.c **** 
 782              		.loc 1 420 3 is_stmt 1 view .LVU162
 420:Src/usbd_conf.c **** 
 783              		.loc 1 420 44 is_stmt 0 view .LVU163
 784 0028 2362     		str	r3, [r4, #32]
 428:Src/usbd_conf.c ****   {
 785              		.loc 1 428 3 is_stmt 1 view .LVU164
 428:Src/usbd_conf.c ****   {
 786              		.loc 1 428 7 is_stmt 0 view .LVU165
 787 002a 2046     		mov	r0, r4
 788 002c FFF7FEFF 		bl	HAL_PCD_Init
 789              	.LVL64:
 428:Src/usbd_conf.c ****   {
 790              		.loc 1 428 6 view .LVU166
 791 0030 30BB     		cbnz	r0, .L55
 792              	.L53:
 455:Src/usbd_conf.c ****   HAL_PCDEx_PMAConfig((PCD_HandleTypeDef*)pdev->pData , 0x80 , PCD_SNG_BUF, 0x58);
 793              		.loc 1 455 3 is_stmt 1 view .LVU167
 794 0032 1823     		movs	r3, #24
 795 0034 0022     		movs	r2, #0
 796 0036 1146     		mov	r1, r2
 797 0038 D5F8C002 		ldr	r0, [r5, #704]
 798 003c FFF7FEFF 		bl	HAL_PCDEx_PMAConfig
 799              	.LVL65:
 456:Src/usbd_conf.c ****   /* USER CODE END EndPoint_Configuration */
 800              		.loc 1 456 3 view .LVU168
 801 0040 5823     		movs	r3, #88
 802 0042 0022     		movs	r2, #0
 803 0044 8021     		movs	r1, #128
 804 0046 D5F8C002 		ldr	r0, [r5, #704]
 805 004a FFF7FEFF 		bl	HAL_PCDEx_PMAConfig
 806              	.LVL66:
 459:Src/usbd_conf.c ****   HAL_PCDEx_PMAConfig((PCD_HandleTypeDef*)pdev->pData , 0x01 , PCD_SNG_BUF, 0x110);
 807              		.loc 1 459 3 view .LVU169
 808 004e C023     		movs	r3, #192
 809 0050 0022     		movs	r2, #0
 810 0052 8121     		movs	r1, #129
 811 0054 D5F8C002 		ldr	r0, [r5, #704]
 812 0058 FFF7FEFF 		bl	HAL_PCDEx_PMAConfig
 813              	.LVL67:
 460:Src/usbd_conf.c ****   HAL_PCDEx_PMAConfig((PCD_HandleTypeDef*)pdev->pData , 0x82 , PCD_SNG_BUF, 0x100);
 814              		.loc 1 460 3 view .LVU170
 815 005c 4FF48873 		mov	r3, #272
 816 0060 0022     		movs	r2, #0
 817 0062 0121     		movs	r1, #1
 818 0064 D5F8C002 		ldr	r0, [r5, #704]
 819 0068 FFF7FEFF 		bl	HAL_PCDEx_PMAConfig
 820              	.LVL68:
 461:Src/usbd_conf.c ****   /* USER CODE END EndPoint_Configuration_CDC */
 821              		.loc 1 461 3 view .LVU171
 822 006c 4FF48073 		mov	r3, #256
ARM GAS  /tmp/ccL4sKcp.s 			page 49


 823 0070 0022     		movs	r2, #0
 824 0072 8221     		movs	r1, #130
 825 0074 D5F8C002 		ldr	r0, [r5, #704]
 826 0078 FFF7FEFF 		bl	HAL_PCDEx_PMAConfig
 827              	.LVL69:
 463:Src/usbd_conf.c **** }
 828              		.loc 1 463 3 view .LVU172
 464:Src/usbd_conf.c **** 
 829              		.loc 1 464 1 is_stmt 0 view .LVU173
 830 007c 0020     		movs	r0, #0
 831 007e 38BD     		pop	{r3, r4, r5, pc}
 832              	.LVL70:
 833              	.L55:
 430:Src/usbd_conf.c ****   }
 834              		.loc 1 430 5 is_stmt 1 view .LVU174
 835 0080 FFF7FEFF 		bl	Error_Handler
 836              	.LVL71:
 837 0084 D5E7     		b	.L53
 838              	.L57:
 839 0086 00BF     		.align	2
 840              	.L56:
 841 0088 00000000 		.word	hpcd_USB_FS
 842 008c 00680040 		.word	1073768448
 843              		.cfi_endproc
 844              	.LFE957:
 846              		.section	.text.USBD_LL_DeInit,"ax",%progbits
 847              		.align	1
 848              		.global	USBD_LL_DeInit
 849              		.syntax unified
 850              		.thumb
 851              		.thumb_func
 852              		.fpu fpv4-sp-d16
 854              	USBD_LL_DeInit:
 855              	.LVL72:
 856              	.LFB958:
 472:Src/usbd_conf.c ****   HAL_StatusTypeDef hal_status = HAL_OK;
 857              		.loc 1 472 1 view -0
 858              		.cfi_startproc
 859              		@ args = 0, pretend = 0, frame = 0
 860              		@ frame_needed = 0, uses_anonymous_args = 0
 472:Src/usbd_conf.c ****   HAL_StatusTypeDef hal_status = HAL_OK;
 861              		.loc 1 472 1 is_stmt 0 view .LVU176
 862 0000 08B5     		push	{r3, lr}
 863              	.LCFI18:
 864              		.cfi_def_cfa_offset 8
 865              		.cfi_offset 3, -8
 866              		.cfi_offset 14, -4
 473:Src/usbd_conf.c ****   USBD_StatusTypeDef usb_status = USBD_OK;
 867              		.loc 1 473 3 is_stmt 1 view .LVU177
 868              	.LVL73:
 474:Src/usbd_conf.c **** 
 869              		.loc 1 474 3 view .LVU178
 476:Src/usbd_conf.c **** 
 870              		.loc 1 476 3 view .LVU179
 476:Src/usbd_conf.c **** 
 871              		.loc 1 476 16 is_stmt 0 view .LVU180
 872 0002 D0F8C002 		ldr	r0, [r0, #704]
ARM GAS  /tmp/ccL4sKcp.s 			page 50


 873              	.LVL74:
 476:Src/usbd_conf.c **** 
 874              		.loc 1 476 16 view .LVU181
 875 0006 FFF7FEFF 		bl	HAL_PCD_DeInit
 876              	.LVL75:
 478:Src/usbd_conf.c ****  
 877              		.loc 1 478 3 is_stmt 1 view .LVU182
 478:Src/usbd_conf.c ****  
 878              		.loc 1 478 17 is_stmt 0 view .LVU183
 879 000a FFF7FEFF 		bl	USBD_Get_USB_Status
 880              	.LVL76:
 480:Src/usbd_conf.c **** }
 881              		.loc 1 480 3 is_stmt 1 view .LVU184
 481:Src/usbd_conf.c **** 
 882              		.loc 1 481 1 is_stmt 0 view .LVU185
 883 000e 08BD     		pop	{r3, pc}
 884              		.cfi_endproc
 885              	.LFE958:
 887              		.section	.text.USBD_LL_Start,"ax",%progbits
 888              		.align	1
 889              		.global	USBD_LL_Start
 890              		.syntax unified
 891              		.thumb
 892              		.thumb_func
 893              		.fpu fpv4-sp-d16
 895              	USBD_LL_Start:
 896              	.LVL77:
 897              	.LFB959:
 489:Src/usbd_conf.c ****   HAL_StatusTypeDef hal_status = HAL_OK;
 898              		.loc 1 489 1 is_stmt 1 view -0
 899              		.cfi_startproc
 900              		@ args = 0, pretend = 0, frame = 0
 901              		@ frame_needed = 0, uses_anonymous_args = 0
 489:Src/usbd_conf.c ****   HAL_StatusTypeDef hal_status = HAL_OK;
 902              		.loc 1 489 1 is_stmt 0 view .LVU187
 903 0000 08B5     		push	{r3, lr}
 904              	.LCFI19:
 905              		.cfi_def_cfa_offset 8
 906              		.cfi_offset 3, -8
 907              		.cfi_offset 14, -4
 490:Src/usbd_conf.c ****   USBD_StatusTypeDef usb_status = USBD_OK;
 908              		.loc 1 490 3 is_stmt 1 view .LVU188
 909              	.LVL78:
 491:Src/usbd_conf.c ****  
 910              		.loc 1 491 3 view .LVU189
 493:Src/usbd_conf.c ****      
 911              		.loc 1 493 3 view .LVU190
 493:Src/usbd_conf.c ****      
 912              		.loc 1 493 16 is_stmt 0 view .LVU191
 913 0002 D0F8C002 		ldr	r0, [r0, #704]
 914              	.LVL79:
 493:Src/usbd_conf.c ****      
 915              		.loc 1 493 16 view .LVU192
 916 0006 FFF7FEFF 		bl	HAL_PCD_Start
 917              	.LVL80:
 495:Src/usbd_conf.c ****   
 918              		.loc 1 495 3 is_stmt 1 view .LVU193
ARM GAS  /tmp/ccL4sKcp.s 			page 51


 495:Src/usbd_conf.c ****   
 919              		.loc 1 495 17 is_stmt 0 view .LVU194
 920 000a FFF7FEFF 		bl	USBD_Get_USB_Status
 921              	.LVL81:
 497:Src/usbd_conf.c **** }
 922              		.loc 1 497 3 is_stmt 1 view .LVU195
 498:Src/usbd_conf.c **** 
 923              		.loc 1 498 1 is_stmt 0 view .LVU196
 924 000e 08BD     		pop	{r3, pc}
 925              		.cfi_endproc
 926              	.LFE959:
 928              		.section	.text.USBD_LL_Stop,"ax",%progbits
 929              		.align	1
 930              		.global	USBD_LL_Stop
 931              		.syntax unified
 932              		.thumb
 933              		.thumb_func
 934              		.fpu fpv4-sp-d16
 936              	USBD_LL_Stop:
 937              	.LVL82:
 938              	.LFB960:
 506:Src/usbd_conf.c ****   HAL_StatusTypeDef hal_status = HAL_OK;
 939              		.loc 1 506 1 is_stmt 1 view -0
 940              		.cfi_startproc
 941              		@ args = 0, pretend = 0, frame = 0
 942              		@ frame_needed = 0, uses_anonymous_args = 0
 506:Src/usbd_conf.c ****   HAL_StatusTypeDef hal_status = HAL_OK;
 943              		.loc 1 506 1 is_stmt 0 view .LVU198
 944 0000 08B5     		push	{r3, lr}
 945              	.LCFI20:
 946              		.cfi_def_cfa_offset 8
 947              		.cfi_offset 3, -8
 948              		.cfi_offset 14, -4
 507:Src/usbd_conf.c ****   USBD_StatusTypeDef usb_status = USBD_OK;
 949              		.loc 1 507 3 is_stmt 1 view .LVU199
 950              	.LVL83:
 508:Src/usbd_conf.c **** 
 951              		.loc 1 508 3 view .LVU200
 510:Src/usbd_conf.c **** 
 952              		.loc 1 510 3 view .LVU201
 510:Src/usbd_conf.c **** 
 953              		.loc 1 510 16 is_stmt 0 view .LVU202
 954 0002 D0F8C002 		ldr	r0, [r0, #704]
 955              	.LVL84:
 510:Src/usbd_conf.c **** 
 956              		.loc 1 510 16 view .LVU203
 957 0006 FFF7FEFF 		bl	HAL_PCD_Stop
 958              	.LVL85:
 512:Src/usbd_conf.c ****   
 959              		.loc 1 512 3 is_stmt 1 view .LVU204
 512:Src/usbd_conf.c ****   
 960              		.loc 1 512 17 is_stmt 0 view .LVU205
 961 000a FFF7FEFF 		bl	USBD_Get_USB_Status
 962              	.LVL86:
 514:Src/usbd_conf.c **** }
 963              		.loc 1 514 3 is_stmt 1 view .LVU206
 515:Src/usbd_conf.c **** 
ARM GAS  /tmp/ccL4sKcp.s 			page 52


 964              		.loc 1 515 1 is_stmt 0 view .LVU207
 965 000e 08BD     		pop	{r3, pc}
 966              		.cfi_endproc
 967              	.LFE960:
 969              		.section	.text.USBD_LL_OpenEP,"ax",%progbits
 970              		.align	1
 971              		.global	USBD_LL_OpenEP
 972              		.syntax unified
 973              		.thumb
 974              		.thumb_func
 975              		.fpu fpv4-sp-d16
 977              	USBD_LL_OpenEP:
 978              	.LVL87:
 979              	.LFB961:
 526:Src/usbd_conf.c ****   HAL_StatusTypeDef hal_status = HAL_OK;
 980              		.loc 1 526 1 is_stmt 1 view -0
 981              		.cfi_startproc
 982              		@ args = 0, pretend = 0, frame = 0
 983              		@ frame_needed = 0, uses_anonymous_args = 0
 526:Src/usbd_conf.c ****   HAL_StatusTypeDef hal_status = HAL_OK;
 984              		.loc 1 526 1 is_stmt 0 view .LVU209
 985 0000 10B5     		push	{r4, lr}
 986              	.LCFI21:
 987              		.cfi_def_cfa_offset 8
 988              		.cfi_offset 4, -8
 989              		.cfi_offset 14, -4
 990 0002 1446     		mov	r4, r2
 991 0004 1A46     		mov	r2, r3
 992              	.LVL88:
 527:Src/usbd_conf.c ****   USBD_StatusTypeDef usb_status = USBD_OK;
 993              		.loc 1 527 3 is_stmt 1 view .LVU210
 528:Src/usbd_conf.c **** 
 994              		.loc 1 528 3 view .LVU211
 530:Src/usbd_conf.c **** 
 995              		.loc 1 530 3 view .LVU212
 530:Src/usbd_conf.c **** 
 996              		.loc 1 530 16 is_stmt 0 view .LVU213
 997 0006 2346     		mov	r3, r4
 998              	.LVL89:
 530:Src/usbd_conf.c **** 
 999              		.loc 1 530 16 view .LVU214
 1000 0008 D0F8C002 		ldr	r0, [r0, #704]
 1001              	.LVL90:
 530:Src/usbd_conf.c **** 
 1002              		.loc 1 530 16 view .LVU215
 1003 000c FFF7FEFF 		bl	HAL_PCD_EP_Open
 1004              	.LVL91:
 532:Src/usbd_conf.c ****  
 1005              		.loc 1 532 3 is_stmt 1 view .LVU216
 532:Src/usbd_conf.c ****  
 1006              		.loc 1 532 17 is_stmt 0 view .LVU217
 1007 0010 FFF7FEFF 		bl	USBD_Get_USB_Status
 1008              	.LVL92:
 534:Src/usbd_conf.c **** }
 1009              		.loc 1 534 3 is_stmt 1 view .LVU218
 535:Src/usbd_conf.c **** 
 1010              		.loc 1 535 1 is_stmt 0 view .LVU219
ARM GAS  /tmp/ccL4sKcp.s 			page 53


 1011 0014 10BD     		pop	{r4, pc}
 1012              		.cfi_endproc
 1013              	.LFE961:
 1015              		.section	.text.USBD_LL_CloseEP,"ax",%progbits
 1016              		.align	1
 1017              		.global	USBD_LL_CloseEP
 1018              		.syntax unified
 1019              		.thumb
 1020              		.thumb_func
 1021              		.fpu fpv4-sp-d16
 1023              	USBD_LL_CloseEP:
 1024              	.LVL93:
 1025              	.LFB962:
 544:Src/usbd_conf.c ****   HAL_StatusTypeDef hal_status = HAL_OK;
 1026              		.loc 1 544 1 is_stmt 1 view -0
 1027              		.cfi_startproc
 1028              		@ args = 0, pretend = 0, frame = 0
 1029              		@ frame_needed = 0, uses_anonymous_args = 0
 544:Src/usbd_conf.c ****   HAL_StatusTypeDef hal_status = HAL_OK;
 1030              		.loc 1 544 1 is_stmt 0 view .LVU221
 1031 0000 08B5     		push	{r3, lr}
 1032              	.LCFI22:
 1033              		.cfi_def_cfa_offset 8
 1034              		.cfi_offset 3, -8
 1035              		.cfi_offset 14, -4
 545:Src/usbd_conf.c ****   USBD_StatusTypeDef usb_status = USBD_OK;
 1036              		.loc 1 545 3 is_stmt 1 view .LVU222
 1037              	.LVL94:
 546:Src/usbd_conf.c ****   
 1038              		.loc 1 546 3 view .LVU223
 548:Src/usbd_conf.c ****       
 1039              		.loc 1 548 3 view .LVU224
 548:Src/usbd_conf.c ****       
 1040              		.loc 1 548 16 is_stmt 0 view .LVU225
 1041 0002 D0F8C002 		ldr	r0, [r0, #704]
 1042              	.LVL95:
 548:Src/usbd_conf.c ****       
 1043              		.loc 1 548 16 view .LVU226
 1044 0006 FFF7FEFF 		bl	HAL_PCD_EP_Close
 1045              	.LVL96:
 550:Src/usbd_conf.c **** 
 1046              		.loc 1 550 3 is_stmt 1 view .LVU227
 550:Src/usbd_conf.c **** 
 1047              		.loc 1 550 17 is_stmt 0 view .LVU228
 1048 000a FFF7FEFF 		bl	USBD_Get_USB_Status
 1049              	.LVL97:
 552:Src/usbd_conf.c **** }
 1050              		.loc 1 552 3 is_stmt 1 view .LVU229
 553:Src/usbd_conf.c **** 
 1051              		.loc 1 553 1 is_stmt 0 view .LVU230
 1052 000e 08BD     		pop	{r3, pc}
 1053              		.cfi_endproc
 1054              	.LFE962:
 1056              		.section	.text.USBD_LL_FlushEP,"ax",%progbits
 1057              		.align	1
 1058              		.global	USBD_LL_FlushEP
 1059              		.syntax unified
ARM GAS  /tmp/ccL4sKcp.s 			page 54


 1060              		.thumb
 1061              		.thumb_func
 1062              		.fpu fpv4-sp-d16
 1064              	USBD_LL_FlushEP:
 1065              	.LVL98:
 1066              	.LFB963:
 562:Src/usbd_conf.c ****   HAL_StatusTypeDef hal_status = HAL_OK;
 1067              		.loc 1 562 1 is_stmt 1 view -0
 1068              		.cfi_startproc
 1069              		@ args = 0, pretend = 0, frame = 0
 1070              		@ frame_needed = 0, uses_anonymous_args = 0
 562:Src/usbd_conf.c ****   HAL_StatusTypeDef hal_status = HAL_OK;
 1071              		.loc 1 562 1 is_stmt 0 view .LVU232
 1072 0000 08B5     		push	{r3, lr}
 1073              	.LCFI23:
 1074              		.cfi_def_cfa_offset 8
 1075              		.cfi_offset 3, -8
 1076              		.cfi_offset 14, -4
 563:Src/usbd_conf.c ****   USBD_StatusTypeDef usb_status = USBD_OK;
 1077              		.loc 1 563 3 is_stmt 1 view .LVU233
 1078              	.LVL99:
 564:Src/usbd_conf.c ****   
 1079              		.loc 1 564 3 view .LVU234
 566:Src/usbd_conf.c ****       
 1080              		.loc 1 566 3 view .LVU235
 566:Src/usbd_conf.c ****       
 1081              		.loc 1 566 16 is_stmt 0 view .LVU236
 1082 0002 D0F8C002 		ldr	r0, [r0, #704]
 1083              	.LVL100:
 566:Src/usbd_conf.c ****       
 1084              		.loc 1 566 16 view .LVU237
 1085 0006 FFF7FEFF 		bl	HAL_PCD_EP_Flush
 1086              	.LVL101:
 568:Src/usbd_conf.c ****   
 1087              		.loc 1 568 3 is_stmt 1 view .LVU238
 568:Src/usbd_conf.c ****   
 1088              		.loc 1 568 17 is_stmt 0 view .LVU239
 1089 000a FFF7FEFF 		bl	USBD_Get_USB_Status
 1090              	.LVL102:
 570:Src/usbd_conf.c **** }
 1091              		.loc 1 570 3 is_stmt 1 view .LVU240
 571:Src/usbd_conf.c **** 
 1092              		.loc 1 571 1 is_stmt 0 view .LVU241
 1093 000e 08BD     		pop	{r3, pc}
 1094              		.cfi_endproc
 1095              	.LFE963:
 1097              		.section	.text.USBD_LL_StallEP,"ax",%progbits
 1098              		.align	1
 1099              		.global	USBD_LL_StallEP
 1100              		.syntax unified
 1101              		.thumb
 1102              		.thumb_func
 1103              		.fpu fpv4-sp-d16
 1105              	USBD_LL_StallEP:
 1106              	.LVL103:
 1107              	.LFB964:
 580:Src/usbd_conf.c ****   HAL_StatusTypeDef hal_status = HAL_OK;
ARM GAS  /tmp/ccL4sKcp.s 			page 55


 1108              		.loc 1 580 1 is_stmt 1 view -0
 1109              		.cfi_startproc
 1110              		@ args = 0, pretend = 0, frame = 0
 1111              		@ frame_needed = 0, uses_anonymous_args = 0
 580:Src/usbd_conf.c ****   HAL_StatusTypeDef hal_status = HAL_OK;
 1112              		.loc 1 580 1 is_stmt 0 view .LVU243
 1113 0000 08B5     		push	{r3, lr}
 1114              	.LCFI24:
 1115              		.cfi_def_cfa_offset 8
 1116              		.cfi_offset 3, -8
 1117              		.cfi_offset 14, -4
 581:Src/usbd_conf.c ****   USBD_StatusTypeDef usb_status = USBD_OK;
 1118              		.loc 1 581 3 is_stmt 1 view .LVU244
 1119              	.LVL104:
 582:Src/usbd_conf.c ****   
 1120              		.loc 1 582 3 view .LVU245
 584:Src/usbd_conf.c **** 
 1121              		.loc 1 584 3 view .LVU246
 584:Src/usbd_conf.c **** 
 1122              		.loc 1 584 16 is_stmt 0 view .LVU247
 1123 0002 D0F8C002 		ldr	r0, [r0, #704]
 1124              	.LVL105:
 584:Src/usbd_conf.c **** 
 1125              		.loc 1 584 16 view .LVU248
 1126 0006 FFF7FEFF 		bl	HAL_PCD_EP_SetStall
 1127              	.LVL106:
 586:Src/usbd_conf.c ****  
 1128              		.loc 1 586 3 is_stmt 1 view .LVU249
 586:Src/usbd_conf.c ****  
 1129              		.loc 1 586 17 is_stmt 0 view .LVU250
 1130 000a FFF7FEFF 		bl	USBD_Get_USB_Status
 1131              	.LVL107:
 588:Src/usbd_conf.c **** }
 1132              		.loc 1 588 3 is_stmt 1 view .LVU251
 589:Src/usbd_conf.c **** 
 1133              		.loc 1 589 1 is_stmt 0 view .LVU252
 1134 000e 08BD     		pop	{r3, pc}
 1135              		.cfi_endproc
 1136              	.LFE964:
 1138              		.section	.text.USBD_LL_ClearStallEP,"ax",%progbits
 1139              		.align	1
 1140              		.global	USBD_LL_ClearStallEP
 1141              		.syntax unified
 1142              		.thumb
 1143              		.thumb_func
 1144              		.fpu fpv4-sp-d16
 1146              	USBD_LL_ClearStallEP:
 1147              	.LVL108:
 1148              	.LFB965:
 598:Src/usbd_conf.c ****   HAL_StatusTypeDef hal_status = HAL_OK;
 1149              		.loc 1 598 1 is_stmt 1 view -0
 1150              		.cfi_startproc
 1151              		@ args = 0, pretend = 0, frame = 0
 1152              		@ frame_needed = 0, uses_anonymous_args = 0
 598:Src/usbd_conf.c ****   HAL_StatusTypeDef hal_status = HAL_OK;
 1153              		.loc 1 598 1 is_stmt 0 view .LVU254
 1154 0000 08B5     		push	{r3, lr}
ARM GAS  /tmp/ccL4sKcp.s 			page 56


 1155              	.LCFI25:
 1156              		.cfi_def_cfa_offset 8
 1157              		.cfi_offset 3, -8
 1158              		.cfi_offset 14, -4
 599:Src/usbd_conf.c ****   USBD_StatusTypeDef usb_status = USBD_OK;
 1159              		.loc 1 599 3 is_stmt 1 view .LVU255
 1160              	.LVL109:
 600:Src/usbd_conf.c ****   
 1161              		.loc 1 600 3 view .LVU256
 602:Src/usbd_conf.c ****      
 1162              		.loc 1 602 3 view .LVU257
 602:Src/usbd_conf.c ****      
 1163              		.loc 1 602 16 is_stmt 0 view .LVU258
 1164 0002 D0F8C002 		ldr	r0, [r0, #704]
 1165              	.LVL110:
 602:Src/usbd_conf.c ****      
 1166              		.loc 1 602 16 view .LVU259
 1167 0006 FFF7FEFF 		bl	HAL_PCD_EP_ClrStall
 1168              	.LVL111:
 604:Src/usbd_conf.c **** 
 1169              		.loc 1 604 3 is_stmt 1 view .LVU260
 604:Src/usbd_conf.c **** 
 1170              		.loc 1 604 17 is_stmt 0 view .LVU261
 1171 000a FFF7FEFF 		bl	USBD_Get_USB_Status
 1172              	.LVL112:
 606:Src/usbd_conf.c **** }
 1173              		.loc 1 606 3 is_stmt 1 view .LVU262
 607:Src/usbd_conf.c **** 
 1174              		.loc 1 607 1 is_stmt 0 view .LVU263
 1175 000e 08BD     		pop	{r3, pc}
 1176              		.cfi_endproc
 1177              	.LFE965:
 1179              		.section	.text.USBD_LL_IsStallEP,"ax",%progbits
 1180              		.align	1
 1181              		.global	USBD_LL_IsStallEP
 1182              		.syntax unified
 1183              		.thumb
 1184              		.thumb_func
 1185              		.fpu fpv4-sp-d16
 1187              	USBD_LL_IsStallEP:
 1188              	.LVL113:
 1189              	.LFB966:
 616:Src/usbd_conf.c ****   PCD_HandleTypeDef *hpcd = (PCD_HandleTypeDef*) pdev->pData;
 1190              		.loc 1 616 1 is_stmt 1 view -0
 1191              		.cfi_startproc
 1192              		@ args = 0, pretend = 0, frame = 0
 1193              		@ frame_needed = 0, uses_anonymous_args = 0
 1194              		@ link register save eliminated.
 617:Src/usbd_conf.c ****   
 1195              		.loc 1 617 3 view .LVU265
 617:Src/usbd_conf.c ****   
 1196              		.loc 1 617 22 is_stmt 0 view .LVU266
 1197 0000 D0F8C032 		ldr	r3, [r0, #704]
 1198              	.LVL114:
 619:Src/usbd_conf.c ****   {
 1199              		.loc 1 619 3 is_stmt 1 view .LVU267
 619:Src/usbd_conf.c ****   {
ARM GAS  /tmp/ccL4sKcp.s 			page 57


 1200              		.loc 1 619 5 is_stmt 0 view .LVU268
 1201 0004 11F0800F 		tst	r1, #128
 1202 0008 06D1     		bne	.L77
 625:Src/usbd_conf.c ****   }
 1203              		.loc 1 625 5 is_stmt 1 view .LVU269
 625:Src/usbd_conf.c ****   }
 1204              		.loc 1 625 33 is_stmt 0 view .LVU270
 1205 000a 01F07F01 		and	r1, r1, #127
 1206              	.LVL115:
 625:Src/usbd_conf.c ****   }
 1207              		.loc 1 625 40 view .LVU271
 1208 000e 03EB4111 		add	r1, r3, r1, lsl #5
 1209 0012 91F82A01 		ldrb	r0, [r1, #298]	@ zero_extendqisi2
 1210              	.LVL116:
 627:Src/usbd_conf.c **** 
 1211              		.loc 1 627 1 view .LVU272
 1212 0016 7047     		bx	lr
 1213              	.LVL117:
 1214              	.L77:
 621:Src/usbd_conf.c ****   }
 1215              		.loc 1 621 5 is_stmt 1 view .LVU273
 621:Src/usbd_conf.c ****   }
 1216              		.loc 1 621 32 is_stmt 0 view .LVU274
 1217 0018 01F07F01 		and	r1, r1, #127
 1218              	.LVL118:
 621:Src/usbd_conf.c ****   }
 1219              		.loc 1 621 39 view .LVU275
 1220 001c 03EB4111 		add	r1, r3, r1, lsl #5
 1221 0020 91F82A00 		ldrb	r0, [r1, #42]	@ zero_extendqisi2
 1222              	.LVL119:
 621:Src/usbd_conf.c ****   }
 1223              		.loc 1 621 39 view .LVU276
 1224 0024 7047     		bx	lr
 1225              		.cfi_endproc
 1226              	.LFE966:
 1228              		.section	.text.USBD_LL_SetUSBAddress,"ax",%progbits
 1229              		.align	1
 1230              		.global	USBD_LL_SetUSBAddress
 1231              		.syntax unified
 1232              		.thumb
 1233              		.thumb_func
 1234              		.fpu fpv4-sp-d16
 1236              	USBD_LL_SetUSBAddress:
 1237              	.LVL120:
 1238              	.LFB967:
 636:Src/usbd_conf.c ****   HAL_StatusTypeDef hal_status = HAL_OK;
 1239              		.loc 1 636 1 is_stmt 1 view -0
 1240              		.cfi_startproc
 1241              		@ args = 0, pretend = 0, frame = 0
 1242              		@ frame_needed = 0, uses_anonymous_args = 0
 636:Src/usbd_conf.c ****   HAL_StatusTypeDef hal_status = HAL_OK;
 1243              		.loc 1 636 1 is_stmt 0 view .LVU278
 1244 0000 08B5     		push	{r3, lr}
 1245              	.LCFI26:
 1246              		.cfi_def_cfa_offset 8
 1247              		.cfi_offset 3, -8
 1248              		.cfi_offset 14, -4
ARM GAS  /tmp/ccL4sKcp.s 			page 58


 637:Src/usbd_conf.c ****   USBD_StatusTypeDef usb_status = USBD_OK;
 1249              		.loc 1 637 3 is_stmt 1 view .LVU279
 1250              	.LVL121:
 638:Src/usbd_conf.c ****   
 1251              		.loc 1 638 3 view .LVU280
 640:Src/usbd_conf.c ****      
 1252              		.loc 1 640 3 view .LVU281
 640:Src/usbd_conf.c ****      
 1253              		.loc 1 640 16 is_stmt 0 view .LVU282
 1254 0002 D0F8C002 		ldr	r0, [r0, #704]
 1255              	.LVL122:
 640:Src/usbd_conf.c ****      
 1256              		.loc 1 640 16 view .LVU283
 1257 0006 FFF7FEFF 		bl	HAL_PCD_SetAddress
 1258              	.LVL123:
 642:Src/usbd_conf.c ****  
 1259              		.loc 1 642 3 is_stmt 1 view .LVU284
 642:Src/usbd_conf.c ****  
 1260              		.loc 1 642 17 is_stmt 0 view .LVU285
 1261 000a FFF7FEFF 		bl	USBD_Get_USB_Status
 1262              	.LVL124:
 644:Src/usbd_conf.c **** }
 1263              		.loc 1 644 3 is_stmt 1 view .LVU286
 645:Src/usbd_conf.c **** 
 1264              		.loc 1 645 1 is_stmt 0 view .LVU287
 1265 000e 08BD     		pop	{r3, pc}
 1266              		.cfi_endproc
 1267              	.LFE967:
 1269              		.section	.text.USBD_LL_Transmit,"ax",%progbits
 1270              		.align	1
 1271              		.global	USBD_LL_Transmit
 1272              		.syntax unified
 1273              		.thumb
 1274              		.thumb_func
 1275              		.fpu fpv4-sp-d16
 1277              	USBD_LL_Transmit:
 1278              	.LVL125:
 1279              	.LFB968:
 656:Src/usbd_conf.c ****   HAL_StatusTypeDef hal_status = HAL_OK;
 1280              		.loc 1 656 1 is_stmt 1 view -0
 1281              		.cfi_startproc
 1282              		@ args = 0, pretend = 0, frame = 0
 1283              		@ frame_needed = 0, uses_anonymous_args = 0
 656:Src/usbd_conf.c ****   HAL_StatusTypeDef hal_status = HAL_OK;
 1284              		.loc 1 656 1 is_stmt 0 view .LVU289
 1285 0000 08B5     		push	{r3, lr}
 1286              	.LCFI27:
 1287              		.cfi_def_cfa_offset 8
 1288              		.cfi_offset 3, -8
 1289              		.cfi_offset 14, -4
 657:Src/usbd_conf.c ****   USBD_StatusTypeDef usb_status = USBD_OK;
 1290              		.loc 1 657 3 is_stmt 1 view .LVU290
 1291              	.LVL126:
 658:Src/usbd_conf.c **** 
 1292              		.loc 1 658 3 view .LVU291
 660:Src/usbd_conf.c ****      
 1293              		.loc 1 660 3 view .LVU292
ARM GAS  /tmp/ccL4sKcp.s 			page 59


 660:Src/usbd_conf.c ****      
 1294              		.loc 1 660 16 is_stmt 0 view .LVU293
 1295 0002 D0F8C002 		ldr	r0, [r0, #704]
 1296              	.LVL127:
 660:Src/usbd_conf.c ****      
 1297              		.loc 1 660 16 view .LVU294
 1298 0006 FFF7FEFF 		bl	HAL_PCD_EP_Transmit
 1299              	.LVL128:
 662:Src/usbd_conf.c ****   
 1300              		.loc 1 662 3 is_stmt 1 view .LVU295
 662:Src/usbd_conf.c ****   
 1301              		.loc 1 662 17 is_stmt 0 view .LVU296
 1302 000a FFF7FEFF 		bl	USBD_Get_USB_Status
 1303              	.LVL129:
 664:Src/usbd_conf.c **** }
 1304              		.loc 1 664 3 is_stmt 1 view .LVU297
 665:Src/usbd_conf.c **** 
 1305              		.loc 1 665 1 is_stmt 0 view .LVU298
 1306 000e 08BD     		pop	{r3, pc}
 1307              		.cfi_endproc
 1308              	.LFE968:
 1310              		.section	.text.USBD_LL_PrepareReceive,"ax",%progbits
 1311              		.align	1
 1312              		.global	USBD_LL_PrepareReceive
 1313              		.syntax unified
 1314              		.thumb
 1315              		.thumb_func
 1316              		.fpu fpv4-sp-d16
 1318              	USBD_LL_PrepareReceive:
 1319              	.LVL130:
 1320              	.LFB969:
 676:Src/usbd_conf.c ****   HAL_StatusTypeDef hal_status = HAL_OK;
 1321              		.loc 1 676 1 is_stmt 1 view -0
 1322              		.cfi_startproc
 1323              		@ args = 0, pretend = 0, frame = 0
 1324              		@ frame_needed = 0, uses_anonymous_args = 0
 676:Src/usbd_conf.c ****   HAL_StatusTypeDef hal_status = HAL_OK;
 1325              		.loc 1 676 1 is_stmt 0 view .LVU300
 1326 0000 08B5     		push	{r3, lr}
 1327              	.LCFI28:
 1328              		.cfi_def_cfa_offset 8
 1329              		.cfi_offset 3, -8
 1330              		.cfi_offset 14, -4
 677:Src/usbd_conf.c ****   USBD_StatusTypeDef usb_status = USBD_OK;
 1331              		.loc 1 677 3 is_stmt 1 view .LVU301
 1332              	.LVL131:
 678:Src/usbd_conf.c **** 
 1333              		.loc 1 678 3 view .LVU302
 680:Src/usbd_conf.c ****      
 1334              		.loc 1 680 3 view .LVU303
 680:Src/usbd_conf.c ****      
 1335              		.loc 1 680 16 is_stmt 0 view .LVU304
 1336 0002 D0F8C002 		ldr	r0, [r0, #704]
 1337              	.LVL132:
 680:Src/usbd_conf.c ****      
 1338              		.loc 1 680 16 view .LVU305
 1339 0006 FFF7FEFF 		bl	HAL_PCD_EP_Receive
ARM GAS  /tmp/ccL4sKcp.s 			page 60


 1340              	.LVL133:
 682:Src/usbd_conf.c ****   	
 1341              		.loc 1 682 3 is_stmt 1 view .LVU306
 682:Src/usbd_conf.c ****   	
 1342              		.loc 1 682 17 is_stmt 0 view .LVU307
 1343 000a FFF7FEFF 		bl	USBD_Get_USB_Status
 1344              	.LVL134:
 684:Src/usbd_conf.c **** }
 1345              		.loc 1 684 3 is_stmt 1 view .LVU308
 685:Src/usbd_conf.c **** 
 1346              		.loc 1 685 1 is_stmt 0 view .LVU309
 1347 000e 08BD     		pop	{r3, pc}
 1348              		.cfi_endproc
 1349              	.LFE969:
 1351              		.section	.text.USBD_LL_GetRxDataSize,"ax",%progbits
 1352              		.align	1
 1353              		.global	USBD_LL_GetRxDataSize
 1354              		.syntax unified
 1355              		.thumb
 1356              		.thumb_func
 1357              		.fpu fpv4-sp-d16
 1359              	USBD_LL_GetRxDataSize:
 1360              	.LVL135:
 1361              	.LFB970:
 694:Src/usbd_conf.c ****   return HAL_PCD_EP_GetRxCount((PCD_HandleTypeDef*) pdev->pData, ep_addr);
 1362              		.loc 1 694 1 is_stmt 1 view -0
 1363              		.cfi_startproc
 1364              		@ args = 0, pretend = 0, frame = 0
 1365              		@ frame_needed = 0, uses_anonymous_args = 0
 694:Src/usbd_conf.c ****   return HAL_PCD_EP_GetRxCount((PCD_HandleTypeDef*) pdev->pData, ep_addr);
 1366              		.loc 1 694 1 is_stmt 0 view .LVU311
 1367 0000 08B5     		push	{r3, lr}
 1368              	.LCFI29:
 1369              		.cfi_def_cfa_offset 8
 1370              		.cfi_offset 3, -8
 1371              		.cfi_offset 14, -4
 695:Src/usbd_conf.c **** }
 1372              		.loc 1 695 3 is_stmt 1 view .LVU312
 695:Src/usbd_conf.c **** }
 1373              		.loc 1 695 10 is_stmt 0 view .LVU313
 1374 0002 D0F8C002 		ldr	r0, [r0, #704]
 1375              	.LVL136:
 695:Src/usbd_conf.c **** }
 1376              		.loc 1 695 10 view .LVU314
 1377 0006 FFF7FEFF 		bl	HAL_PCD_EP_GetRxCount
 1378              	.LVL137:
 696:Src/usbd_conf.c **** 
 1379              		.loc 1 696 1 view .LVU315
 1380 000a 08BD     		pop	{r3, pc}
 1381              		.cfi_endproc
 1382              	.LFE970:
 1384              		.section	.text.HAL_PCDEx_LPM_Callback,"ax",%progbits
 1385              		.align	1
 1386              		.global	HAL_PCDEx_LPM_Callback
 1387              		.syntax unified
 1388              		.thumb
 1389              		.thumb_func
ARM GAS  /tmp/ccL4sKcp.s 			page 61


 1390              		.fpu fpv4-sp-d16
 1392              	HAL_PCDEx_LPM_Callback:
 1393              	.LVL138:
 1394              	.LFB971:
 709:Src/usbd_conf.c ****   /* USER CODE BEGIN LPM_Callback */
 1395              		.loc 1 709 1 is_stmt 1 view -0
 1396              		.cfi_startproc
 1397              		@ args = 0, pretend = 0, frame = 0
 1398              		@ frame_needed = 0, uses_anonymous_args = 0
 709:Src/usbd_conf.c ****   /* USER CODE BEGIN LPM_Callback */
 1399              		.loc 1 709 1 is_stmt 0 view .LVU317
 1400 0000 10B5     		push	{r4, lr}
 1401              	.LCFI30:
 1402              		.cfi_def_cfa_offset 8
 1403              		.cfi_offset 4, -8
 1404              		.cfi_offset 14, -4
 1405 0002 0446     		mov	r4, r0
 711:Src/usbd_conf.c ****   {
 1406              		.loc 1 711 3 is_stmt 1 view .LVU318
 1407 0004 11B1     		cbz	r1, .L87
 1408 0006 0129     		cmp	r1, #1
 1409 0008 0FD0     		beq	.L88
 1410              	.LVL139:
 1411              	.L86:
 736:Src/usbd_conf.c **** 
 1412              		.loc 1 736 1 is_stmt 0 view .LVU319
 1413 000a 10BD     		pop	{r4, pc}
 1414              	.LVL140:
 1415              	.L87:
 714:Src/usbd_conf.c ****     {
 1416              		.loc 1 714 5 is_stmt 1 view .LVU320
 714:Src/usbd_conf.c ****     {
 1417              		.loc 1 714 19 is_stmt 0 view .LVU321
 1418 000c 8369     		ldr	r3, [r0, #24]
 714:Src/usbd_conf.c ****     {
 1419              		.loc 1 714 8 view .LVU322
 1420 000e 23B9     		cbnz	r3, .L92
 1421              	.LVL141:
 1422              	.L90:
 721:Src/usbd_conf.c ****     break;
 1423              		.loc 1 721 5 is_stmt 1 view .LVU323
 1424 0010 D4F87002 		ldr	r0, [r4, #624]
 1425 0014 FFF7FEFF 		bl	USBD_LL_Resume
 1426              	.LVL142:
 722:Src/usbd_conf.c ****     
 1427              		.loc 1 722 5 view .LVU324
 1428 0018 F7E7     		b	.L86
 1429              	.LVL143:
 1430              	.L92:
 716:Src/usbd_conf.c ****       
 1431              		.loc 1 716 7 view .LVU325
 1432 001a FFF7FEFF 		bl	SystemClockConfig_Resume
 1433              	.LVL144:
 719:Src/usbd_conf.c ****     }
 1434              		.loc 1 719 7 view .LVU326
 719:Src/usbd_conf.c ****     }
 1435              		.loc 1 719 16 is_stmt 0 view .LVU327
ARM GAS  /tmp/ccL4sKcp.s 			page 62


 1436 001e 094A     		ldr	r2, .L93
 1437 0020 1369     		ldr	r3, [r2, #16]
 1438 0022 23F00603 		bic	r3, r3, #6
 1439 0026 1361     		str	r3, [r2, #16]
 1440 0028 F2E7     		b	.L90
 1441              	.LVL145:
 1442              	.L88:
 725:Src/usbd_conf.c ****     
 1443              		.loc 1 725 5 is_stmt 1 view .LVU328
 1444 002a D0F87002 		ldr	r0, [r0, #624]
 1445              	.LVL146:
 725:Src/usbd_conf.c ****     
 1446              		.loc 1 725 5 is_stmt 0 view .LVU329
 1447 002e FFF7FEFF 		bl	USBD_LL_Suspend
 1448              	.LVL147:
 728:Src/usbd_conf.c ****     {   
 1449              		.loc 1 728 5 is_stmt 1 view .LVU330
 728:Src/usbd_conf.c ****     {   
 1450              		.loc 1 728 19 is_stmt 0 view .LVU331
 1451 0032 A369     		ldr	r3, [r4, #24]
 728:Src/usbd_conf.c ****     {   
 1452              		.loc 1 728 8 view .LVU332
 1453 0034 002B     		cmp	r3, #0
 1454 0036 E8D0     		beq	.L86
 731:Src/usbd_conf.c ****     }
 1455              		.loc 1 731 7 is_stmt 1 view .LVU333
 731:Src/usbd_conf.c ****     }
 1456              		.loc 1 731 16 is_stmt 0 view .LVU334
 1457 0038 024A     		ldr	r2, .L93
 1458 003a 1369     		ldr	r3, [r2, #16]
 1459 003c 43F00603 		orr	r3, r3, #6
 1460 0040 1361     		str	r3, [r2, #16]
 736:Src/usbd_conf.c **** 
 1461              		.loc 1 736 1 view .LVU335
 1462 0042 E2E7     		b	.L86
 1463              	.L94:
 1464              		.align	2
 1465              	.L93:
 1466 0044 00ED00E0 		.word	-536810240
 1467              		.cfi_endproc
 1468              	.LFE971:
 1470              		.section	.text.USBD_LL_Delay,"ax",%progbits
 1471              		.align	1
 1472              		.global	USBD_LL_Delay
 1473              		.syntax unified
 1474              		.thumb
 1475              		.thumb_func
 1476              		.fpu fpv4-sp-d16
 1478              	USBD_LL_Delay:
 1479              	.LVL148:
 1480              	.LFB972:
 744:Src/usbd_conf.c ****   HAL_Delay(Delay);
 1481              		.loc 1 744 1 is_stmt 1 view -0
 1482              		.cfi_startproc
 1483              		@ args = 0, pretend = 0, frame = 0
 1484              		@ frame_needed = 0, uses_anonymous_args = 0
 744:Src/usbd_conf.c ****   HAL_Delay(Delay);
ARM GAS  /tmp/ccL4sKcp.s 			page 63


 1485              		.loc 1 744 1 is_stmt 0 view .LVU337
 1486 0000 08B5     		push	{r3, lr}
 1487              	.LCFI31:
 1488              		.cfi_def_cfa_offset 8
 1489              		.cfi_offset 3, -8
 1490              		.cfi_offset 14, -4
 745:Src/usbd_conf.c **** }
 1491              		.loc 1 745 3 is_stmt 1 view .LVU338
 1492 0002 FFF7FEFF 		bl	HAL_Delay
 1493              	.LVL149:
 746:Src/usbd_conf.c **** 
 1494              		.loc 1 746 1 is_stmt 0 view .LVU339
 1495 0006 08BD     		pop	{r3, pc}
 1496              		.cfi_endproc
 1497              	.LFE972:
 1499              		.section	.text.USBD_static_malloc,"ax",%progbits
 1500              		.align	1
 1501              		.global	USBD_static_malloc
 1502              		.syntax unified
 1503              		.thumb
 1504              		.thumb_func
 1505              		.fpu fpv4-sp-d16
 1507              	USBD_static_malloc:
 1508              	.LVL150:
 1509              	.LFB973:
 754:Src/usbd_conf.c ****   static uint32_t mem[(sizeof(USBD_CDC_HandleTypeDef)/4)+1];/* On 32-bit boundary */
 1510              		.loc 1 754 1 is_stmt 1 view -0
 1511              		.cfi_startproc
 1512              		@ args = 0, pretend = 0, frame = 0
 1513              		@ frame_needed = 0, uses_anonymous_args = 0
 1514              		@ link register save eliminated.
 755:Src/usbd_conf.c ****   return mem;
 1515              		.loc 1 755 3 view .LVU341
 756:Src/usbd_conf.c **** }
 1516              		.loc 1 756 3 view .LVU342
 757:Src/usbd_conf.c **** 
 1517              		.loc 1 757 1 is_stmt 0 view .LVU343
 1518 0000 0048     		ldr	r0, .L98
 1519              	.LVL151:
 757:Src/usbd_conf.c **** 
 1520              		.loc 1 757 1 view .LVU344
 1521 0002 7047     		bx	lr
 1522              	.L99:
 1523              		.align	2
 1524              	.L98:
 1525 0004 00000000 		.word	.LANCHOR0
 1526              		.cfi_endproc
 1527              	.LFE973:
 1529              		.section	.text.USBD_static_free,"ax",%progbits
 1530              		.align	1
 1531              		.global	USBD_static_free
 1532              		.syntax unified
 1533              		.thumb
 1534              		.thumb_func
 1535              		.fpu fpv4-sp-d16
 1537              	USBD_static_free:
 1538              	.LVL152:
ARM GAS  /tmp/ccL4sKcp.s 			page 64


 1539              	.LFB974:
 765:Src/usbd_conf.c **** 
 1540              		.loc 1 765 1 is_stmt 1 view -0
 1541              		.cfi_startproc
 1542              		@ args = 0, pretend = 0, frame = 0
 1543              		@ frame_needed = 0, uses_anonymous_args = 0
 1544              		@ link register save eliminated.
 767:Src/usbd_conf.c **** 
 1545              		.loc 1 767 1 view .LVU346
 1546 0000 7047     		bx	lr
 1547              		.cfi_endproc
 1548              	.LFE974:
 1550              		.comm	hpcd_USB_FS,628,4
 1551              		.section	.bss.mem.12699,"aw",%nobits
 1552              		.align	2
 1553              		.set	.LANCHOR0,. + 0
 1556              	mem.12699:
 1557 0000 00000000 		.space	544
 1557      00000000 
 1557      00000000 
 1557      00000000 
 1557      00000000 
 1558              		.text
 1559              	.Letext0:
 1560              		.file 3 "/home/nyanko/gcc/gcc-arm-none-eabi-9-2019-q4-major/arm-none-eabi/include/machine/_default
 1561              		.file 4 "/home/nyanko/gcc/gcc-arm-none-eabi-9-2019-q4-major/arm-none-eabi/include/sys/_stdint.h"
 1562              		.file 5 "Drivers/CMSIS/Include/core_cm4.h"
 1563              		.file 6 "Drivers/CMSIS/Device/ST/STM32WBxx/Include/system_stm32wbxx.h"
 1564              		.file 7 "Drivers/CMSIS/Device/ST/STM32WBxx/Include/stm32wb55xx.h"
 1565              		.file 8 "Drivers/CMSIS/Device/ST/STM32WBxx/Include/stm32wbxx.h"
 1566              		.file 9 "Drivers/STM32WBxx_HAL_Driver/Inc/stm32wbxx_hal_def.h"
 1567              		.file 10 "Drivers/STM32WBxx_HAL_Driver/Inc/stm32wbxx_hal_flash.h"
 1568              		.file 11 "Drivers/STM32WBxx_HAL_Driver/Inc/stm32wbxx_hal_gpio.h"
 1569              		.file 12 "Drivers/STM32WBxx_HAL_Driver/Inc/stm32wbxx_ll_usb.h"
 1570              		.file 13 "Drivers/STM32WBxx_HAL_Driver/Inc/stm32wbxx_hal_pcd.h"
 1571              		.file 14 "Drivers/STM32WBxx_HAL_Driver/Inc/stm32wbxx_hal.h"
 1572              		.file 15 "/home/nyanko/gcc/gcc-arm-none-eabi-9-2019-q4-major/arm-none-eabi/include/sys/lock.h"
 1573              		.file 16 "/home/nyanko/gcc/gcc-arm-none-eabi-9-2019-q4-major/arm-none-eabi/include/sys/_types.h"
 1574              		.file 17 "/home/nyanko/gcc/gcc-arm-none-eabi-9-2019-q4-major/lib/gcc/arm-none-eabi/9.2.1/include/s
 1575              		.file 18 "/home/nyanko/gcc/gcc-arm-none-eabi-9-2019-q4-major/arm-none-eabi/include/sys/reent.h"
 1576              		.file 19 "/home/nyanko/gcc/gcc-arm-none-eabi-9-2019-q4-major/arm-none-eabi/include/stdlib.h"
 1577              		.file 20 "Middlewares/ST/STM32_USB_Device_Library/Core/Inc/usbd_def.h"
 1578              		.file 21 "Middlewares/ST/STM32_USB_Device_Library/Class/CDC/Inc/usbd_cdc.h"
 1579              		.file 22 "Middlewares/ST/STM32_USB_Device_Library/Core/Inc/usbd_core.h"
 1580              		.file 23 "Drivers/STM32WBxx_HAL_Driver/Inc/stm32wbxx_hal_pwr_ex.h"
 1581              		.file 24 "Drivers/STM32WBxx_HAL_Driver/Inc/stm32wbxx_hal_pcd_ex.h"
 1582              		.file 25 "Drivers/STM32WBxx_HAL_Driver/Inc/stm32wbxx_hal_cortex.h"
ARM GAS  /tmp/ccL4sKcp.s 			page 65

